###############################################################################
#                                                                             #
# IAR C/C++ Compiler V5.51.0.50312/W32 for Atmel AVR    25/Oct/2011  16:57:33 #
# Copyright (C) 1996-2010 IAR Systems AB.                                     #
#                                                                             #
#    Source file  =  D:\Devel\git\optimize-with-int-calculations-for-microcon #
#                    troller\test.c                                           #
#    Command line =  D:\Devel\git\optimize-with-int-calculations-for-microcon #
#                    troller\test.c --cpu=m128 -ms -o                         #
#                    D:\Devel\git\optimize-with-int-calculations-for-microcon #
#                    troller\iar\Debug\Obj\ -D SIM_WIO=0x30 -D SIM_RIO -lC    #
#                    D:\Devel\git\optimize-with-int-calculations-for-microcon #
#                    troller\iar\Debug\List\ -y --initializers_in_flash -s9   #
#                    --debug -e -I "C:\Programme\IAR Systems\Embedded         #
#                    Workbench 5.51\avr\INC\" -I "C:\Programme\IAR            #
#                    Systems\Embedded Workbench 5.51\avr\INC\CLIB\"           #
#                    --eeprom_size 4096                                       #
#    List file    =  D:\Devel\git\optimize-with-int-calculations-for-microcon #
#                    troller\iar\Debug\List\test.lst                          #
#    Object file  =  D:\Devel\git\optimize-with-int-calculations-for-microcon #
#                    troller\iar\Debug\Obj\test.r90                           #
#                                                                             #
#                                                                             #
###############################################################################

D:\Devel\git\optimize-with-int-calculations-for-microcontroller\test.c
      1          #ifdef  __IAR_SYSTEMS_ICC__
      2          
      3          #include <ioavr.h>

   \                                 In  segment ABSOLUTE, at 0x4c
   \   <__C122> volatile __io _A_TCNT1
   \                     _A_TCNT1:
   \   00000000                      DS8 2

   \                                 In  segment ABSOLUTE, at 0x4e
   \   <__C125> volatile __io _A_TCCR1B
   \                     _A_TCCR1B:
   \   00000000                      DS8 1

   \                                 In  segment ABSOLUTE, at 0x4f
   \   <__C128> volatile __io _A_TCCR1A
   \                     _A_TCCR1A:
   \   00000000                      DS8 1

   \                                 In  segment ABSOLUTE, at 0x56
   \   <__C147> volatile __io _A_TIFR
   \                     _A_TIFR:
   \   00000000                      DS8 1
      4          typedef unsigned char  uint8_t;
      5          typedef   signed char   int8_t;
      6          typedef unsigned short uint16_t;
      7          typedef   signed short  int16_t;
      8          typedef unsigned long  uint32_t;
      9          typedef   signed long   int32_t;
     10          #define PROGMEM __flash
     11          #define PW(a) (a)
     12          #include <math.h>
     13          
     14          #else
     15          
     16          #include <avr/io.h>
     17          #include <stdlib.h>
     18          #include <math.h>
     19          #include <avr/pgmspace.h>
     20          #define PW(a) pgm_read_word(&(a))
     21          
     22          #endif
     23          

   \                                 In  segment NEAR_F, align 1, keep-with-next
     24          int16_t PROGMEM sin_table[66] = {
   \                     sin_table:
   \   00000000   000003240648       DC16 0, 804, 1608, 2410, 3212, 4011, 4808, 5602, 6393, 7179, 7962, 8739
   \              096A0C8C0FAB
   \              12C815E218F9
   \              1C0B1F1A2223
   \   00000018   252828262B1F       DC16 9512, 10278, 11039, 11793, 12539, 13279, 14010, 14732, 15446
   \              2E1130FB33DF
   \              36BA398C3C56
   \   0000002A   3F1741CE447A       DC16 16151, 16846, 17530, 18204, 18868, 19519, 20159, 20787, 21403
   \              471C49B44C3F
   \              4EBF5133539B
   \   0000003C   55F558425A82       DC16 22005, 22594, 23170, 23731, 24279, 24811, 25329, 25832, 26319
   \              5CB35ED760EB
   \              62F164E866CF
   \   0000004E   68A66A6D6C23       DC16 26790, 27245, 27683, 28105, 28510, 28898, 29268, 29621, 29956
   \              6DC96F5E70E2
   \              725473B57504
   \   00000060   7641776B7884       DC16 30273, 30571, 30852, 31113, 31356, 31580, 31785, 31971, 32137
   \              79897A7C7B5C
   \              7C297CE37D89
   \   00000072   7E1D7E9C7F09       DC16 32285, 32412, 32521, 32609, 32678, 32728, 32757, 32767, 32757
   \              7F617FA67FD8
   \              7FF57FFF7FF5
     25          
     26                0,   804,  1608,  2410,  3212,  4011,  4808,  5602,
     27             6393,  7179,  7962,  8739,  9512, 10278, 11039, 11793,
     28            12539, 13279, 14010, 14732, 15446, 16151, 16846, 17530,
     29            18204, 18868, 19519, 20159, 20787, 21403, 22005, 22594,
     30            23170, 23731, 24279, 24811, 25329, 25832, 26319, 26790,
     31            27245, 27683, 28105, 28510, 28898, 29268, 29621, 29956,
     32            30273, 30571, 30852, 31113, 31356, 31580, 31785, 31971,
     33            32137, 32285, 32412, 32521, 32609, 32678, 32728, 32757,
     34            32767, 32757
     35          };
     36          

   \                                 In  segment CODE, align 2, keep-with-next
     37          static int16_t Sine(int32_t phase)
   \                     Sine:
     38          {
   \   00000000   926A               ST      -Y, R6
   \   00000002   925A               ST      -Y, R5
   \   00000004   924A               ST      -Y, R4
   \   00000006   93AA               ST      -Y, R26
   \   00000008   011C               MOVW    R3:R2, R25:R24
   \   0000000A                      REQUIRE ?Register_R4_is_cg_reg
   \   0000000A                      REQUIRE ?Register_R5_is_cg_reg
   \   0000000A                      REQUIRE ?Register_R6_is_cg_reg
     39                  int16_t s0;
     40                  uint16_t tmp_phase, tmp_phase_hi;
     41          
     42                  tmp_phase = phase & 0x7fff;
   \   0000000A   01A8               MOVW    R21:R20, R17:R16
   \   0000000C   775F               ANDI    R21, 0x7F
     43          
     44                  if (tmp_phase & 0x4000)
   \   0000000E   FB56               BST     R21, 6
   \   00000010   F42E               BRTC    ??Sine_0
     45                          tmp_phase = 0x8000 - tmp_phase;
   \   00000012   E060               LDI     R22, 0
   \   00000014   E870               LDI     R23, 128
   \   00000016   1B60               SUB     R22, R16
   \   00000018   0B75               SBC     R23, R21
   \   0000001A   01AB               MOVW    R21:R20, R23:R22
     46          
     47                  tmp_phase_hi = tmp_phase >> 8; // 0...64
   \                     ??Sine_0:
   \   0000001C   2F65               MOV     R22, R21
   \   0000001E   E070               LDI     R23, 0
     48          
     49                  s0 = PW(sin_table[tmp_phase_hi]);
   \   00000020   0F66               LSL     R22
   \   00000022   1F77               ROL     R23
   \   00000024   ....               LDI     R30, LOW(sin_table)
   \   00000026   ....               LDI     R31, (sin_table) >> 8
   \   00000028   0FE6               ADD     R30, R22
   \   0000002A   1FF7               ADC     R31, R23
   \   0000002C   9165               LPM     R22, Z+
   \   0000002E   9175               LPM     R23, Z+
     50          
     51                  s0 += ((int16_t)((((int32_t)(PW(sin_table[tmp_phase_hi+1]) - s0))*
     52                                              (tmp_phase&0xff))>>8));
   \   00000030   9045               LPM     R4, Z+
   \   00000032   9054               LPM     R5, Z
   \   00000034   1A46               SUB     R4, R22
   \   00000036   0A57               SBC     R5, R23
   \   00000038   2C65               MOV     R6, R5
   \   0000003A   0C66               LSL     R6
   \   0000003C   0866               SBC     R6, R6
   \   0000003E   E050               LDI     R21, 0
   \   00000040   2F84               MOV     R24, R20
   \   00000042   9D86               MUL     R24, R6
   \   00000044   2DA0               MOV     R26, R0
   \   00000046   9D85               MUL     R24, R5
   \   00000048   2D90               MOV     R25, R0
   \   0000004A   0DA1               ADD     R26, R1
   \   0000004C   9D84               MUL     R24, R4
   \   0000004E   0D91               ADD     R25, R1
   \   00000050   1FA5               ADC     R26, R21
   \   00000052   0F69               ADD     R22, R25
   \   00000054   1F7A               ADC     R23, R26
     53          
     54                  if (phase & 0x8000) {
   \   00000056   FF17               SBRS    R17, 7
   \   00000058   C003               RJMP    ??Sine_1
     55                          s0 = -s0;
   \   0000005A   9571               NEG     R23
   \   0000005C   9561               NEG     R22
   \   0000005E   4070               SBCI    R23, 0
     56                  }
     57          
     58                  return s0;
   \                     ??Sine_1:
   \   00000060   018B               MOVW    R17:R16, R23:R22
   \   00000062   01C1               MOVW    R25:R24, R3:R2
   \   00000064   91A9               LD      R26, Y+
   \   00000066   9049               LD      R4, Y+
   \   00000068   9059               LD      R5, Y+
   \   0000006A   9069               LD      R6, Y+
   \   0000006C   9508               RET
     59          }
     60          
     61          static int16_t Cosi(int32_t phase)
     62          {
     63              return Sine(phase + 0x4000);
     64          }
     65          
     66          /* by Jim Ulery  http://www.azillionmonkeys.com/qed/ulerysqroot.pdf  */

   \                                 In  segment CODE, align 2, keep-with-next
     67          static uint32_t isqrt(uint32_t val) {
   \                     isqrt:
   \   00000000   92BA               ST      -Y, R11
   \   00000002   92AA               ST      -Y, R10
   \   00000004   929A               ST      -Y, R9
   \   00000006   2DF8               MOV     R31, R8
   \   00000008   2C37               MOV     R3, R7
   \   0000000A   2D76               MOV     R23, R6
   \   0000000C   2D55               MOV     R21, R5
   \   0000000E   2DE4               MOV     R30, R4
   \   00000010   2F68               MOV     R22, R24
   \   00000012                      REQUIRE ?Register_R4_is_cg_reg
   \   00000012                      REQUIRE ?Register_R5_is_cg_reg
   \   00000012                      REQUIRE ?Register_R6_is_cg_reg
   \   00000012                      REQUIRE ?Register_R7_is_cg_reg
   \   00000012                      REQUIRE ?Register_R8_is_cg_reg
   \   00000012                      REQUIRE ?Register_R9_is_cg_reg
   \   00000012                      REQUIRE ?Register_R10_is_cg_reg
   \   00000012                      REQUIRE ?Register_R11_is_cg_reg
   \   00000012   0128               MOVW    R5:R4, R17:R16
   \   00000014   0139               MOVW    R7:R6, R19:R18
     68              uint32_t temp, g = 0, b = 0x8000, bshft = 15;
   \   00000016   2488               CLR     R8
   \   00000018   2499               CLR     R9
   \   0000001A   24AA               CLR     R10
   \   0000001C   24BB               CLR     R11
   \   0000001E   2400               CLR     R0
   \   00000020   E800               LDI     R16, 128
   \   00000022   2E10               MOV     R1, R16
   \   00000024   2422               CLR     R2
   \   00000026   E08F               LDI     R24, 15
     69              do {
     70                  if (val >= (temp = (((g << 1) + b)<<bshft--))) {
   \                     ??isqrt_0:
   \   00000028   0184               MOVW    R17:R16, R9:R8
   \   0000002A   0195               MOVW    R19:R18, R11:R10
   \   0000002C   0F00               LSL     R16
   \   0000002E   1F11               ROL     R17
   \   00000030   1F22               ROL     R18
   \   00000032   1F33               ROL     R19
   \   00000034   0D00               ADD     R16, R0
   \   00000036   1D11               ADC     R17, R1
   \   00000038   1D22               ADC     R18, R2
   \   0000003A   1D32               ADC     R19, R2
   \   0000003C   2F48               MOV     R20, R24
   \   0000003E   ........           CALL    ?L_SHL_L03
   \   00000042   958A               DEC     R24
   \   00000044   1640               CP      R4, R16
   \   00000046   0651               CPC     R5, R17
   \   00000048   0662               CPC     R6, R18
   \   0000004A   0673               CPC     R7, R19
   \   0000004C   F040               BRCS    ??isqrt_1
     71                      g += b;
   \   0000004E   0C80               ADD     R8, R0
   \   00000050   1C91               ADC     R9, R1
   \   00000052   1CA2               ADC     R10, R2
   \   00000054   1CB2               ADC     R11, R2
     72                      val -= temp;
   \   00000056   1A40               SUB     R4, R16
   \   00000058   0A51               SBC     R5, R17
   \   0000005A   0A62               SBC     R6, R18
   \   0000005C   0A73               SBC     R7, R19
     73                  }
     74              } while (b >>= 1);
   \                     ??isqrt_1:
   \   0000005E   9416               LSR     R1
   \   00000060   9407               ROR     R0
   \   00000062   2D00               MOV     R16, R0
   \   00000064   2901               OR      R16, R1
   \   00000066   F701               BRNE    ??isqrt_0
     75              return g;
   \   00000068   0184               MOVW    R17:R16, R9:R8
   \   0000006A   0195               MOVW    R19:R18, R11:R10
   \   0000006C   2F86               MOV     R24, R22
   \   0000006E   2E4E               MOV     R4, R30
   \   00000070   2E55               MOV     R5, R21
   \   00000072   2E67               MOV     R6, R23
   \   00000074   2C73               MOV     R7, R3
   \   00000076   2E8F               MOV     R8, R31
   \   00000078   9099               LD      R9, Y+
   \   0000007A   90A9               LD      R10, Y+
   \   0000007C   90B9               LD      R11, Y+
   \   0000007E   9508               RET
     76          }
     77          

   \                                 In  segment CODE, align 2, keep-with-next
     78          static uint16_t isqrt_c16(uint16_t val) {
   \                     isqrt_c16:
   \   00000000   2F59               MOV     R21, R25
   \   00000002   2E28               MOV     R2, R24
   \   00000004   01B8               MOVW    R23:R22, R17:R16
     79              uint16_t temp, g = 0, b = 0x80, bshft = 7;
   \   00000006   2400               CLR     R0
   \   00000008   2411               CLR     R1
   \   0000000A   E820               LDI     R18, 128
   \   0000000C   E030               LDI     R19, 0
   \   0000000E   E087               LDI     R24, 7
   \   00000010   E090               LDI     R25, 0
     80              do {
     81                  if (val >= (temp = (((g << 1) + b)<<bshft--))) {
   \                     ??isqrt_c16_0:
   \   00000012   0180               MOVW    R17:R16, R1:R0
   \   00000014   0F00               LSL     R16
   \   00000016   1F11               ROL     R17
   \   00000018   0F02               ADD     R16, R18
   \   0000001A   1F13               ADC     R17, R19
   \   0000001C   2F48               MOV     R20, R24
   \   0000001E   ........           CALL    ?S_SHL_L02
   \   00000022   9701               SBIW    R25:R24, 1
   \   00000024   1760               CP      R22, R16
   \   00000026   0771               CPC     R23, R17
   \   00000028   F020               BRCS    ??isqrt_c16_1
     82                      g += b;
   \   0000002A   0E02               ADD     R0, R18
   \   0000002C   1E13               ADC     R1, R19
     83                      val -= temp;
   \   0000002E   1B60               SUB     R22, R16
   \   00000030   0B71               SBC     R23, R17
     84                  }
     85              } while (b >>= 1);
   \                     ??isqrt_c16_1:
   \   00000032   9526               LSR     R18
   \   00000034   F771               BRNE    ??isqrt_c16_0
     86              return g;
   \   00000036   0180               MOVW    R17:R16, R1:R0
   \   00000038   2D82               MOV     R24, R2
   \   0000003A   2F95               MOV     R25, R21
   \   0000003C   9508               RET
     87          }
     88          
     89          #include "asmlib.h"

  typedef unsigned char  uint8_t;
                         ^
"D:\Devel\git\optimize-with-int-calculations-for-microcontroller\asmlib.h",5  Warning[Pe301]: 
          typedef name has already been declared (with same type)

  typedef   signed char   int8_t;
                          ^
"D:\Devel\git\optimize-with-int-calculations-for-microcontroller\asmlib.h",6  Warning[Pe301]: 
          typedef name has already been declared (with same type)

  typedef unsigned short uint16_t;
                         ^
"D:\Devel\git\optimize-with-int-calculations-for-microcontroller\asmlib.h",7  Warning[Pe301]: 
          typedef name has already been declared (with same type)

  typedef   signed short  int16_t;
                          ^
"D:\Devel\git\optimize-with-int-calculations-for-microcontroller\asmlib.h",8  Warning[Pe301]: 
          typedef name has already been declared (with same type)

  typedef unsigned long  uint32_t;
                         ^
"D:\Devel\git\optimize-with-int-calculations-for-microcontroller\asmlib.h",9  Warning[Pe301]: 
          typedef name has already been declared (with same type)

  typedef   signed long   int32_t;
                          ^
"D:\Devel\git\optimize-with-int-calculations-for-microcontroller\asmlib.h",10  Warning[Pe301]: 
          typedef name has already been declared (with same type)
     90          
     91          typedef void (*test_func_t)(void);
     92          

   \                                 In  segment NEAR_I, align 1, keep-with-next
   \   00000000                      REQUIRE `?<Segment init: NEAR_I>`
     93          float a = 3454.345334, b = 12232.45345, c = 0.0;
   \                     a:
   \   00000000                      DS8 4
   \   00000004                      REQUIRE `?<Initializer for a>`
   \                     b:
   \   00000004                      DS8 4
   \   00000008                      REQUIRE `?<Initializer for b>`
   \                     c:
   \   00000008                      DS8 4
   \   0000000C                      REQUIRE `?<Initializer for c>`
     94          short d = 23442;
   \                     d:
   \   0000000C                      DS8 2
   \   0000000E                      REQUIRE `?<Initializer for d>`
     95          

   \                                 In  segment CODE, align 2, keep-with-next
     96          void float_convert_to_float() {
   \                     float_convert_to_float:
   \   00000000   01AD               MOVW    R21:R20, R27:R26
     97          	c = d;
   \   00000002   ....               LDI     R26, LOW((a + 12))
   \   00000004   ....               LDI     R27, HIGH((a + 12))
   \   00000006   910D               LD      R16, X+
   \   00000008   911C               LD      R17, X
   \   0000000A   9715               SBIW    R27:R26, 5
   \   0000000C   2F21               MOV     R18, R17
   \   0000000E   0F22               LSL     R18
   \   00000010   0B22               SBC     R18, R18
   \   00000012   2F32               MOV     R19, R18
   \   00000014   ........           CALL    ?SL2F_L04
   \   00000018   930D               ST      X+, R16
   \   0000001A   931D               ST      X+, R17
   \   0000001C   932D               ST      X+, R18
   \   0000001E   933C               ST      X, R19
     98          }
   \   00000020   01DA               MOVW    R27:R26, R21:R20
   \   00000022   9508               RET
     99          

   \                                 In  segment CODE, align 2, keep-with-next
    100          void float_convert_to_int() {
   \                     float_convert_to_int:
   \   00000000   2F5B               MOV     R21, R27
   \   00000002   2F6A               MOV     R22, R26
    101          	d = (short) c;
   \   00000004   ....               LDI     R26, LOW((a + 8))
   \   00000006   ....               LDI     R27, HIGH((a + 8))
   \   00000008   910D               LD      R16, X+
   \   0000000A   911D               LD      R17, X+
   \   0000000C   912D               LD      R18, X+
   \   0000000E   913D               LD      R19, X+
   \   00000010   ........           CALL    ?F2SL_L04
   \   00000014   930D               ST      X+, R16
   \   00000016   931C               ST      X, R17
    102          }
   \   00000018   2FA6               MOV     R26, R22
   \   0000001A   2FB5               MOV     R27, R21
   \   0000001C   9508               RET
    103          

   \                                 In  segment CODE, align 2, keep-with-next
    104          void float_add_const(void) {
   \                     float_add_const:
   \   00000000   93BA               ST      -Y, R27
   \   00000002   93AA               ST      -Y, R26
    105          	c = a + 4.0;
   \   00000004   ....               LDI     R26, LOW(a)
   \   00000006   ....               LDI     R27, (a) >> 8
   \   00000008   E040               LDI     R20, 0
   \   0000000A   E050               LDI     R21, 0
   \   0000000C   E860               LDI     R22, 128
   \   0000000E   E470               LDI     R23, 64
   \   00000010   910D               LD      R16, X+
   \   00000012   911D               LD      R17, X+
   \   00000014   912D               LD      R18, X+
   \   00000016   913C               LD      R19, X
   \   00000018   9615               ADIW    R27:R26, 5
   \   0000001A   ........           CALL    ?F_ADD_L04
   \   0000001E   ....               RJMP    ??Subroutine6_0
    106          }

   \                                 In  segment CODE, align 2, keep-with-next
   \                     ??Subroutine6_0:
   \   00000000   930D               ST      X+, R16
   \   00000002   931D               ST      X+, R17
   \   00000004   932D               ST      X+, R18
   \   00000006   933C               ST      X, R19
   \   00000008   91A9               LD      R26, Y+
   \   0000000A   91B9               LD      R27, Y+
   \   0000000C   9508               RET
    107          

   \                                 In  segment CODE, align 2, keep-with-next
    108          void float_add(void) {
   \                     float_add:
   \   00000000   93BA               ST      -Y, R27
   \   00000002   93AA               ST      -Y, R26
    109          	c = a + b;
   \   00000004   ....               LDI     R26, LOW((a + 4))
   \   00000006   ....               LDI     R27, HIGH((a + 4))
   \   00000008   910D               LD      R16, X+
   \   0000000A   911D               LD      R17, X+
   \   0000000C   912D               LD      R18, X+
   \   0000000E   913C               LD      R19, X
   \   00000010   9717               SBIW    R27:R26, 7
   \   00000012   914D               LD      R20, X+
   \   00000014   915D               LD      R21, X+
   \   00000016   916D               LD      R22, X+
   \   00000018   917C               LD      R23, X
   \   0000001A   9615               ADIW    R27:R26, 5
   \   0000001C   ........           CALL    ?F_ADD_L04
   \   00000020   ....               RJMP    ??Subroutine6_0
    110          }  
    111          

   \                                 In  segment CODE, align 2, keep-with-next
    112          void float_mul_const(void) {
   \                     float_mul_const:
   \   00000000   93BA               ST      -Y, R27
   \   00000002   93AA               ST      -Y, R26
    113          	c = a * 4.0;
   \   00000004   ....               LDI     R26, LOW(a)
   \   00000006   ....               LDI     R27, (a) >> 8
   \   00000008   E040               LDI     R20, 0
   \   0000000A   E050               LDI     R21, 0
   \   0000000C   E860               LDI     R22, 128
   \   0000000E   E470               LDI     R23, 64
   \   00000010   910D               LD      R16, X+
   \   00000012   911D               LD      R17, X+
   \   00000014   912D               LD      R18, X+
   \   00000016   913C               LD      R19, X
   \   00000018   9615               ADIW    R27:R26, 5
   \   0000001A   ........           CALL    ?F_MUL_L04
   \   0000001E   ....               RJMP    ??Subroutine6_0
    114          } 
    115          

   \                                 In  segment CODE, align 2, keep-with-next
    116          void float_mul(void) {
   \                     float_mul:
   \   00000000   93BA               ST      -Y, R27
   \   00000002   93AA               ST      -Y, R26
    117          	c = a * b;
   \   00000004   ....               LDI     R26, LOW((a + 4))
   \   00000006   ....               LDI     R27, HIGH((a + 4))
   \   00000008   910D               LD      R16, X+
   \   0000000A   911D               LD      R17, X+
   \   0000000C   912D               LD      R18, X+
   \   0000000E   913C               LD      R19, X
   \   00000010   9717               SBIW    R27:R26, 7
   \   00000012   914D               LD      R20, X+
   \   00000014   915D               LD      R21, X+
   \   00000016   916D               LD      R22, X+
   \   00000018   917C               LD      R23, X
   \   0000001A   9615               ADIW    R27:R26, 5
   \   0000001C   ........           CALL    ?F_MUL_L04
   \   00000020   ....               RJMP    ??Subroutine6_0
    118          } 
    119          

   \                                 In  segment CODE, align 2, keep-with-next
   \                     ?Subroutine0:
   \   00000000   910D               LD      R16, X+
   \   00000002   911D               LD      R17, X+
   \   00000004   912D               LD      R18, X+
   \   00000006   913C               LD      R19, X
   \   00000008   9615               ADIW    R27:R26, 5
   \   0000000A   ........           CALL    ?F_DIV_L04
   \   0000000E                      REQUIRE ??Subroutine6_0
   \   0000000E                      ;               // Fall through to label ??Subroutine6_0

   \                                 In  segment CODE, align 2, keep-with-next
    120          void float_div_const(void) {
   \                     float_div_const:
   \   00000000   93BA               ST      -Y, R27
   \   00000002   93AA               ST      -Y, R26
    121          	c = a / 2.4;
   \   00000004   ....               LDI     R26, LOW(a)
   \   00000006   ....               LDI     R27, (a) >> 8
   \   00000008   E94A               LDI     R20, 154
   \   0000000A   E959               LDI     R21, 153
   \   0000000C   E169               LDI     R22, 25
   \   0000000E   E470               LDI     R23, 64
   \   00000010   ....               RJMP    ?Subroutine0
    122          } 
    123          

   \                                 In  segment CODE, align 2, keep-with-next
    124          void float_div(void) {
   \                     float_div:
   \   00000000   93BA               ST      -Y, R27
   \   00000002   93AA               ST      -Y, R26
    125          	c = a / b;
   \   00000004   ....               LDI     R26, LOW((a + 4))
   \   00000006   ....               LDI     R27, HIGH((a + 4))
   \   00000008   914D               LD      R20, X+
   \   0000000A   915D               LD      R21, X+
   \   0000000C   916D               LD      R22, X+
   \   0000000E   917C               LD      R23, X
   \   00000010   9717               SBIW    R27:R26, 7
   \   00000012   ....               RJMP    ?Subroutine0
    126          }
    127          

   \                                 In  segment CODE, align 2, keep-with-next
    128          void float_sqrt() {
   \                     float_sqrt:
   \   00000000   93BA               ST      -Y, R27
   \   00000002   93AA               ST      -Y, R26
    129          	c = sqrt(a);
   \   00000004   ....               LDI     R26, LOW(a)
   \   00000006   ....               LDI     R27, (a) >> 8
   \   00000008   910D               LD      R16, X+
   \   0000000A   911D               LD      R17, X+
   \   0000000C   912D               LD      R18, X+
   \   0000000E   913C               LD      R19, X
   \   00000010   9615               ADIW    R27:R26, 5
   \   00000012   ........           CALL    sqrt
   \   00000016   ....               RJMP    ??Subroutine6_0
    130          }
    131          

   \                                 In  segment CODE, align 2, keep-with-next
    132          void float_sin() {
   \                     float_sin:
   \   00000000   93BA               ST      -Y, R27
   \   00000002   93AA               ST      -Y, R26
    133          	c = sin(a);	
   \   00000004   ....               LDI     R26, LOW(a)
   \   00000006   ....               LDI     R27, (a) >> 8
   \   00000008   910D               LD      R16, X+
   \   0000000A   911D               LD      R17, X+
   \   0000000C   912D               LD      R18, X+
   \   0000000E   913C               LD      R19, X
   \   00000010   9615               ADIW    R27:R26, 5
   \   00000012   ........           CALL    sin
   \   00000016   ....               RJMP    ??Subroutine6_0
    134          }
    135          

   \                                 In  segment NEAR_I, align 1, keep-with-next
   \   00000000                      REQUIRE `?<Segment init: NEAR_I>`
    136          unsigned short i_a = 2344, i_b = 23, i_c;
   \                     i_a:
   \   00000000                      DS8 2
   \   00000002                      REQUIRE `?<Initializer for i_a>`
   \                     i_b:
   \   00000002                      DS8 2
   \   00000004                      REQUIRE `?<Initializer for i_b>`
   \                     i_c:
   \   00000004                      DS8 2
   \   00000006                      REQUIRE `?<Initializer for i_c>`
    137          
    138          static inline unsigned short div10(unsigned short in) { 
    139              return (((unsigned long) in * 52429L)) >> 19;
    140          }
    141          

   \                                 In  segment CODE, align 2, keep-with-next
    142          void int16_div10() {
   \                     int16_div10:
   \   00000000   019D               MOVW    R19:R18, R27:R26
    143          	i_c = i_a / 10;
   \   00000002   ....               LDI     R26, LOW(i_a)
   \   00000004   ....               LDI     R27, (i_a) >> 8
   \   00000006   E04A               LDI     R20, 10
   \   00000008   E050               LDI     R21, 0
   \   0000000A                      REQUIRE ?Subroutine4
   \   0000000A                      ;               // Fall through to label ?Subroutine4
    144          }

   \                                 In  segment CODE, align 2, keep-with-next
   \                     ?Subroutine4:
   \   00000000   910D               LD      R16, X+
   \   00000002   911C               LD      R17, X
   \   00000004   9613               ADIW    R27:R26, 3
   \   00000006   ........           CALL    ?US_DIVMOD_L02
   \   0000000A   930D               ST      X+, R16
   \   0000000C   931C               ST      X, R17
   \   0000000E   01D9               MOVW    R27:R26, R19:R18
   \   00000010   9508               RET
    145          

   \                                 In  segment CODE, align 2, keep-with-next
    146          void int16_div10_fast() {
   \                     int16_div10_fast:
    147          	i_c = div10(i_a);
   \   00000000   ....               LDI     R30, LOW(i_a)
   \   00000002   ....               LDI     R31, (i_a) >> 8
   \   00000004   8140               LD      R20, Z
   \   00000006   8151               LDD     R21, Z+1
   \   00000008   EC0D               LDI     R16, 205
   \   0000000A   EC1C               LDI     R17, 204
   \   0000000C   2422               CLR     R2
   \   0000000E   9F15               MUL     R17, R21
   \   00000010   0190               MOVW    R19:R18, R1:R0
   \   00000012   9F14               MUL     R17, R20
   \   00000014   2D10               MOV     R17, R0
   \   00000016   0D21               ADD     R18, R1
   \   00000018   1D32               ADC     R19, R2
   \   0000001A   9F05               MUL     R16, R21
   \   0000001C   0D10               ADD     R17, R0
   \   0000001E   1D21               ADC     R18, R1
   \   00000020   1D32               ADC     R19, R2
   \   00000022   9F04               MUL     R16, R20
   \   00000024   0D11               ADD     R17, R1
   \   00000026   1D22               ADC     R18, R2
   \   00000028   1D32               ADC     R19, R2
   \   0000002A   0189               MOVW    R17:R16, R19:R18
   \   0000002C                      REQUIRE ?Subroutine2
   \   0000002C                      ;               // Fall through to label ?Subroutine2
    148          }

   \                                 In  segment CODE, align 2, keep-with-next
   \                     ?Subroutine2:
   \   00000000   9516               LSR     R17
   \   00000002   9507               ROR     R16
   \   00000004   9516               LSR     R17
   \   00000006   9507               ROR     R16
   \   00000008   9516               LSR     R17
   \   0000000A   9507               ROR     R16
   \   0000000C   8304               STD     Z+4, R16
   \   0000000E   8315               STD     Z+5, R17
   \   00000010   9508               RET
    149          

   \                                 In  segment CODE, align 2, keep-with-next
    150          void int16_div16() {
   \                     int16_div16:
    151          	i_c = i_a / 16;
   \   00000000   ....               LDI     R30, LOW(i_a)
   \   00000002   ....               LDI     R31, (i_a) >> 8
   \   00000004   8100               LD      R16, Z
   \   00000006   8111               LDD     R17, Z+1
   \   00000008   9516               LSR     R17
   \   0000000A   9507               ROR     R16
   \   0000000C   ....               RJMP    ?Subroutine2
    152          }
    153          

   \                                 In  segment CODE, align 2, keep-with-next
    154          void int16_div() {
   \                     int16_div:
   \   00000000   019D               MOVW    R19:R18, R27:R26
    155              i_c = i_a / i_b;
   \   00000002   ....               LDI     R26, LOW((i_a + 2))
   \   00000004   ....               LDI     R27, HIGH((i_a + 2))
   \   00000006   914D               LD      R20, X+
   \   00000008   915C               LD      R21, X
   \   0000000A   9713               SBIW    R27:R26, 3
   \   0000000C   ....               RJMP    ?Subroutine4
    156          } 
    157          

   \                                 In  segment CODE, align 2, keep-with-next
    158          void int16_mult_const() {
   \                     int16_mult_const:
    159              i_c = i_a * 23;
   \   00000000   ....               LDI     R30, LOW(i_a)
   \   00000002   ....               LDI     R31, (i_a) >> 8
   \   00000004   8120               LD      R18, Z
   \   00000006   8131               LDD     R19, Z+1
   \   00000008   E107               LDI     R16, 23
   \   0000000A   9F03               MUL     R16, R19
   \   0000000C   2D10               MOV     R17, R0
   \   0000000E   9F02               MUL     R16, R18
   \   00000010   0D11               ADD     R17, R1
   \   00000012   8204               STD     Z+4, R0
   \   00000014   8315               STD     Z+5, R17
    160          } 
   \   00000016   9508               RET
    161          

   \                                 In  segment CODE, align 2, keep-with-next
    162          void int16_mult() {
   \                     int16_mult:
    163              i_c = i_a * i_b;
   \   00000000   ....               LDI     R30, LOW(i_a)
   \   00000002   ....               LDI     R31, (i_a) >> 8
   \   00000004   8100               LD      R16, Z
   \   00000006   8111               LDD     R17, Z+1
   \   00000008   8122               LDD     R18, Z+2
   \   0000000A   8133               LDD     R19, Z+3
   \   0000000C   9F30               MUL     R19, R16
   \   0000000E   2D30               MOV     R19, R0
   \   00000010   9F21               MUL     R18, R17
   \   00000012   0D30               ADD     R19, R0
   \   00000014   9F20               MUL     R18, R16
   \   00000016   0D31               ADD     R19, R1
   \   00000018   8204               STD     Z+4, R0
   \   0000001A   8335               STD     Z+5, R19
    164          } 
   \   0000001C   9508               RET
    165          

   \                                 In  segment NEAR_I, align 1, keep-with-next
   \   00000000                      REQUIRE `?<Segment init: NEAR_I>`
    166          unsigned long l_a = 23444, l_b = 23, l_c;
   \                     l_a:
   \   00000000                      DS8 4
   \   00000004                      REQUIRE `?<Initializer for l_a>`
   \                     l_b:
   \   00000004                      DS8 4
   \   00000008                      REQUIRE `?<Initializer for l_b>`
   \                     l_c:
   \   00000008                      DS8 4
   \   0000000C                      REQUIRE `?<Initializer for l_c>`
    167          

   \                                 In  segment CODE, align 2, keep-with-next
    168          void int32_div10() {
   \                     int32_div10:
   \   00000000   93BA               ST      -Y, R27
   \   00000002   2FFA               MOV     R31, R26
    169          	l_c = l_a / 10;
   \   00000004   ....               LDI     R26, LOW(l_a)
   \   00000006   ....               LDI     R27, (l_a) >> 8
   \   00000008   E04A               LDI     R20, 10
   \   0000000A   E050               LDI     R21, 0
   \   0000000C   E060               LDI     R22, 0
   \   0000000E   E070               LDI     R23, 0
   \   00000010                      REQUIRE ?Subroutine1
   \   00000010                      ;               // Fall through to label ?Subroutine1
    170          }

   \                                 In  segment CODE, align 2, keep-with-next
   \                     ?Subroutine1:
   \   00000000   910D               LD      R16, X+
   \   00000002   911D               LD      R17, X+
   \   00000004   912D               LD      R18, X+
   \   00000006   913C               LD      R19, X
   \   00000008   9615               ADIW    R27:R26, 5
   \   0000000A   ........           CALL    ?UL_DIVMOD_L03
   \   0000000E   930D               ST      X+, R16
   \   00000010   931D               ST      X+, R17
   \   00000012   932D               ST      X+, R18
   \   00000014   933C               ST      X, R19
   \   00000016   2FAF               MOV     R26, R31
   \   00000018   91B9               LD      R27, Y+
   \   0000001A   9508               RET
    171          

   \                                 In  segment CODE, align 2, keep-with-next
    172          void int32_div16() {
   \                     int32_div16:
    173          	l_c = l_a / 16;
   \   00000000   ....               LDI     R30, LOW(l_a)
   \   00000002   ....               LDI     R31, (l_a) >> 8
   \   00000004   E044               LDI     R20, 4
   \   00000006   8100               LD      R16, Z
   \   00000008   8111               LDD     R17, Z+1
   \   0000000A   8122               LDD     R18, Z+2
   \   0000000C   8133               LDD     R19, Z+3
   \   0000000E   ........           CALL    ?UL_SHR_L03
   \   00000012                      REQUIRE ?Subroutine5
   \   00000012                      ;               // Fall through to label ?Subroutine5
    174          }

   \                                 In  segment CODE, align 2, keep-with-next
   \                     ?Subroutine5:
   \   00000000   8700               STD     Z+8, R16
   \   00000002                      REQUIRE ??Subroutine7_0
   \   00000002                      ;               // Fall through to label ??Subroutine7_0

   \                                 In  segment CODE, align 2, keep-with-next
   \                     ??Subroutine7_0:
   \   00000000   8711               STD     Z+9, R17
   \   00000002   8722               STD     Z+10, R18
   \   00000004   8733               STD     Z+11, R19
   \   00000006   9508               RET
    175          

   \                                 In  segment CODE, align 2, keep-with-next
    176          void int32_div() {
   \                     int32_div:
   \   00000000   93BA               ST      -Y, R27
   \   00000002   2FFA               MOV     R31, R26
    177              l_c = l_a / l_b;
   \   00000004   ....               LDI     R26, LOW((l_a + 4))
   \   00000006   ....               LDI     R27, HIGH((l_a + 4))
   \   00000008   914D               LD      R20, X+
   \   0000000A   915D               LD      R21, X+
   \   0000000C   916D               LD      R22, X+
   \   0000000E   917C               LD      R23, X
   \   00000010   9717               SBIW    R27:R26, 7
   \   00000012   ....               RJMP    ?Subroutine1
    178          } 
    179          

   \                                 In  segment CODE, align 2, keep-with-next
    180          void int32_mult_const() {
   \                     int32_mult_const:
    181              l_c = l_a * 234;
   \   00000000   ....               LDI     R30, LOW(l_a)
   \   00000002   ....               LDI     R31, (l_a) >> 8
   \   00000004   8140               LD      R20, Z
   \   00000006   8151               LDD     R21, Z+1
   \   00000008   8162               LDD     R22, Z+2
   \   0000000A   8173               LDD     R23, Z+3
   \   0000000C   EE0A               LDI     R16, 234
   \   0000000E   2422               CLR     R2
   \   00000010   9F07               MUL     R16, R23
   \   00000012   2D30               MOV     R19, R0
   \   00000014   9F06               MUL     R16, R22
   \   00000016   2D20               MOV     R18, R0
   \   00000018   0D31               ADD     R19, R1
   \   0000001A   9F05               MUL     R16, R21
   \   0000001C   2D10               MOV     R17, R0
   \   0000001E   0D21               ADD     R18, R1
   \   00000020   1D32               ADC     R19, R2
   \   00000022   9F04               MUL     R16, R20
   \   00000024   0D11               ADD     R17, R1
   \   00000026   1D22               ADC     R18, R2
   \   00000028   1D32               ADC     R19, R2
   \   0000002A   8600               STD     Z+8, R0
   \   0000002C   ....               RJMP    ??Subroutine7_0
    182          } 
    183          

   \                                 In  segment CODE, align 2, keep-with-next
    184          void int32_mult() {
   \                     int32_mult:
    185              l_c = l_a * l_b;
   \   00000000   ....               LDI     R30, LOW(l_a)
   \   00000002   ....               LDI     R31, (l_a) >> 8
   \   00000004   8100               LD      R16, Z
   \   00000006   8111               LDD     R17, Z+1
   \   00000008   8122               LDD     R18, Z+2
   \   0000000A   8133               LDD     R19, Z+3
   \   0000000C   8144               LDD     R20, Z+4
   \   0000000E   8155               LDD     R21, Z+5
   \   00000010   8166               LDD     R22, Z+6
   \   00000012   8177               LDD     R23, Z+7
   \   00000014   2422               CLR     R2
   \   00000016   9F70               MUL     R23, R16
   \   00000018   2D70               MOV     R23, R0
   \   0000001A   9F61               MUL     R22, R17
   \   0000001C   0D70               ADD     R23, R0
   \   0000001E   9F52               MUL     R21, R18
   \   00000020   0D70               ADD     R23, R0
   \   00000022   9F43               MUL     R20, R19
   \   00000024   0D70               ADD     R23, R0
   \   00000026   9F60               MUL     R22, R16
   \   00000028   2D60               MOV     R22, R0
   \   0000002A   0D71               ADD     R23, R1
   \   0000002C   9F51               MUL     R21, R17
   \   0000002E   0D60               ADD     R22, R0
   \   00000030   1D71               ADC     R23, R1
   \   00000032   9F42               MUL     R20, R18
   \   00000034   0D60               ADD     R22, R0
   \   00000036   1D71               ADC     R23, R1
   \   00000038   9F50               MUL     R21, R16
   \   0000003A   2D50               MOV     R21, R0
   \   0000003C   0D61               ADD     R22, R1
   \   0000003E   1D72               ADC     R23, R2
   \   00000040   9F41               MUL     R20, R17
   \   00000042   0D50               ADD     R21, R0
   \   00000044   1D61               ADC     R22, R1
   \   00000046   1D72               ADC     R23, R2
   \   00000048   9F40               MUL     R20, R16
   \   0000004A   0D51               ADD     R21, R1
   \   0000004C   1D62               ADC     R22, R2
   \   0000004E   1D72               ADC     R23, R2
   \   00000050   8600               STD     Z+8, R0
   \   00000052   8751               STD     Z+9, R21
   \   00000054   8762               STD     Z+10, R22
   \   00000056   8773               STD     Z+11, R23
    186          }
   \   00000058   9508               RET
    187          

   \                                 In  segment CODE, align 2, keep-with-next
    188          void int32_sqrt() {
   \                     int32_sqrt:
    189          	l_c = isqrt(23442342);
   \   00000000   EA06               LDI     R16, 166
   \   00000002   EB13               LDI     R17, 179
   \   00000004   E625               LDI     R18, 101
   \   00000006   E031               LDI     R19, 1
   \   00000008   ....               RCALL   isqrt
   \   0000000A   ....               LDI     R30, LOW(l_a)
   \   0000000C   ....               LDI     R31, (l_a) >> 8
   \   0000000E   ....               RJMP    ?Subroutine5
    190          }
    191          

   \                                 In  segment CODE, align 2, keep-with-next
    192          void int32_sqrt_asm() {
   \                     int32_sqrt_asm:
    193          #ifndef  __IAR_SYSTEMS_ICC__     
    194          	l_c = isqrt32(23442342);
    195          #endif
    196          }
   \   00000000   9508               RET
    197          

   \                                 In  segment CODE, align 2, keep-with-next
    198          void int16_sqrt_asm() {
   \                     int16_sqrt_asm:
    199          #ifndef  __IAR_SYSTEMS_ICC__       
    200          	i_c = isqrt16(23442);
    201          #endif        
    202          }
   \   00000000   9508               RET
    203          

   \                                 In  segment CODE, align 2, keep-with-next
    204          void int16_sqrt() {
   \                     int16_sqrt:
    205          	i_c = isqrt_c16(23442);
   \   00000000   E902               LDI     R16, 146
   \   00000002   E51B               LDI     R17, 91
   \   00000004   ....               RCALL   isqrt_c16
   \   00000006   9300....           STS     (i_a + 4), R16
   \   0000000A   9310....           STS     (i_a + 5), R17
    206          }
   \   0000000E   9508               RET
    207          

   \                                 In  segment CODE, align 2, keep-with-next
    208          void int16_sin() {
   \                     int16_sin:
    209          	l_c = Sine(0x7FFF/6);
   \   00000000   E505               LDI     R16, 85
   \   00000002   E115               LDI     R17, 21
   \   00000004   E020               LDI     R18, 0
   \   00000006   E030               LDI     R19, 0
   \   00000008   ....               RCALL   Sine
   \   0000000A   2F21               MOV     R18, R17
   \   0000000C   0F22               LSL     R18
   \   0000000E   0B22               SBC     R18, R18
   \   00000010   ....               LDI     R30, LOW(l_a)
   \   00000012   ....               LDI     R31, (l_a) >> 8
   \   00000014   8700               STD     Z+8, R16
   \   00000016   8711               STD     Z+9, R17
   \   00000018   8722               STD     Z+10, R18
   \   0000001A   8723               STD     Z+11, R18
    210          }
   \   0000001C   9508               RET
    211          
    212          #ifdef  __IAR_SYSTEMS_ICC__
    213          /* This port correponds to the "-W 0x20,-" command line option. */
    214          #define special_output_port (*((__io *) SIM_WIO))
    215          /* This port correponds to the "-R 0x22,-" command line option. */
    216          #define special_input_port  (*((__io *) SIM_RIO))
    217          #else
    218          /* This port correponds to the "-W 0x20,-" command line option. */
    219          #define special_output_port (*((volatile char *) SIM_WIO))
    220          /* This port correponds to the "-R 0x22,-" command line option. */
    221          #define special_input_port  (*((volatile char *) SIM_RIO))
    222          #endif
    223          

   \                                 In  segment CODE, align 2, keep-with-next
    224          static PrintString(const char* str) {
   \                     PrintString:
    225          	const char *c;
    226          	for(c = str; *c; c++)
   \   00000000   01F8               MOVW    R31:R30, R17:R16
   \   00000002   C003               RJMP    ??PrintString_0
    227          	  special_output_port = *c;
                 	  ^
Warning[Pe260]: explicit type is missing ("int" assumed)

  static int16_t Cosi(int32_t phase)
                 ^
"D:\Devel\git\optimize-with-int-calculations-for-microcontroller\test.c",61  Warning[Pe177]: 
          function "Cosi" was declared but never referenced
   \                     ??PrintString_1:
   \   00000004   E010               LDI     R17, 0
   \   00000006   BF11               OUT     0x31, R17
   \   00000008   BF00               OUT     0x30, R16
   \                     ??PrintString_0:
   \   0000000A   9101               LD      R16, Z+
   \   0000000C   2300               TST     R16
   \   0000000E   F7D1               BRNE    ??PrintString_1
    228          }
   \   00000010   9508               RET
    229          

   \                                 In  segment CODE, align 2, keep-with-next
    230          static void PrintSignedShortFormated(signed short value) {
   \                     PrintSignedShortFormated:
   \   00000000   938A               ST      -Y, R24
   \   00000002   9727               SBIW    R29:R28, 7
   \   00000004   0198               MOVW    R19:R18, R17:R16
    231              unsigned char sBuf0[7];
    232              unsigned char *sBuf = &sBuf0[6];
   \   00000006   01FE               MOVW    R31:R30, R29:R28
   \   00000008   9636               ADIW    R31:R30, 6
    233              unsigned char  minus;
    234              unsigned short valueAlt;   // Alte Wert fr schneller % 10 Berechnung
    235              unsigned short valueCalc;  // muss unsigned weil signed short kann kein 32768
    236              
    237              *sBuf = 0;       // String Terminierung
   \   0000000A   E000               LDI     R16, 0
   \   0000000C   830E               STD     Y+6, R16
    238              if (value < 0) { // Vorzeichen behandeln
   \   0000000E   2311               TST     R17
   \   00000010   F432               BRPL    ??PrintSignedShortFormated_0
    239                minus = '-';
   \   00000012   E28D               LDI     R24, 45
    240                valueCalc = -value;
   \   00000014   9531               NEG     R19
   \   00000016   9521               NEG     R18
   \   00000018   4030               SBCI    R19, 0
   \   0000001A   0189               MOVW    R17:R16, R19:R18
   \   0000001C   C002               RJMP    ??PrintSignedShortFormated_1
    241              } else {
    242                minus = ' ';
   \                     ??PrintSignedShortFormated_0:
   \   0000001E   E280               LDI     R24, 32
    243                valueCalc = value;
   \   00000020   2F02               MOV     R16, R18
    244              }
    245              if (!valueCalc) 
   \                     ??PrintSignedShortFormated_1:
   \   00000022   2F20               MOV     R18, R16
   \   00000024   2B21               OR      R18, R17
   \   00000026   F429               BRNE    ??PrintSignedShortFormated_2
    246                *--sBuf = '0';
   \   00000028   01FE               MOVW    R31:R30, R29:R28
   \   0000002A   9635               ADIW    R31:R30, 5
   \   0000002C   E300               LDI     R16, 48
   \   0000002E   830D               STD     Y+5, R16
   \   00000030   C023               RJMP    ??PrintSignedShortFormated_3
    247              else while (valueCalc) {
    248                valueAlt = valueCalc;
    249                //  schneller als valueCalc /= 10;
    250                valueCalc = div10(valueCalc); 
   \                     ??PrintSignedShortFormated_2:
   \   00000032   01A8               MOVW    R21:R20, R17:R16
   \   00000034   EC0D               LDI     R16, 205
   \   00000036   EC1C               LDI     R17, 204
   \   00000038   2422               CLR     R2
   \   0000003A   9F15               MUL     R17, R21
   \   0000003C   0190               MOVW    R19:R18, R1:R0
   \   0000003E   9F14               MUL     R17, R20
   \   00000040   2D10               MOV     R17, R0
   \   00000042   0D21               ADD     R18, R1
   \   00000044   1D32               ADC     R19, R2
   \   00000046   9F05               MUL     R16, R21
   \   00000048   0D10               ADD     R17, R0
   \   0000004A   1D21               ADC     R18, R1
   \   0000004C   1D32               ADC     R19, R2
   \   0000004E   9F04               MUL     R16, R20
   \   00000050   0D11               ADD     R17, R1
   \   00000052   1D22               ADC     R18, R2
   \   00000054   1D32               ADC     R19, R2
   \   00000056   0189               MOVW    R17:R16, R19:R18
   \   00000058   9516               LSR     R17
   \   0000005A   9507               ROR     R16
   \   0000005C   9516               LSR     R17
   \   0000005E   9507               ROR     R16
   \   00000060   9516               LSR     R17
   \   00000062   9507               ROR     R16
    251                // schneller als  *--sBuf = '0' + (valueAlt % 10)
    252                *--sBuf = '0' + valueAlt - (valueCalc * 10); 
   \   00000064   2F24               MOV     R18, R20
   \   00000066   5D20               SUBI    R18, 208
   \   00000068   2F40               MOV     R20, R16
   \   0000006A   E03A               LDI     R19, 10
   \   0000006C   9F43               MUL     R20, R19
   \   0000006E   1920               SUB     R18, R0
   \   00000070   9322               ST      -Z, R18
    253              } 
   \   00000072   2F20               MOV     R18, R16
   \   00000074   2B21               OR      R18, R17
   \   00000076   F6E9               BRNE    ??PrintSignedShortFormated_2
    254              *--sBuf = minus;                  // Minuszeichen vor die hchstwertigste Stelle setzen
   \                     ??PrintSignedShortFormated_3:
   \   00000078   9382               ST      -Z, R24
   \   0000007A   018E               MOVW    R17:R16, R29:R28
    255              while (sBuf > sBuf0)              // mit Leerzeichen auffllen (fr Formatierung)  
   \   0000007C   170E               CP      R16, R30
   \   0000007E   071F               CPC     R17, R31
   \   00000080   F428               BRCC    ??PrintSignedShortFormated_4
    256                *--sBuf = ' ';
   \                     ??PrintSignedShortFormated_5:
   \   00000082   E220               LDI     R18, 32
   \   00000084   9322               ST      -Z, R18
   \   00000086   170E               CP      R16, R30
   \   00000088   071F               CPC     R17, R31
   \   0000008A   F3D8               BRCS    ??PrintSignedShortFormated_5
    257              PrintString((const char*) sBuf0); // String ausgeben
   \                     ??PrintSignedShortFormated_4:
   \   0000008C   ....               RCALL   PrintString
    258          }
   \   0000008E   9627               ADIW    R29:R28, 7
   \   00000090   9189               LD      R24, Y+
   \   00000092   9508               RET
    259          
    260          

   \                                 In  segment CODE, align 2, keep-with-next
    261          void print_int16(void) {
   \                     print_int16:
    262          	PrintSignedShortFormated(-32421);
   \   00000000   E50B               LDI     R16, 91
   \   00000002   E811               LDI     R17, 129
   \   00000004   ....               RJMP    PrintSignedShortFormated
    263          }
    264          

   \                                 In  segment CODE, align 2, keep-with-next
    265          void print_int16_itoa(void) {
   \                     print_int16_itoa:
   \   00000000   9727               SBIW    R29:R28, 7
    266          	unsigned char sbuf[7];
    267          #ifndef  __IAR_SYSTEMS_ICC__    
    268          	itoa(-32421, sbuf, 10);
    269          #endif
    270          	PrintString((const char*) sbuf);
   \   00000002   018E               MOVW    R17:R16, R29:R28
   \   00000004   ....               RCALL   PrintString
    271          }
   \   00000006   9627               ADIW    R29:R28, 7
   \   00000008   9508               RET
    272          

   \                                 In  segment NEAR_Z, align 1, keep-with-next
   \   00000000                      REQUIRE `?<Segment init: NEAR_Z>`
    273          uint16_t buffer[10][10];
   \                     buffer:
   \   00000000                      DS8 200
    274          

   \                                 In  segment CODE, align 2, keep-with-next
    275          void testData() {
   \                     testData:
   \   00000000   01AD               MOVW    R21:R20, R27:R26
   \   00000002   019C               MOVW    R19:R18, R25:R24
    276            	uint8_t x, y;
    277            	for (x = 0; x < 10; x++) {
   \   00000004   E000               LDI     R16, 0
   \   00000006   ....               LDI     R24, LOW(buffer)
   \   00000008   ....               LDI     R25, (buffer) >> 8
    278                      for (y = 0; y < 10; y++) {
   \                     ??testData_0:
   \   0000000A   01FC               MOVW    R31:R30, R25:R24
   \   0000000C   2FA0               MOV     R26, R16
   \   0000000E   E0B0               LDI     R27, 0
   \   00000010   E01A               LDI     R17, 10
    279                          buffer[x][y] = x + y*10;
   \                     ??testData_1:
   \   00000012   93A1               ST      Z+, R26
   \   00000014   93B1               ST      Z+, R27
    280                      }
   \   00000016   961A               ADIW    R27:R26, 10
   \   00000018   951A               DEC     R17
   \   0000001A   F7D9               BRNE    ??testData_1
    281            	}	
   \   0000001C   9503               INC     R16
   \   0000001E   9644               ADIW    R25:R24, 20
   \   00000020   300A               CPI     R16, 10
   \   00000022   F398               BRCS    ??testData_0
    282          }
   \   00000024   01C9               MOVW    R25:R24, R19:R18
   \   00000026   01DA               MOVW    R27:R26, R21:R20
   \   00000028   9508               RET
    283          

   \                                 In  segment CODE, align 2, keep-with-next
    284          void test_loop1() {
   \                     test_loop1:
   \   00000000   2F19               MOV     R17, R25
   \   00000002   2F48               MOV     R20, R24
    285            	uint8_t x, y;
    286            	for (x = 0; x < 10; x++) {
   \   00000004   ....               LDI     R24, LOW(buffer)
   \   00000006   ....               LDI     R25, (buffer) >> 8
   \   00000008   E03A               LDI     R19, 10
    287                      for (y = 0; y < 10; y++) {
   \                     ??test_loop1_0:
   \   0000000A   01FC               MOVW    R31:R30, R25:R24
   \   0000000C   E02A               LDI     R18, 10
    288                          buffer[x][y] = 0;
   \                     ??test_loop1_1:
   \   0000000E   E000               LDI     R16, 0
   \   00000010   9301               ST      Z+, R16
   \   00000012   9301               ST      Z+, R16
    289                      }
   \   00000014   952A               DEC     R18
   \   00000016   F7D9               BRNE    ??test_loop1_1
    290            	}	
   \   00000018   9644               ADIW    R25:R24, 20
   \   0000001A   953A               DEC     R19
   \   0000001C   F7B1               BRNE    ??test_loop1_0
    291          }
   \   0000001E   2F84               MOV     R24, R20
   \   00000020   2F91               MOV     R25, R17
   \   00000022   9508               RET
    292          
    293          void test_loop2() {
   \                     test_loop2:
    294            	uint16_t *ptr = (uint16_t *) buffer; 
   \   00000000                      REQUIRE ?Subroutine3
   \   00000000                      ;               // Fall through to label ?Subroutine3

   \                                 In  segment CODE, align 2, keep-with-next
   \                     ?Subroutine3:
   \   00000000   ....               LDI     R30, LOW(buffer)
   \   00000002   ....               LDI     R31, (buffer) >> 8
   \   00000004   E624               LDI     R18, 100
   \                     ??Subroutine3_0:
   \   00000006   E000               LDI     R16, 0
   \   00000008   9301               ST      Z+, R16
   \   0000000A   9301               ST      Z+, R16
   \   0000000C   952A               DEC     R18
   \   0000000E   F7D9               BRNE    ??Subroutine3_0
   \   00000010   9508               RET
    295            	uint8_t x;
    296            	for (x = 0; x < 10*10; x++) {
    297               	    *ptr++ = 0;
    298            	}
    299          }
    300          

   \                                 In  segment CODE, align 2, keep-with-next
    301          void test_loop3() {
   \                     test_loop3:
    302            	uint16_t *ptr = (uint16_t *) buffer; 
   \   00000000   ....               RJMP    ?Subroutine3
    303            	uint8_t x = 10*10;
    304            	while (x--) {
    305               	    *ptr++ = 0;
    306            	}
    307          }
    308          

   \                                 In  segment CODE, align 2, keep-with-next
    309          void test_loop4() {
   \                     test_loop4:
    310            	uint8_t x = 10*10;
    311            	uint16_t *ptr = (uint16_t *) buffer; 
   \   00000000   ....               RJMP    ?Subroutine3
    312             	do {
    313             		*ptr++ = 0;
    314             	} while (--x);
    315          }
    316          
    317          
    318          
    319          /*
    320          static void PrintSignedShort(signed short value) {
    321              unsigned char sBuf0[7];
    322              unsigned char *sBuf = &sBuf0[6];
    323              unsigned char x = 6, minus;
    324              unsigned short valueAlt;   // Alte Wert fr schneller % 10 Berechnung
    325              unsigned short valueCalc;  // muss unsigned weil signed short kann kein 32768
    326              
    327              *sBuf = 0;
    328              if (value < 0) { // Vorzeichen behandeln
    329                minus = 1;
    330                valueCalc = -value;
    331              } else {
    332                minus = 0;
    333                valueCalc = value;
    334              }
    335              do {
    336                valueAlt = valueCalc;
    337                valueCalc = div10(valueCalc); //  schneller als valueCalc /= 10;
    338                *--sBuf = '0' + valueAlt - (valueCalc * 10); // schneller als  *--sBuf = '0' + (valueAlt % 10)
    339              } while (valueCalc);
    340              if (minus)
    341          		*--sBuf = '-';                // Minuszeichen vor die hchstwertigste Stelle setzen
    342              PrintString((const char*) sBuf0); // String ausgeben
    343          }
    344          */
    345          
    346          #define TIME_FUNC(func) print_execute_time(func, "" # func) 
    347          

   \                                 In  segment CODE, align 2, keep-with-next
    348          unsigned short print_execute_time(test_func_t function, char name[]) {
   \                     print_execute_time:
   \   00000000   939A               ST      -Y, R25
   \   00000002   938A               ST      -Y, R24
   \   00000004   01C9               MOVW    R25:R24, R19:R18
    349          	// Timer anhalten und initialisieren
    350          	TCCR1A = 0;
   \   00000006   E020               LDI     R18, 0
   \   00000008   BD2F               OUT     0x2F, R18
    351          	TCCR1B = 0;
   \   0000000A   BD2E               OUT     0x2E, R18
    352          	TCNT1  = 0;
   \   0000000C   BD2D               OUT     0x2D, R18
   \   0000000E   BD2C               OUT     0x2C, R18
    353          	TIFR   = 0;
   \   00000010   BF26               OUT     0x36, R18
    354          	TCCR1B = 1; // prescaler 1 Timer starten
   \   00000012   E021               LDI     R18, 1
   \   00000014   BD2E               OUT     0x2E, R18
    355          	function();
   \   00000016   01F8               MOVW    R31:R30, R17:R16
   \   00000018   9509               ICALL
    356          	TCCR1B = 0; // Timer stoppen
   \   0000001A   E000               LDI     R16, 0
   \   0000001C   BD0E               OUT     0x2E, R16
    357          	// print
    358          	PrintSignedShortFormated(TCNT1);
   \   0000001E   B50C               IN      R16, 0x2C
   \   00000020   B51D               IN      R17, 0x2D
   \   00000022   ....               RCALL   PrintSignedShortFormated
    359          	PrintString(" : ");
   \   00000024   ....               LDI     R16, LOW(`?<Constant " : ">`)
   \   00000026   ....               LDI     R17, (`?<Constant " : ">`) >> 8
   \   00000028   ....               RCALL   PrintString
    360          	PrintString(name);
   \   0000002A   018C               MOVW    R17:R16, R25:R24
   \   0000002C   ....               RCALL   PrintString
    361          	if (TIFR & (1 << 2))
   \   0000002E   B706               IN      R16, 0x36
   \   00000030   FF02               SBRS    R16, 2
   \   00000032   C003               RJMP    ??print_execute_time_0
    362          		PrintString(" (Timeroverflow!)");	
   \   00000034   ....               LDI     R16, LOW((`?<Constant " : ">` + 4))
   \   00000036   ....               LDI     R17, HIGH((`?<Constant " : ">` + 4))
   \   00000038   ....               RCALL   PrintString
    363          	PrintString("\n");
   \                     ??print_execute_time_0:
   \   0000003A   ....               LDI     R16, LOW((`?<Constant " : ">` + 22))
   \   0000003C   ....               LDI     R17, HIGH((`?<Constant " : ">` + 22))
   \   0000003E   ....               RCALL   PrintString
    364          	return TCNT1;
   \   00000040   B50C               IN      R16, 0x2C
   \   00000042   B51D               IN      R17, 0x2D
   \   00000044   9189               LD      R24, Y+
   \   00000046   9199               LD      R25, Y+
   \   00000048   9508               RET
   \   0000004A                      REQUIRE _A_TCNT1
   \   0000004A                      REQUIRE _A_TCCR1B
   \   0000004A                      REQUIRE _A_TCCR1A
   \   0000004A                      REQUIRE _A_TIFR
    365          }
    366          
    367          static void assert_(uint8_t compareTrue, uint16_t line) {
                             ^
Warning[Pe177]: function "assert_" was declared but never referenced
    368              if (!compareTrue) {
    369                PrintString("Assert Error in Line ");
    370                PrintSignedShortFormated(line);
    371                PrintString("\n");
    372              }
    373          }
    374          

   \                                 In  segment CODE, align 2, keep-with-next
    375          int main() {
   \                     main:
    376          	PrintString("\nZeitmessung Rechenoperationen\n");
   \   00000000   ....               LDI     R16, LOW(`?<Constant "\\nZeitmessung Rechenop...">`)
   \   00000002   ....               LDI     R17, (`?<Constant "\\nZeitmessung Rechenop...">`) >> 8
   \   00000004   ....               RCALL   PrintString
    377          	PrintString("\n Takte   Funktionsname\n");
   \   00000006   ....               LDI     R16, LOW((`?<Constant "\\nZeitmessung Rechenop...">` + 32))
   \   00000008   ....               LDI     R17, HIGH((`?<Constant "\\nZeitmessung Rechenop...">` + 32))
   \   0000000A   ....               RCALL   PrintString
    378          	TIME_FUNC(float_convert_to_float);
   \   0000000C   ....               LDI     R18, LOW((`?<Constant "\\nZeitmessung Rechenop...">` + 57))
   \   0000000E   ....               LDI     R19, HIGH((`?<Constant "\\nZeitmessung Rechenop...">` + 57))
   \   00000010   ....               LDI     R16, LOW(float_convert_to_float/2)
   \   00000012   ....               LDI     R17, (float_convert_to_float/2) >> 8
   \   00000014   ....               RCALL   print_execute_time
    379          	TIME_FUNC(float_convert_to_int);
   \   00000016   ....               LDI     R18, LOW((`?<Constant "\\nZeitmessung Rechenop...">` + 80))
   \   00000018   ....               LDI     R19, HIGH((`?<Constant "\\nZeitmessung Rechenop...">` + 80))
   \   0000001A   ....               LDI     R16, LOW(float_convert_to_int/2)
   \   0000001C   ....               LDI     R17, (float_convert_to_int/2) >> 8
   \   0000001E   ....               RCALL   print_execute_time
    380          	TIME_FUNC(float_add_const);
   \   00000020   ....               LDI     R18, LOW((`?<Constant "\\nZeitmessung Rechenop...">` + 101))
   \   00000022   ....               LDI     R19, HIGH((`?<Constant "\\nZeitmessung Rechenop...">` + 101))
   \   00000024   ....               LDI     R16, LOW(float_add_const/2)
   \   00000026   ....               LDI     R17, (float_add_const/2) >> 8
   \   00000028   ....               RCALL   print_execute_time
    381          	TIME_FUNC(float_add);
   \   0000002A   ....               LDI     R18, LOW((`?<Constant "\\nZeitmessung Rechenop...">` + 117))
   \   0000002C   ....               LDI     R19, HIGH((`?<Constant "\\nZeitmessung Rechenop...">` + 117))
   \   0000002E   ....               LDI     R16, LOW(float_add/2)
   \   00000030   ....               LDI     R17, (float_add/2) >> 8
   \   00000032   ....               RCALL   print_execute_time
    382          	TIME_FUNC(float_mul_const);
   \   00000034   ....               LDI     R18, LOW((`?<Constant "\\nZeitmessung Rechenop...">` + 127))
   \   00000036   ....               LDI     R19, HIGH((`?<Constant "\\nZeitmessung Rechenop...">` + 127))
   \   00000038   ....               LDI     R16, LOW(float_mul_const/2)
   \   0000003A   ....               LDI     R17, (float_mul_const/2) >> 8
   \   0000003C   ....               RCALL   print_execute_time
    383          	TIME_FUNC(float_mul);
   \   0000003E   ....               LDI     R18, LOW((`?<Constant "\\nZeitmessung Rechenop...">` + 143))
   \   00000040   ....               LDI     R19, HIGH((`?<Constant "\\nZeitmessung Rechenop...">` + 143))
   \   00000042   ....               LDI     R16, LOW(float_mul/2)
   \   00000044   ....               LDI     R17, (float_mul/2) >> 8
   \   00000046   ....               RCALL   print_execute_time
    384          	TIME_FUNC(float_div_const);
   \   00000048   ....               LDI     R18, LOW((`?<Constant "\\nZeitmessung Rechenop...">` + 153))
   \   0000004A   ....               LDI     R19, HIGH((`?<Constant "\\nZeitmessung Rechenop...">` + 153))
   \   0000004C   ....               LDI     R16, LOW(float_div_const/2)
   \   0000004E   ....               LDI     R17, (float_div_const/2) >> 8
   \   00000050   ....               RCALL   print_execute_time
    385          	TIME_FUNC(float_div);
   \   00000052   ....               LDI     R18, LOW((`?<Constant "\\nZeitmessung Rechenop...">` + 169))
   \   00000054   ....               LDI     R19, HIGH((`?<Constant "\\nZeitmessung Rechenop...">` + 169))
   \   00000056   ....               LDI     R16, LOW(float_div/2)
   \   00000058   ....               LDI     R17, (float_div/2) >> 8
   \   0000005A   ....               RCALL   print_execute_time
    386          	TIME_FUNC(int16_div10);
   \   0000005C   ....               LDI     R18, LOW((`?<Constant "\\nZeitmessung Rechenop...">` + 179))
   \   0000005E   ....               LDI     R19, HIGH((`?<Constant "\\nZeitmessung Rechenop...">` + 179))
   \   00000060   ....               LDI     R16, LOW(int16_div10/2)
   \   00000062   ....               LDI     R17, (int16_div10/2) >> 8
   \   00000064   ....               RCALL   print_execute_time
    387                  //assert_(i_c == 234, __LINE__);
    388          	TIME_FUNC(int16_div10_fast);
   \   00000066   ....               LDI     R18, LOW((`?<Constant "\\nZeitmessung Rechenop...">` + 191))
   \   00000068   ....               LDI     R19, HIGH((`?<Constant "\\nZeitmessung Rechenop...">` + 191))
   \   0000006A   ....               LDI     R16, LOW(int16_div10_fast/2)
   \   0000006C   ....               LDI     R17, (int16_div10_fast/2) >> 8
   \   0000006E   ....               RCALL   print_execute_time
    389                  //assert_(i_c == 234, __LINE__);
    390          	TIME_FUNC(int16_div16);
   \   00000070   ....               LDI     R18, LOW((`?<Constant "\\nZeitmessung Rechenop...">` + 208))
   \   00000072   ....               LDI     R19, HIGH((`?<Constant "\\nZeitmessung Rechenop...">` + 208))
   \   00000074   ....               LDI     R16, LOW(int16_div16/2)
   \   00000076   ....               LDI     R17, (int16_div16/2) >> 8
   \   00000078   ....               RCALL   print_execute_time
    391          	TIME_FUNC(int16_div);
   \   0000007A   ....               LDI     R18, LOW((`?<Constant "\\nZeitmessung Rechenop...">` + 220))
   \   0000007C   ....               LDI     R19, HIGH((`?<Constant "\\nZeitmessung Rechenop...">` + 220))
   \   0000007E   ....               LDI     R16, LOW(int16_div/2)
   \   00000080   ....               LDI     R17, (int16_div/2) >> 8
   \   00000082   ....               RCALL   print_execute_time
    392          	TIME_FUNC(int16_mult_const);
   \   00000084   ....               LDI     R18, LOW((`?<Constant "\\nZeitmessung Rechenop...">` + 230))
   \   00000086   ....               LDI     R19, HIGH((`?<Constant "\\nZeitmessung Rechenop...">` + 230))
   \   00000088   ....               LDI     R16, LOW(int16_mult_const/2)
   \   0000008A   ....               LDI     R17, (int16_mult_const/2) >> 8
   \   0000008C   ....               RCALL   print_execute_time
    393                  //assert_(i_c == 53912, __LINE__);
    394          	TIME_FUNC(int16_mult);
   \   0000008E   ....               LDI     R18, LOW((`?<Constant "\\nZeitmessung Rechenop...">` + 247))
   \   00000090   ....               LDI     R19, HIGH((`?<Constant "\\nZeitmessung Rechenop...">` + 247))
   \   00000092   ....               LDI     R16, LOW(int16_mult/2)
   \   00000094   ....               LDI     R17, (int16_mult/2) >> 8
   \   00000096   ....               RCALL   print_execute_time
    395                  //assert_(i_c == 53912, __LINE__);	
    396          	TIME_FUNC(int32_div10);
   \   00000098   ....               LDI     R18, LOW((`?<Constant "\\nZeitmessung Rechenop...">` + 258))
   \   0000009A   ....               LDI     R19, HIGH((`?<Constant "\\nZeitmessung Rechenop...">` + 258))
   \   0000009C   ....               LDI     R16, LOW(int32_div10/2)
   \   0000009E   ....               LDI     R17, (int32_div10/2) >> 8
   \   000000A0   ....               RCALL   print_execute_time
    397                  //assert_(l_c == 2344, __LINE__);
    398          	TIME_FUNC(int32_div16);
   \   000000A2   ....               LDI     R18, LOW((`?<Constant "\\nZeitmessung Rechenop...">` + 270))
   \   000000A4   ....               LDI     R19, HIGH((`?<Constant "\\nZeitmessung Rechenop...">` + 270))
   \   000000A6   ....               LDI     R16, LOW(int32_div16/2)
   \   000000A8   ....               LDI     R17, (int32_div16/2) >> 8
   \   000000AA   ....               RCALL   print_execute_time
    399          	TIME_FUNC(int32_div);
   \   000000AC   ....               LDI     R18, LOW((`?<Constant "\\nZeitmessung Rechenop...">` + 282))
   \   000000AE   ....               LDI     R19, HIGH((`?<Constant "\\nZeitmessung Rechenop...">` + 282))
   \   000000B0   ....               LDI     R16, LOW(int32_div/2)
   \   000000B2   ....               LDI     R17, (int32_div/2) >> 8
   \   000000B4   ....               RCALL   print_execute_time
    400          	TIME_FUNC(int32_mult_const);
   \   000000B6   ....               LDI     R18, LOW((`?<Constant "\\nZeitmessung Rechenop...">` + 292))
   \   000000B8   ....               LDI     R19, HIGH((`?<Constant "\\nZeitmessung Rechenop...">` + 292))
   \   000000BA   ....               LDI     R16, LOW(int32_mult_const/2)
   \   000000BC   ....               LDI     R17, (int32_mult_const/2) >> 8
   \   000000BE   ....               RCALL   print_execute_time
    401          	TIME_FUNC(float_sqrt);
   \   000000C0   ....               LDI     R18, LOW((`?<Constant "\\nZeitmessung Rechenop...">` + 309))
   \   000000C2   ....               LDI     R19, HIGH((`?<Constant "\\nZeitmessung Rechenop...">` + 309))
   \   000000C4   ....               LDI     R16, LOW(float_sqrt/2)
   \   000000C6   ....               LDI     R17, (float_sqrt/2) >> 8
   \   000000C8   ....               RCALL   print_execute_time
    402          	TIME_FUNC(int16_sqrt);
   \   000000CA   ....               LDI     R18, LOW((`?<Constant "\\nZeitmessung Rechenop...">` + 320))
   \   000000CC   ....               LDI     R19, HIGH((`?<Constant "\\nZeitmessung Rechenop...">` + 320))
   \   000000CE   ....               LDI     R16, LOW(int16_sqrt/2)
   \   000000D0   ....               LDI     R17, (int16_sqrt/2) >> 8
   \   000000D2   ....               RCALL   print_execute_time
    403                  //assert_(i_c == 153, __LINE__);
    404          	TIME_FUNC(int16_sqrt_asm);
   \   000000D4   ....               LDI     R18, LOW((`?<Constant "\\nZeitmessung Rechenop...">` + 331))
   \   000000D6   ....               LDI     R19, HIGH((`?<Constant "\\nZeitmessung Rechenop...">` + 331))
   \   000000D8   ....               LDI     R16, LOW(int16_sqrt_asm/2)
   \   000000DA   ....               LDI     R17, (int16_sqrt_asm/2) >> 8
   \   000000DC   ....               RCALL   print_execute_time
    405                  //assert_(i_c == 153, __LINE__);	
    406          	TIME_FUNC(int32_sqrt);
   \   000000DE   ....               LDI     R18, LOW((`?<Constant "\\nZeitmessung Rechenop...">` + 346))
   \   000000E0   ....               LDI     R19, HIGH((`?<Constant "\\nZeitmessung Rechenop...">` + 346))
   \   000000E2   ....               LDI     R16, LOW(int32_sqrt/2)
   \   000000E4   ....               LDI     R17, (int32_sqrt/2) >> 8
   \   000000E6   ....               RCALL   print_execute_time
    407                  //assert_(l_c == 4841, __LINE__);
    408          	TIME_FUNC(int32_sqrt_asm);
   \   000000E8   ....               LDI     R18, LOW((`?<Constant "\\nZeitmessung Rechenop...">` + 357))
   \   000000EA   ....               LDI     R19, HIGH((`?<Constant "\\nZeitmessung Rechenop...">` + 357))
   \   000000EC   ....               LDI     R16, LOW(int32_sqrt_asm/2)
   \   000000EE   ....               LDI     R17, (int32_sqrt_asm/2) >> 8
   \   000000F0   ....               RCALL   print_execute_time
    409                  //assert_(l_c == 4841, __LINE__);
    410          	TIME_FUNC(float_sin);
   \   000000F2   ....               LDI     R18, LOW((`?<Constant "\\nZeitmessung Rechenop...">` + 372))
   \   000000F4   ....               LDI     R19, HIGH((`?<Constant "\\nZeitmessung Rechenop...">` + 372))
   \   000000F6   ....               LDI     R16, LOW(float_sin/2)
   \   000000F8   ....               LDI     R17, (float_sin/2) >> 8
   \   000000FA   ....               RCALL   print_execute_time
    411          	TIME_FUNC(int16_sin);
   \   000000FC   ....               LDI     R18, LOW((`?<Constant "\\nZeitmessung Rechenop...">` + 382))
   \   000000FE   ....               LDI     R19, HIGH((`?<Constant "\\nZeitmessung Rechenop...">` + 382))
   \   00000100   ....               LDI     R16, LOW(int16_sin/2)
   \   00000102   ....               LDI     R17, (int16_sin/2) >> 8
   \   00000104   ....               RCALL   print_execute_time
    412                  testData();
   \   00000106   ....               RCALL   testData
    413          	TIME_FUNC(test_loop1);
   \   00000108   ....               LDI     R18, LOW((`?<Constant "\\nZeitmessung Rechenop...">` + 392))
   \   0000010A   ....               LDI     R19, HIGH((`?<Constant "\\nZeitmessung Rechenop...">` + 392))
   \   0000010C   ....               LDI     R16, LOW(test_loop1/2)
   \   0000010E   ....               LDI     R17, (test_loop1/2) >> 8
   \   00000110   ....               RCALL   print_execute_time
    414                  //assert_(buffer[9][9] == 0, __LINE__);
    415          	testData();
   \   00000112   ....               RCALL   testData
    416                  TIME_FUNC(test_loop2);
   \   00000114   ....               LDI     R18, LOW((`?<Constant "\\nZeitmessung Rechenop...">` + 403))
   \   00000116   ....               LDI     R19, HIGH((`?<Constant "\\nZeitmessung Rechenop...">` + 403))
   \   00000118   ....               LDI     R16, LOW(test_loop2/2)
   \   0000011A   ....               LDI     R17, (test_loop2/2) >> 8
   \   0000011C   ....               RCALL   print_execute_time
    417                  //assert_(buffer[9][9] == 0, __LINE__);
    418          	testData();
   \   0000011E   ....               RCALL   testData
    419                  TIME_FUNC(test_loop3);
   \   00000120   ....               LDI     R18, LOW((`?<Constant "\\nZeitmessung Rechenop...">` + 414))
   \   00000122   ....               LDI     R19, HIGH((`?<Constant "\\nZeitmessung Rechenop...">` + 414))
   \   00000124   ....               LDI     R16, LOW(test_loop3/2)
   \   00000126   ....               LDI     R17, (test_loop3/2) >> 8
   \   00000128   ....               RCALL   print_execute_time
    420                  //assert_(buffer[9][9] == 0, __LINE__);
    421          	testData();
   \   0000012A   ....               RCALL   testData
    422                  TIME_FUNC(test_loop4);
   \   0000012C   ....               LDI     R18, LOW((`?<Constant "\\nZeitmessung Rechenop...">` + 425))
   \   0000012E   ....               LDI     R19, HIGH((`?<Constant "\\nZeitmessung Rechenop...">` + 425))
   \   00000130   ....               LDI     R16, LOW(test_loop4/2)
   \   00000132   ....               LDI     R17, (test_loop4/2) >> 8
   \   00000134   ....               RCALL   print_execute_time
    423                  //assert_(buffer[9][9] == 0, __LINE__);
    424          	TIME_FUNC(print_int16);
   \   00000136   ....               LDI     R18, LOW((`?<Constant "\\nZeitmessung Rechenop...">` + 436))
   \   00000138   ....               LDI     R19, HIGH((`?<Constant "\\nZeitmessung Rechenop...">` + 436))
   \   0000013A   ....               LDI     R16, LOW(print_int16/2)
   \   0000013C   ....               LDI     R17, (print_int16/2) >> 8
   \   0000013E   ....               RCALL   print_execute_time
    425          	TIME_FUNC(print_int16_itoa);
   \   00000140   ....               LDI     R18, LOW((`?<Constant "\\nZeitmessung Rechenop...">` + 448))
   \   00000142   ....               LDI     R19, HIGH((`?<Constant "\\nZeitmessung Rechenop...">` + 448))
   \   00000144   ....               LDI     R16, LOW(print_int16_itoa/2)
   \   00000146   ....               LDI     R17, (print_int16_itoa/2) >> 8
   \   00000148   ....               RCALL   print_execute_time
    426          	//PrintString(" - sqrt(23442.0)  = ");
    427          	//PrintSignedShortFormated(sqrt(23442.0));	
    428          	//PrintString("\n - isqrt16(23442) = ");
    429          	//PrintSignedShortFormated(isqrt_c16(23442));
    430          	//PrintString("\n");	
    431          	return 0;	
   \   0000014A   E000               LDI     R16, 0
   \   0000014C   E010               LDI     R17, 0
   \   0000014E   9508               RET
    432          }

   \                                 In  segment NEAR_ID, align 1, keep-with-next
   \                     `?<Initializer for <Constant " : ">>`:
   \   00000000   3A200020           DC8 " : "
   \                     `?<Initializer for <Constant " (Timeroverflow!)`:
   \   00000004   28206954656D       DC8 " (Timeroverflow!)"
   \              6F7265766672
   \              6F6C21770029
   \                     `?<Initializer for <Constant "\\n">>`:
   \   00000016   000A               DC8 "\012"

   \                                 In  segment NEAR_ID, align 1, keep-with-next
   \                     `?<Initializer for <Constant "\\nZeitmessung Rec`:
   \   00000000   5A0A69656D74       DC8 "\012Zeitmessung Rechenoperationen\012"
   \              73657573676E
   \              522063656568
   \              6F6E65706172
   \              69746E6F6E65
   \              000A        
   \                     `?<Initializer for <Constant "\\n Takte   Funkti`:
   \   00000020   200A6154746B       DC8 "\012 Takte   Funktionsname\012"
   \              206520207546
   \              6B6E69746E6F
   \              6E736D610A65
   \              00          
   \                     `?<Initializer for <Constant "float_convert_to_`:
   \   00000039   6C66616F5F74       DC8 "float_convert_to_float"
   \              6F63766E7265
   \              5F746F74665F
   \              6F6C746100  
   \                     `?<Initializer for <Constant "float_convert_to__1`:
   \   00000050   6C66616F5F74       DC8 "float_convert_to_int"
   \              6F63766E7265
   \              5F746F74695F
   \              746E00      
   \                     `?<Initializer for <Constant "float_add_const">`:
   \   00000065   6C66616F5F74       DC8 "float_add_const"
   \              64615F646F63
   \              736E0074    
   \                     `?<Initializer for <Constant "float_add">>`:
   \   00000075   6C66616F5F74       DC8 "float_add"
   \              64610064    
   \                     `?<Initializer for <Constant "float_mul_const">`:
   \   0000007F   6C66616F5F74       DC8 "float_mul_const"
   \              756D5F6C6F63
   \              736E0074    
   \                     `?<Initializer for <Constant "float_mul">>`:
   \   0000008F   6C66616F5F74       DC8 "float_mul"
   \              756D006C    
   \                     `?<Initializer for <Constant "float_div_const">`:
   \   00000099   6C66616F5F74       DC8 "float_div_const"
   \              69645F766F63
   \              736E0074    
   \                     `?<Initializer for <Constant "float_div">>`:
   \   000000A9   6C66616F5F74       DC8 "float_div"
   \              69640076    
   \                     `?<Initializer for <Constant "int16_div10">>`:
   \   000000B3   6E6931745F36       DC8 "int16_div10"
   \              696431760030
   \                     `?<Initializer for <Constant "int16_div10_fast"`:
   \   000000BF   6E6931745F36       DC8 "int16_div10_fast"
   \              696431765F30
   \              6166747300  
   \                     `?<Initializer for <Constant "int16_div16">>`:
   \   000000D0   6E6931745F36       DC8 "int16_div16"
   \              696431760036
   \                     `?<Initializer for <Constant "int16_div">>`:
   \   000000DC   6E6931745F36       DC8 "int16_div"
   \              69640076    
   \                     `?<Initializer for <Constant "int16_mult_const"`:
   \   000000E6   6E6931745F36       DC8 "int16_mult_const"
   \              756D746C635F
   \              6E6F747300  
   \                     `?<Initializer for <Constant "int16_mult">>`:
   \   000000F7   6E6931745F36       DC8 "int16_mult"
   \              756D746C00  
   \                     `?<Initializer for <Constant "int32_div10">>`:
   \   00000102   6E6933745F32       DC8 "int32_div10"
   \              696431760030
   \                     `?<Initializer for <Constant "int32_div16">>`:
   \   0000010E   6E6933745F32       DC8 "int32_div16"
   \              696431760036
   \                     `?<Initializer for <Constant "int32_div">>`:
   \   0000011A   6E6933745F32       DC8 "int32_div"
   \              69640076    
   \                     `?<Initializer for <Constant "int32_mult_const"`:
   \   00000124   6E6933745F32       DC8 "int32_mult_const"
   \              756D746C635F
   \              6E6F747300  
   \                     `?<Initializer for <Constant "float_sqrt">>`:
   \   00000135   6C66616F5F74       DC8 "float_sqrt"
   \              7173747200  
   \                     `?<Initializer for <Constant "int16_sqrt">>`:
   \   00000140   6E6931745F36       DC8 "int16_sqrt"
   \              7173747200  
   \                     `?<Initializer for <Constant "int16_sqrt_asm">>`:
   \   0000014B   6E6931745F36       DC8 "int16_sqrt_asm"
   \              71737472615F
   \              6D7300      
   \                     `?<Initializer for <Constant "int32_sqrt">>`:
   \   0000015A   6E6933745F32       DC8 "int32_sqrt"
   \              7173747200  
   \                     `?<Initializer for <Constant "int32_sqrt_asm">>`:
   \   00000165   6E6933745F32       DC8 "int32_sqrt_asm"
   \              71737472615F
   \              6D7300      
   \                     `?<Initializer for <Constant "float_sin">>`:
   \   00000174   6C66616F5F74       DC8 "float_sin"
   \              6973006E    
   \                     `?<Initializer for <Constant "int16_sin">>`:
   \   0000017E   6E6931745F36       DC8 "int16_sin"
   \              6973006E    
   \                     `?<Initializer for <Constant "test_loop1">>`:
   \   00000188   657474736C5F       DC8 "test_loop1"
   \              6F6F317000  
   \                     `?<Initializer for <Constant "test_loop2">>`:
   \   00000193   657474736C5F       DC8 "test_loop2"
   \              6F6F327000  
   \                     `?<Initializer for <Constant "test_loop3">>`:
   \   0000019E   657474736C5F       DC8 "test_loop3"
   \              6F6F337000  
   \                     `?<Initializer for <Constant "test_loop4">>`:
   \   000001A9   657474736C5F       DC8 "test_loop4"
   \              6F6F347000  
   \                     `?<Initializer for <Constant "print_int16">>`:
   \   000001B4   72706E695F74       DC8 "print_int16"
   \              6E6931740036
   \                     `?<Initializer for <Constant "print_int16_itoa"`:
   \   000001C0   72706E695F74       DC8 "print_int16_itoa"
   \              6E6931745F36
   \              7469616F00  

   \                                 In  segment NEAR_ID, align 1, keep-with-next
   \                     `?<Initializer for a>`:
   \   00000000   E5864557           DD 4557E586H
   \                     `?<Initializer for b>`:
   \   00000004   21D0463F           DD 463F21D0H
   \                     `?<Initializer for c>`:
   \   00000008   00000000           DD 0H
   \                     `?<Initializer for d>`:
   \   0000000C   5B92               DC16 23442

   \                                 In  segment NEAR_ID, align 1, keep-with-next
   \                     `?<Initializer for i_a>`:
   \   00000000   0928               DC16 2344
   \                     `?<Initializer for i_b>`:
   \   00000002   0017               DC16 23
   \                     `?<Initializer for i_c>`:
   \   00000004   0000               DC8 0, 0

   \                                 In  segment NEAR_ID, align 1, keep-with-next
   \                     `?<Initializer for l_a>`:
   \   00000000   5B940000           DD 23444
   \                     `?<Initializer for l_b>`:
   \   00000004   00170000           DD 23
   \                     `?<Initializer for l_c>`:
   \   00000008   00000000           DC8 0, 0, 0, 0

   \                                 In  segment NEAR_I, align 1, keep-with-next
   \   00000000                      REQUIRE `?<Segment init: NEAR_I>`
   \                     `?<Constant " : ">`:
   \   00000000                      DS8 4
   \   00000004                      REQUIRE `?<Initializer for <Constant " : ">>`
   \   00000004                      DS8 18
   \   00000016                      REQUIRE `?<Initializer for <Constant " (Timeroverflow!)`
   \   00000016                      DS8 2
   \   00000018                      REQUIRE `?<Initializer for <Constant "\\n">>`

   \                                 In  segment NEAR_I, align 1, keep-with-next
   \   00000000                      REQUIRE `?<Segment init: NEAR_I>`
   \                     `?<Constant "\\nZeitmessung Rechenop...">`:
   \   00000000                      DS8 32
   \   00000020                      REQUIRE `?<Initializer for <Constant "\\nZeitmessung Rec`
   \   00000020                      DS8 25
   \   00000039                      REQUIRE `?<Initializer for <Constant "\\n Takte   Funkti`
   \   00000039                      DS8 23
   \   00000050                      REQUIRE `?<Initializer for <Constant "float_convert_to_`
   \   00000050                      DS8 21
   \   00000065                      REQUIRE `?<Initializer for <Constant "float_convert_to__1`
   \   00000065                      DS8 16
   \   00000075                      REQUIRE `?<Initializer for <Constant "float_add_const">`
   \   00000075                      DS8 10
   \   0000007F                      REQUIRE `?<Initializer for <Constant "float_add">>`
   \   0000007F                      DS8 16
   \   0000008F                      REQUIRE `?<Initializer for <Constant "float_mul_const">`
   \   0000008F                      DS8 10
   \   00000099                      REQUIRE `?<Initializer for <Constant "float_mul">>`
   \   00000099                      DS8 16
   \   000000A9                      REQUIRE `?<Initializer for <Constant "float_div_const">`
   \   000000A9                      DS8 10
   \   000000B3                      REQUIRE `?<Initializer for <Constant "float_div">>`
   \   000000B3                      DS8 12
   \   000000BF                      REQUIRE `?<Initializer for <Constant "int16_div10">>`
   \   000000BF                      DS8 17
   \   000000D0                      REQUIRE `?<Initializer for <Constant "int16_div10_fast"`
   \   000000D0                      DS8 12
   \   000000DC                      REQUIRE `?<Initializer for <Constant "int16_div16">>`
   \   000000DC                      DS8 10
   \   000000E6                      REQUIRE `?<Initializer for <Constant "int16_div">>`
   \   000000E6                      DS8 17
   \   000000F7                      REQUIRE `?<Initializer for <Constant "int16_mult_const"`
   \   000000F7                      DS8 11
   \   00000102                      REQUIRE `?<Initializer for <Constant "int16_mult">>`
   \   00000102                      DS8 12
   \   0000010E                      REQUIRE `?<Initializer for <Constant "int32_div10">>`
   \   0000010E                      DS8 12
   \   0000011A                      REQUIRE `?<Initializer for <Constant "int32_div16">>`
   \   0000011A                      DS8 10
   \   00000124                      REQUIRE `?<Initializer for <Constant "int32_div">>`
   \   00000124                      DS8 17
   \   00000135                      REQUIRE `?<Initializer for <Constant "int32_mult_const"`
   \   00000135                      DS8 11
   \   00000140                      REQUIRE `?<Initializer for <Constant "float_sqrt">>`
   \   00000140                      DS8 11
   \   0000014B                      REQUIRE `?<Initializer for <Constant "int16_sqrt">>`
   \   0000014B                      DS8 15
   \   0000015A                      REQUIRE `?<Initializer for <Constant "int16_sqrt_asm">>`
   \   0000015A                      DS8 11
   \   00000165                      REQUIRE `?<Initializer for <Constant "int32_sqrt">>`
   \   00000165                      DS8 15
   \   00000174                      REQUIRE `?<Initializer for <Constant "int32_sqrt_asm">>`
   \   00000174                      DS8 10
   \   0000017E                      REQUIRE `?<Initializer for <Constant "float_sin">>`
   \   0000017E                      DS8 10
   \   00000188                      REQUIRE `?<Initializer for <Constant "int16_sin">>`
   \   00000188                      DS8 11
   \   00000193                      REQUIRE `?<Initializer for <Constant "test_loop1">>`
   \   00000193                      DS8 11
   \   0000019E                      REQUIRE `?<Initializer for <Constant "test_loop2">>`
   \   0000019E                      DS8 11
   \   000001A9                      REQUIRE `?<Initializer for <Constant "test_loop3">>`
   \   000001A9                      DS8 11
   \   000001B4                      REQUIRE `?<Initializer for <Constant "test_loop4">>`
   \   000001B4                      DS8 12
   \   000001C0                      REQUIRE `?<Initializer for <Constant "print_int16">>`
   \   000001C0                      DS8 17
   \   000001D1                      REQUIRE `?<Initializer for <Constant "print_int16_itoa"`

   Maximum stack usage in bytes:

     Function                      CSTACK RSTACK
     --------                      ------ ------
     PrintSignedShortFormated         10      2
       -> PrintString                 10      2
     PrintString                       0      2
     Sine                              6      2
     float_add                         2      4
     float_add_const                   2      4
     float_convert_to_float            0      4
     float_convert_to_int              0      4
     float_div                         2      4
     float_div_const                   2      4
     float_mul                         2      4
     float_mul_const                   2      4
     float_sin                         2      2
       -> sin                          2      2
     float_sqrt                        2      2
       -> sqrt                         2      2
     int16_div                         2      4
     int16_div10                       2      4
     int16_div10_fast                  0      2
     int16_div16                       0      2
     int16_mult                        0      2
     int16_mult_const                  0      2
     int16_sin                         0      2
       -> Sine                         0      2
     int16_sqrt                        0      2
       -> isqrt_c16                    0      2
     int16_sqrt_asm                    0      2
     int32_div                         2      4
     int32_div10                       2      4
     int32_div16                       0      4
     int32_mult                        0      2
     int32_mult_const                  0      2
     int32_sqrt                        0      2
       -> isqrt                        0      2
     int32_sqrt_asm                    0      2
     isqrt                            10      4
     isqrt_c16                         0      4
     main                              0      2
       -> PrintString                  0      2
       -> PrintString                  0      2
       -> print_execute_time           0      2
       -> print_execute_time           0      2
       -> print_execute_time           0      2
       -> print_execute_time           0      2
       -> print_execute_time           0      2
       -> print_execute_time           0      2
       -> print_execute_time           0      2
       -> print_execute_time           0      2
       -> print_execute_time           0      2
       -> print_execute_time           0      2
       -> print_execute_time           0      2
       -> print_execute_time           0      2
       -> print_execute_time           0      2
       -> print_execute_time           0      2
       -> print_execute_time           0      2
       -> print_execute_time           0      2
       -> print_execute_time           0      2
       -> print_execute_time           0      2
       -> print_execute_time           0      2
       -> print_execute_time           0      2
       -> print_execute_time           0      2
       -> print_execute_time           0      2
       -> print_execute_time           0      2
       -> print_execute_time           0      2
       -> print_execute_time           0      2
       -> testData                     0      2
       -> print_execute_time           0      2
       -> testData                     0      2
       -> print_execute_time           0      2
       -> testData                     0      2
       -> print_execute_time           0      2
       -> testData                     0      2
       -> print_execute_time           0      2
       -> print_execute_time           0      2
       -> print_execute_time           0      2
     print_execute_time                2      2
       ->   Indirect call              2      2
       -> PrintSignedShortFormated     2      2
       -> PrintString                  2      2
       -> PrintString                  2      2
       -> PrintString                  2      2
       -> PrintString                  2      2
     print_int16                       0      2
       -> PrintSignedShortFormated     0      2
     print_int16_itoa                  7      2
       -> PrintString                  7      2
     testData                          0      2
     test_loop1                        0      2
     test_loop2                        0      2
     test_loop3                        0      2
     test_loop4                        0      2


   Segment part sizes:

     Function/Label                                 Bytes
     --------------                                 -----
     _A_TCNT1                                          2
     _A_TCCR1B                                         1
     _A_TCCR1A                                         1
     _A_TIFR                                           1
     sin_table                                       132
     Sine                                            110
     isqrt                                           128
     isqrt_c16                                        62
     a                                                14
     b
     c
     d
     float_convert_to_float                           36
     float_convert_to_int                             30
     float_add_const                                  32
     ??Subroutine6_0                                  14
     float_add                                        34
     float_mul_const                                  32
     float_mul                                        34
     ?Subroutine0                                     14
     float_div_const                                  18
     float_div                                        20
     float_sqrt                                       24
     float_sin                                        24
     i_a                                               6
     i_b
     i_c
     int16_div10                                      10
     ?Subroutine4                                     18
     int16_div10_fast                                 44
     ?Subroutine2                                     18
     int16_div16                                      14
     int16_div                                        14
     int16_mult_const                                 24
     int16_mult                                       30
     l_a                                              12
     l_b
     l_c
     int32_div10                                      16
     ?Subroutine1                                     28
     int32_div16                                      18
     ?Subroutine5                                      2
     ??Subroutine7_0                                   8
     int32_div                                        20
     int32_mult_const                                 46
     int32_mult                                       90
     int32_sqrt                                       16
     int32_sqrt_asm                                    2
     int16_sqrt_asm                                    2
     int16_sqrt                                       16
     int16_sin                                        30
     PrintString                                      18
     PrintSignedShortFormated                        148
     print_int16                                       6
     print_int16_itoa                                 10
     buffer                                          200
     testData                                         42
     test_loop1                                       36
     test_loop2                                        0
     ?Subroutine3                                     18
     test_loop3                                        2
     test_loop4                                        2
     print_execute_time                               74
     main                                            336
     ?<Initializer for <Constant " : ">>              24
     ?<Initializer for <Constant "\nZeitmessung Rec  465
     ?<Initializer for a>                             14
     ?<Initializer for i_a>                            6
     ?<Initializer for l_a>                           12
     ?<Constant " : ">                                24
     ?<Constant "\nZeitmessung Rechenop...">         465
      Others                                          14

 
     5 bytes in segment ABSOLUTE
 1 770 bytes in segment CODE
    14 bytes in segment INITTAB
   132 bytes in segment NEAR_F
   521 bytes in segment NEAR_I
   521 bytes in segment NEAR_ID
   200 bytes in segment NEAR_Z
 
 2 423 bytes of CODE memory (+ 14 bytes shared)
   721 bytes of DATA memory (+  5 bytes shared)

Errors: none
Warnings: 9
