###############################################################################
#                                                                             #
# IAR C/C++ Compiler V5.51.0.50312/W32 for Atmel AVR    14/Oct/2011  15:17:39 #
# Copyright (C) 1996-2010 IAR Systems AB.                                     #
#                                                                             #
#    Source file  =  D:\Devel\git\optimize-with-int-calculations-for-microcon #
#                    troller\test.c                                           #
#    Command line =  D:\Devel\git\optimize-with-int-calculations-for-microcon #
#                    troller\test.c --cpu=m128 -ms -o                         #
#                    D:\Devel\git\optimize-with-int-calculations-for-microcon #
#                    troller\iar\Debug\Obj\ -D SIM_WIO=0x30 -D SIM_RIO -lC    #
#                    D:\Devel\git\optimize-with-int-calculations-for-microcon #
#                    troller\iar\Debug\List\ -y --initializers_in_flash -s9   #
#                    --debug -e -I "C:\Programme\IAR Systems\Embedded         #
#                    Workbench 5.51\avr\INC\" -I "C:\Programme\IAR            #
#                    Systems\Embedded Workbench 5.51\avr\INC\CLIB\"           #
#                    --eeprom_size 4096                                       #
#    List file    =  D:\Devel\git\optimize-with-int-calculations-for-microcon #
#                    troller\iar\Debug\List\test.lst                          #
#    Object file  =  D:\Devel\git\optimize-with-int-calculations-for-microcon #
#                    troller\iar\Debug\Obj\test.r90                           #
#                                                                             #
#                                                                             #
###############################################################################

D:\Devel\git\optimize-with-int-calculations-for-microcontroller\test.c
      1          #ifdef  __IAR_SYSTEMS_ICC__
      2          #include <ioavr.h>

   \                                 In  segment ABSOLUTE, at 0x4c
   \   <__C122> volatile __io _A_TCNT1
   \                     _A_TCNT1:
   \   00000000                      DS8 2

   \                                 In  segment ABSOLUTE, at 0x4e
   \   <__C125> volatile __io _A_TCCR1B
   \                     _A_TCCR1B:
   \   00000000                      DS8 1

   \                                 In  segment ABSOLUTE, at 0x4f
   \   <__C128> volatile __io _A_TCCR1A
   \                     _A_TCCR1A:
   \   00000000                      DS8 1

   \                                 In  segment ABSOLUTE, at 0x56
   \   <__C147> volatile __io _A_TIFR
   \                     _A_TIFR:
   \   00000000                      DS8 1
      3          #else
      4          #include <avr/io.h>
      5          #endif
      6          
      7          typedef void (*test_func_t)(void);
      8          

   \                                 In  segment NEAR_I, align 1, keep-with-next
   \   00000000                      REQUIRE `?<Segment init: NEAR_I>`
      9          float a = 3454.345334, b = 12232.45345, c = 0.0;
   \                     a:
   \   00000000                      DS8 4
   \   00000004                      REQUIRE `?<Initializer for a>`
   \                     b:
   \   00000004                      DS8 4
   \   00000008                      REQUIRE `?<Initializer for b>`
   \                     c:
   \   00000008                      DS8 4
   \   0000000C                      REQUIRE `?<Initializer for c>`
     10          short d = 23442;
   \                     d:
   \   0000000C                      DS8 2
   \   0000000E                      REQUIRE `?<Initializer for d>`
     11          

   \                                 In  segment CODE, align 2, keep-with-next
     12          void float_convert_to_float() {
   \                     float_convert_to_float:
   \   00000000   01AD               MOVW    R21:R20, R27:R26
     13          	c = d;
   \   00000002   ....               LDI     R26, LOW((a + 12))
   \   00000004   ....               LDI     R27, HIGH((a + 12))
   \   00000006   910D               LD      R16, X+
   \   00000008   911C               LD      R17, X
   \   0000000A   9715               SBIW    R27:R26, 5
   \   0000000C   2F21               MOV     R18, R17
   \   0000000E   0F22               LSL     R18
   \   00000010   0B22               SBC     R18, R18
   \   00000012   2F32               MOV     R19, R18
   \   00000014   ........           CALL    ?SL2F_L04
   \   00000018   930D               ST      X+, R16
   \   0000001A   931D               ST      X+, R17
   \   0000001C   932D               ST      X+, R18
   \   0000001E   933C               ST      X, R19
     14          }
   \   00000020   01DA               MOVW    R27:R26, R21:R20
   \   00000022   9508               RET
     15          

   \                                 In  segment CODE, align 2, keep-with-next
     16          void float_convert_to_int() {
   \                     float_convert_to_int:
   \   00000000   2F5B               MOV     R21, R27
   \   00000002   2F6A               MOV     R22, R26
     17          	d = c;
                 	  ^
Warning[Pa093]: implicit conversion from floating point to integer
   \   00000004   ....               LDI     R26, LOW((a + 8))
   \   00000006   ....               LDI     R27, HIGH((a + 8))
   \   00000008   910D               LD      R16, X+
   \   0000000A   911D               LD      R17, X+
   \   0000000C   912D               LD      R18, X+
   \   0000000E   913D               LD      R19, X+
   \   00000010   ........           CALL    ?F2SL_L04
   \   00000014   930D               ST      X+, R16
   \   00000016   931C               ST      X, R17
     18          }
   \   00000018   2FA6               MOV     R26, R22
   \   0000001A   2FB5               MOV     R27, R21
   \   0000001C   9508               RET
     19          

   \                                 In  segment CODE, align 2, keep-with-next
     20          void float_add_const(void) {
   \                     float_add_const:
   \   00000000   93BA               ST      -Y, R27
   \   00000002   93AA               ST      -Y, R26
     21          	c = a + 4.0;
   \   00000004   ....               LDI     R26, LOW(a)
   \   00000006   ....               LDI     R27, (a) >> 8
   \   00000008   E040               LDI     R20, 0
   \   0000000A   E050               LDI     R21, 0
   \   0000000C   E860               LDI     R22, 128
   \   0000000E   E470               LDI     R23, 64
   \   00000010   910D               LD      R16, X+
   \   00000012   911D               LD      R17, X+
   \   00000014   912D               LD      R18, X+
   \   00000016   913C               LD      R19, X
   \   00000018   9615               ADIW    R27:R26, 5
   \   0000001A   ........           CALL    ?F_ADD_L04
   \   0000001E   ....               RJMP    ??Subroutine4_0
     22          }

   \                                 In  segment CODE, align 2, keep-with-next
   \                     ??Subroutine4_0:
   \   00000000   930D               ST      X+, R16
   \   00000002   931D               ST      X+, R17
   \   00000004   932D               ST      X+, R18
   \   00000006   933C               ST      X, R19
   \   00000008   91A9               LD      R26, Y+
   \   0000000A   91B9               LD      R27, Y+
   \   0000000C   9508               RET
     23          

   \                                 In  segment CODE, align 2, keep-with-next
     24          void float_add(void) {
   \                     float_add:
   \   00000000   93BA               ST      -Y, R27
   \   00000002   93AA               ST      -Y, R26
     25          	c = a + b;
   \   00000004   ....               LDI     R26, LOW((a + 4))
   \   00000006   ....               LDI     R27, HIGH((a + 4))
   \   00000008   910D               LD      R16, X+
   \   0000000A   911D               LD      R17, X+
   \   0000000C   912D               LD      R18, X+
   \   0000000E   913C               LD      R19, X
   \   00000010   9717               SBIW    R27:R26, 7
   \   00000012   914D               LD      R20, X+
   \   00000014   915D               LD      R21, X+
   \   00000016   916D               LD      R22, X+
   \   00000018   917C               LD      R23, X
   \   0000001A   9615               ADIW    R27:R26, 5
   \   0000001C   ........           CALL    ?F_ADD_L04
   \   00000020   ....               RJMP    ??Subroutine4_0
     26          }  
     27          

   \                                 In  segment CODE, align 2, keep-with-next
     28          void float_mul_const(void) {
   \                     float_mul_const:
   \   00000000   93BA               ST      -Y, R27
   \   00000002   93AA               ST      -Y, R26
     29          	c = a * 4.0;
   \   00000004   ....               LDI     R26, LOW(a)
   \   00000006   ....               LDI     R27, (a) >> 8
   \   00000008   E040               LDI     R20, 0
   \   0000000A   E050               LDI     R21, 0
   \   0000000C   E860               LDI     R22, 128
   \   0000000E   E470               LDI     R23, 64
   \   00000010   910D               LD      R16, X+
   \   00000012   911D               LD      R17, X+
   \   00000014   912D               LD      R18, X+
   \   00000016   913C               LD      R19, X
   \   00000018   9615               ADIW    R27:R26, 5
   \   0000001A   ........           CALL    ?F_MUL_L04
   \   0000001E   ....               RJMP    ??Subroutine4_0
     30          } 
     31          

   \                                 In  segment CODE, align 2, keep-with-next
     32          void float_mul(void) {
   \                     float_mul:
   \   00000000   93BA               ST      -Y, R27
   \   00000002   93AA               ST      -Y, R26
     33          	c = a * b;
   \   00000004   ....               LDI     R26, LOW((a + 4))
   \   00000006   ....               LDI     R27, HIGH((a + 4))
   \   00000008   910D               LD      R16, X+
   \   0000000A   911D               LD      R17, X+
   \   0000000C   912D               LD      R18, X+
   \   0000000E   913C               LD      R19, X
   \   00000010   9717               SBIW    R27:R26, 7
   \   00000012   914D               LD      R20, X+
   \   00000014   915D               LD      R21, X+
   \   00000016   916D               LD      R22, X+
   \   00000018   917C               LD      R23, X
   \   0000001A   9615               ADIW    R27:R26, 5
   \   0000001C   ........           CALL    ?F_MUL_L04
   \   00000020   ....               RJMP    ??Subroutine4_0
     34          } 
     35          

   \                                 In  segment CODE, align 2, keep-with-next
   \                     ?Subroutine0:
   \   00000000   910D               LD      R16, X+
   \   00000002   911D               LD      R17, X+
   \   00000004   912D               LD      R18, X+
   \   00000006   913C               LD      R19, X
   \   00000008   9615               ADIW    R27:R26, 5
   \   0000000A   ........           CALL    ?F_DIV_L04
   \   0000000E                      REQUIRE ??Subroutine4_0
   \   0000000E                      ;               // Fall through to label ??Subroutine4_0

   \                                 In  segment CODE, align 2, keep-with-next
     36          void float_div_const(void) {
   \                     float_div_const:
   \   00000000   93BA               ST      -Y, R27
   \   00000002   93AA               ST      -Y, R26
     37          	c = a / 2.4;
   \   00000004   ....               LDI     R26, LOW(a)
   \   00000006   ....               LDI     R27, (a) >> 8
   \   00000008   E94A               LDI     R20, 154
   \   0000000A   E959               LDI     R21, 153
   \   0000000C   E169               LDI     R22, 25
   \   0000000E   E470               LDI     R23, 64
   \   00000010   ....               RJMP    ?Subroutine0
     38          } 
     39          

   \                                 In  segment CODE, align 2, keep-with-next
     40          void float_div(void) {
   \                     float_div:
   \   00000000   93BA               ST      -Y, R27
   \   00000002   93AA               ST      -Y, R26
     41          	c = a / b;
   \   00000004   ....               LDI     R26, LOW((a + 4))
   \   00000006   ....               LDI     R27, HIGH((a + 4))
   \   00000008   914D               LD      R20, X+
   \   0000000A   915D               LD      R21, X+
   \   0000000C   916D               LD      R22, X+
   \   0000000E   917C               LD      R23, X
   \   00000010   9717               SBIW    R27:R26, 7
   \   00000012   ....               RJMP    ?Subroutine0
     42          }
     43          

   \                                 In  segment NEAR_I, align 1, keep-with-next
   \   00000000                      REQUIRE `?<Segment init: NEAR_I>`
     44          unsigned short i_a = 23444, i_b = 23, i_c;
   \                     i_a:
   \   00000000                      DS8 2
   \   00000002                      REQUIRE `?<Initializer for i_a>`
   \                     i_b:
   \   00000002                      DS8 2
   \   00000004                      REQUIRE `?<Initializer for i_b>`
   \                     i_c:
   \   00000004                      DS8 2
   \   00000006                      REQUIRE `?<Initializer for i_c>`
     45          
     46          static inline unsigned short div10(unsigned short in) { 
     47              return (((unsigned long) in * 52429L)) >> 19;
     48          }
     49          

   \                                 In  segment CODE, align 2, keep-with-next
     50          void int16_div10() {
   \                     int16_div10:
   \   00000000   019D               MOVW    R19:R18, R27:R26
     51          	i_c = i_a / 10;
   \   00000002   ....               LDI     R26, LOW(i_a)
   \   00000004   ....               LDI     R27, (i_a) >> 8
   \   00000006   E04A               LDI     R20, 10
   \   00000008   E050               LDI     R21, 0
   \   0000000A                      REQUIRE ?Subroutine3
   \   0000000A                      ;               // Fall through to label ?Subroutine3
     52          }

   \                                 In  segment CODE, align 2, keep-with-next
   \                     ?Subroutine3:
   \   00000000   910D               LD      R16, X+
   \   00000002   911C               LD      R17, X
   \   00000004   9613               ADIW    R27:R26, 3
   \   00000006   ........           CALL    ?US_DIVMOD_L02
   \   0000000A   930D               ST      X+, R16
   \   0000000C   931C               ST      X, R17
   \   0000000E   01D9               MOVW    R27:R26, R19:R18
   \   00000010   9508               RET
     53          

   \                                 In  segment CODE, align 2, keep-with-next
     54          void int16_div10_fast() {
   \                     int16_div10_fast:
     55          	i_c = div10(i_a);
   \   00000000   ....               LDI     R30, LOW(i_a)
   \   00000002   ....               LDI     R31, (i_a) >> 8
   \   00000004   8140               LD      R20, Z
   \   00000006   8151               LDD     R21, Z+1
   \   00000008   EC0D               LDI     R16, 205
   \   0000000A   EC1C               LDI     R17, 204
   \   0000000C   2422               CLR     R2
   \   0000000E   9F15               MUL     R17, R21
   \   00000010   0190               MOVW    R19:R18, R1:R0
   \   00000012   9F14               MUL     R17, R20
   \   00000014   2D10               MOV     R17, R0
   \   00000016   0D21               ADD     R18, R1
   \   00000018   1D32               ADC     R19, R2
   \   0000001A   9F05               MUL     R16, R21
   \   0000001C   0D10               ADD     R17, R0
   \   0000001E   1D21               ADC     R18, R1
   \   00000020   1D32               ADC     R19, R2
   \   00000022   9F04               MUL     R16, R20
   \   00000024   0D11               ADD     R17, R1
   \   00000026   1D22               ADC     R18, R2
   \   00000028   1D32               ADC     R19, R2
   \   0000002A   0189               MOVW    R17:R16, R19:R18
   \   0000002C                      REQUIRE ?Subroutine2
   \   0000002C                      ;               // Fall through to label ?Subroutine2
     56          }

   \                                 In  segment CODE, align 2, keep-with-next
   \                     ?Subroutine2:
   \   00000000   9516               LSR     R17
   \   00000002   9507               ROR     R16
   \   00000004   9516               LSR     R17
   \   00000006   9507               ROR     R16
   \   00000008   9516               LSR     R17
   \   0000000A   9507               ROR     R16
   \   0000000C   8304               STD     Z+4, R16
   \   0000000E   8315               STD     Z+5, R17
   \   00000010   9508               RET
     57          

   \                                 In  segment CODE, align 2, keep-with-next
     58          void int16_div16() {
   \                     int16_div16:
     59          	i_c = i_a / 16;
   \   00000000   ....               LDI     R30, LOW(i_a)
   \   00000002   ....               LDI     R31, (i_a) >> 8
   \   00000004   8100               LD      R16, Z
   \   00000006   8111               LDD     R17, Z+1
   \   00000008   9516               LSR     R17
   \   0000000A   9507               ROR     R16
   \   0000000C   ....               RJMP    ?Subroutine2
     60          }
     61          

   \                                 In  segment CODE, align 2, keep-with-next
     62          void int16_div() {
   \                     int16_div:
   \   00000000   019D               MOVW    R19:R18, R27:R26
     63              i_c = i_a / i_b;
   \   00000002   ....               LDI     R26, LOW((i_a + 2))
   \   00000004   ....               LDI     R27, HIGH((i_a + 2))
   \   00000006   914D               LD      R20, X+
   \   00000008   915C               LD      R21, X
   \   0000000A   9713               SBIW    R27:R26, 3
   \   0000000C   ....               RJMP    ?Subroutine3
     64          } 
     65          

   \                                 In  segment CODE, align 2, keep-with-next
     66          void int16_mult_const() {
   \                     int16_mult_const:
     67              i_c = i_a * 234;
   \   00000000   ....               LDI     R30, LOW(i_a)
   \   00000002   ....               LDI     R31, (i_a) >> 8
   \   00000004   8120               LD      R18, Z
   \   00000006   8131               LDD     R19, Z+1
   \   00000008   EE0A               LDI     R16, 234
   \   0000000A   9F03               MUL     R16, R19
   \   0000000C   2D10               MOV     R17, R0
   \   0000000E   9F02               MUL     R16, R18
   \   00000010   0D11               ADD     R17, R1
   \   00000012   8204               STD     Z+4, R0
   \   00000014   8315               STD     Z+5, R17
     68          } 
   \   00000016   9508               RET
     69          

   \                                 In  segment CODE, align 2, keep-with-next
     70          void int16_mult() {
   \                     int16_mult:
     71              i_c = i_a * i_b;
   \   00000000   ....               LDI     R30, LOW(i_a)
   \   00000002   ....               LDI     R31, (i_a) >> 8
   \   00000004   8100               LD      R16, Z
   \   00000006   8111               LDD     R17, Z+1
   \   00000008   8122               LDD     R18, Z+2
   \   0000000A   8133               LDD     R19, Z+3
   \   0000000C   9F30               MUL     R19, R16
   \   0000000E   2D30               MOV     R19, R0
   \   00000010   9F21               MUL     R18, R17
   \   00000012   0D30               ADD     R19, R0
   \   00000014   9F20               MUL     R18, R16
   \   00000016   0D31               ADD     R19, R1
   \   00000018   8204               STD     Z+4, R0
   \   0000001A   8335               STD     Z+5, R19
     72          } 
   \   0000001C   9508               RET
     73          

   \                                 In  segment NEAR_I, align 1, keep-with-next
   \   00000000                      REQUIRE `?<Segment init: NEAR_I>`
     74          unsigned long l_a = 23444, l_b = 23, l_c;
   \                     l_a:
   \   00000000                      DS8 4
   \   00000004                      REQUIRE `?<Initializer for l_a>`
   \                     l_b:
   \   00000004                      DS8 4
   \   00000008                      REQUIRE `?<Initializer for l_b>`
   \                     l_c:
   \   00000008                      DS8 4
   \   0000000C                      REQUIRE `?<Initializer for l_c>`
     75          

   \                                 In  segment CODE, align 2, keep-with-next
     76          void int32_div10() {
   \                     int32_div10:
   \   00000000   93BA               ST      -Y, R27
   \   00000002   2FFA               MOV     R31, R26
     77          	l_c = l_a / 10;
   \   00000004   ....               LDI     R26, LOW(l_a)
   \   00000006   ....               LDI     R27, (l_a) >> 8
   \   00000008   E04A               LDI     R20, 10
   \   0000000A   E050               LDI     R21, 0
   \   0000000C   E060               LDI     R22, 0
   \   0000000E   E070               LDI     R23, 0
   \   00000010                      REQUIRE ?Subroutine1
   \   00000010                      ;               // Fall through to label ?Subroutine1
     78          }

   \                                 In  segment CODE, align 2, keep-with-next
   \                     ?Subroutine1:
   \   00000000   910D               LD      R16, X+
   \   00000002   911D               LD      R17, X+
   \   00000004   912D               LD      R18, X+
   \   00000006   913C               LD      R19, X
   \   00000008   9615               ADIW    R27:R26, 5
   \   0000000A   ........           CALL    ?UL_DIVMOD_L03
   \   0000000E   930D               ST      X+, R16
   \   00000010   931D               ST      X+, R17
   \   00000012   932D               ST      X+, R18
   \   00000014   933C               ST      X, R19
   \   00000016   2FAF               MOV     R26, R31
   \   00000018   91B9               LD      R27, Y+
   \   0000001A   9508               RET
     79          

   \                                 In  segment CODE, align 2, keep-with-next
     80          void int32_div16() {
   \                     int32_div16:
     81          	l_c = l_a / 16;
   \   00000000   ....               LDI     R30, LOW(l_a)
   \   00000002   ....               LDI     R31, (l_a) >> 8
   \   00000004   E044               LDI     R20, 4
   \   00000006   8100               LD      R16, Z
   \   00000008   8111               LDD     R17, Z+1
   \   0000000A   8122               LDD     R18, Z+2
   \   0000000C   8133               LDD     R19, Z+3
   \   0000000E   ........           CALL    ?UL_SHR_L03
   \   00000012   8700               STD     Z+8, R16
   \   00000014   8711               STD     Z+9, R17
   \   00000016   8722               STD     Z+10, R18
   \   00000018   8733               STD     Z+11, R19
     82          }
   \   0000001A   9508               RET
     83          

   \                                 In  segment CODE, align 2, keep-with-next
     84          void int32_div() {
   \                     int32_div:
   \   00000000   93BA               ST      -Y, R27
   \   00000002   2FFA               MOV     R31, R26
     85              l_c = l_a / l_b;
   \   00000004   ....               LDI     R26, LOW((l_a + 4))
   \   00000006   ....               LDI     R27, HIGH((l_a + 4))
   \   00000008   914D               LD      R20, X+
   \   0000000A   915D               LD      R21, X+
   \   0000000C   916D               LD      R22, X+
   \   0000000E   917C               LD      R23, X
   \   00000010   9717               SBIW    R27:R26, 7
   \   00000012   ....               RJMP    ?Subroutine1
     86          } 
     87          

   \                                 In  segment CODE, align 2, keep-with-next
     88          void int32_mult_const() {
   \                     int32_mult_const:
     89              l_c = l_a * 234;
   \   00000000   ....               LDI     R30, LOW(l_a)
   \   00000002   ....               LDI     R31, (l_a) >> 8
   \   00000004   8140               LD      R20, Z
   \   00000006   8151               LDD     R21, Z+1
   \   00000008   8162               LDD     R22, Z+2
   \   0000000A   8173               LDD     R23, Z+3
   \   0000000C   EE0A               LDI     R16, 234
   \   0000000E   2422               CLR     R2
   \   00000010   9F07               MUL     R16, R23
   \   00000012   2D30               MOV     R19, R0
   \   00000014   9F06               MUL     R16, R22
   \   00000016   2D20               MOV     R18, R0
   \   00000018   0D31               ADD     R19, R1
   \   0000001A   9F05               MUL     R16, R21
   \   0000001C   2D10               MOV     R17, R0
   \   0000001E   0D21               ADD     R18, R1
   \   00000020   1D32               ADC     R19, R2
   \   00000022   9F04               MUL     R16, R20
   \   00000024   0D11               ADD     R17, R1
   \   00000026   1D22               ADC     R18, R2
   \   00000028   1D32               ADC     R19, R2
   \   0000002A   8600               STD     Z+8, R0
   \   0000002C   8711               STD     Z+9, R17
   \   0000002E   8722               STD     Z+10, R18
   \   00000030   8733               STD     Z+11, R19
     90          } 
   \   00000032   9508               RET
     91          

   \                                 In  segment CODE, align 2, keep-with-next
     92          void int32_mult() {
   \                     int32_mult:
     93              l_c = l_a * l_b;
   \   00000000   ....               LDI     R30, LOW(l_a)
   \   00000002   ....               LDI     R31, (l_a) >> 8
   \   00000004   8100               LD      R16, Z
   \   00000006   8111               LDD     R17, Z+1
   \   00000008   8122               LDD     R18, Z+2
   \   0000000A   8133               LDD     R19, Z+3
   \   0000000C   8144               LDD     R20, Z+4
   \   0000000E   8155               LDD     R21, Z+5
   \   00000010   8166               LDD     R22, Z+6
   \   00000012   8177               LDD     R23, Z+7
   \   00000014   2422               CLR     R2
   \   00000016   9F70               MUL     R23, R16
   \   00000018   2D70               MOV     R23, R0
   \   0000001A   9F61               MUL     R22, R17
   \   0000001C   0D70               ADD     R23, R0
   \   0000001E   9F52               MUL     R21, R18
   \   00000020   0D70               ADD     R23, R0
   \   00000022   9F43               MUL     R20, R19
   \   00000024   0D70               ADD     R23, R0
   \   00000026   9F60               MUL     R22, R16
   \   00000028   2D60               MOV     R22, R0
   \   0000002A   0D71               ADD     R23, R1
   \   0000002C   9F51               MUL     R21, R17
   \   0000002E   0D60               ADD     R22, R0
   \   00000030   1D71               ADC     R23, R1
   \   00000032   9F42               MUL     R20, R18
   \   00000034   0D60               ADD     R22, R0
   \   00000036   1D71               ADC     R23, R1
   \   00000038   9F50               MUL     R21, R16
   \   0000003A   2D50               MOV     R21, R0
   \   0000003C   0D61               ADD     R22, R1
   \   0000003E   1D72               ADC     R23, R2
   \   00000040   9F41               MUL     R20, R17
   \   00000042   0D50               ADD     R21, R0
   \   00000044   1D61               ADC     R22, R1
   \   00000046   1D72               ADC     R23, R2
   \   00000048   9F40               MUL     R20, R16
   \   0000004A   0D51               ADD     R21, R1
   \   0000004C   1D62               ADC     R22, R2
   \   0000004E   1D72               ADC     R23, R2
   \   00000050   8600               STD     Z+8, R0
   \   00000052   8751               STD     Z+9, R21
   \   00000054   8762               STD     Z+10, R22
   \   00000056   8773               STD     Z+11, R23
     94          }
   \   00000058   9508               RET
     95          
     96          
     97          #ifdef  __IAR_SYSTEMS_ICC__
     98          /* This port correponds to the "-W 0x20,-" command line option. */
     99          #define special_output_port (*((__io *) SIM_WIO))
    100          /* This port correponds to the "-R 0x22,-" command line option. */
    101          #define special_input_port  (*((__io *) SIM_RIO))
    102          #else
    103          /* This port correponds to the "-W 0x20,-" command line option. */
    104          #define special_output_port (*((volatile char *) SIM_WIO))
    105          /* This port correponds to the "-R 0x22,-" command line option. */
    106          #define special_input_port  (*((volatile char *) SIM_RIO))
    107          #endif
    108          
    109          static PrintString(const char* str) {
    110          	const char *c;
    111          	for(c = str; *c; c++)
    112          	  special_output_port = *c;
                 	  ^
Warning[Pe260]: explicit type is missing ("int" assumed)
    113          }
    114          

   \                                 In  segment CODE, align 2, keep-with-next
    115          static void PrintSignedShortFormated(signed short value) {
   \                     PrintSignedShortFormated:
   \   00000000   2F68               MOV     R22, R24
   \   00000002   9727               SBIW    R29:R28, 7
   \   00000004   0198               MOVW    R19:R18, R17:R16
    116              unsigned char sBuf0[7];
    117              unsigned char *sBuf = &sBuf0[6];
   \   00000006   01FE               MOVW    R31:R30, R29:R28
   \   00000008   9636               ADIW    R31:R30, 6
    118              unsigned char  minus;
    119              unsigned short valueAlt;   // Alte Wert für schneller % 10 Berechnung
    120              unsigned short valueCalc;  // muss unsigned weil signed short kann kein 32768
    121              
    122              *sBuf = 0;       // String Terminierung
   \   0000000A   E000               LDI     R16, 0
   \   0000000C   830E               STD     Y+6, R16
    123              if (value < 0) { // Vorzeichen behandeln
   \   0000000E   2311               TST     R17
   \   00000010   F432               BRPL    ??PrintSignedShortFormated_0
    124                minus = '-';
   \   00000012   E28D               LDI     R24, 45
    125                valueCalc = -value;
   \   00000014   9531               NEG     R19
   \   00000016   9521               NEG     R18
   \   00000018   4030               SBCI    R19, 0
   \   0000001A   0189               MOVW    R17:R16, R19:R18
   \   0000001C   C002               RJMP    ??PrintSignedShortFormated_1
    126              } else {
    127                minus = ' ';
   \                     ??PrintSignedShortFormated_0:
   \   0000001E   E280               LDI     R24, 32
    128                valueCalc = value;
   \   00000020   2F02               MOV     R16, R18
    129              }
    130              if (!valueCalc) 
   \                     ??PrintSignedShortFormated_1:
   \   00000022   2F20               MOV     R18, R16
   \   00000024   2B21               OR      R18, R17
   \   00000026   F429               BRNE    ??PrintSignedShortFormated_2
    131                *--sBuf = '0';
   \   00000028   01FE               MOVW    R31:R30, R29:R28
   \   0000002A   9635               ADIW    R31:R30, 5
   \   0000002C   E300               LDI     R16, 48
   \   0000002E   830D               STD     Y+5, R16
   \   00000030   C023               RJMP    ??PrintSignedShortFormated_3
    132              else while (valueCalc) {
    133                valueAlt = valueCalc;
    134                //  schneller als valueCalc /= 10;
    135                valueCalc = div10(valueCalc); 
   \                     ??PrintSignedShortFormated_2:
   \   00000032   01A8               MOVW    R21:R20, R17:R16
   \   00000034   EC0D               LDI     R16, 205
   \   00000036   EC1C               LDI     R17, 204
   \   00000038   2422               CLR     R2
   \   0000003A   9F15               MUL     R17, R21
   \   0000003C   0190               MOVW    R19:R18, R1:R0
   \   0000003E   9F14               MUL     R17, R20
   \   00000040   2D10               MOV     R17, R0
   \   00000042   0D21               ADD     R18, R1
   \   00000044   1D32               ADC     R19, R2
   \   00000046   9F05               MUL     R16, R21
   \   00000048   0D10               ADD     R17, R0
   \   0000004A   1D21               ADC     R18, R1
   \   0000004C   1D32               ADC     R19, R2
   \   0000004E   9F04               MUL     R16, R20
   \   00000050   0D11               ADD     R17, R1
   \   00000052   1D22               ADC     R18, R2
   \   00000054   1D32               ADC     R19, R2
   \   00000056   0189               MOVW    R17:R16, R19:R18
   \   00000058   9516               LSR     R17
   \   0000005A   9507               ROR     R16
   \   0000005C   9516               LSR     R17
   \   0000005E   9507               ROR     R16
   \   00000060   9516               LSR     R17
   \   00000062   9507               ROR     R16
    136                // schneller als  *--sBuf = '0' + (valueAlt % 10)
    137                *--sBuf = '0' + valueAlt - (valueCalc * 10); 
   \   00000064   2F24               MOV     R18, R20
   \   00000066   5D20               SUBI    R18, 208
   \   00000068   2F40               MOV     R20, R16
   \   0000006A   E03A               LDI     R19, 10
   \   0000006C   9F43               MUL     R20, R19
   \   0000006E   1920               SUB     R18, R0
   \   00000070   9322               ST      -Z, R18
    138              } 
   \   00000072   2F20               MOV     R18, R16
   \   00000074   2B21               OR      R18, R17
   \   00000076   F6E9               BRNE    ??PrintSignedShortFormated_2
    139              *--sBuf = minus;                  // Minuszeichen vor die höchstwertigste Stelle setzen
   \                     ??PrintSignedShortFormated_3:
   \   00000078   9382               ST      -Z, R24
   \   0000007A   018E               MOVW    R17:R16, R29:R28
    140              while (sBuf > sBuf0)              // mit Leerzeichen auffüllen (für Formatierung)  
   \   0000007C   170E               CP      R16, R30
   \   0000007E   071F               CPC     R17, R31
   \   00000080   F428               BRCC    ??PrintSignedShortFormated_4
    141                *--sBuf = ' ';
   \                     ??PrintSignedShortFormated_5:
   \   00000082   E220               LDI     R18, 32
   \   00000084   9322               ST      -Z, R18
   \   00000086   170E               CP      R16, R30
   \   00000088   071F               CPC     R17, R31
   \   0000008A   F3D8               BRCS    ??PrintSignedShortFormated_5
    142              PrintString((const char*) sBuf0); // String ausgeben
   \                     ??PrintSignedShortFormated_4:
   \   0000008C   01FE               MOVW    R31:R30, R29:R28
   \   0000008E   C003               RJMP    ??PrintSignedShortFormated_6
   \                     ??PrintSignedShortFormated_7:
   \   00000090   E010               LDI     R17, 0
   \   00000092   BF11               OUT     0x31, R17
   \   00000094   BF00               OUT     0x30, R16
   \                     ??PrintSignedShortFormated_6:
   \   00000096   9101               LD      R16, Z+
   \   00000098   2300               TST     R16
   \   0000009A   F7D1               BRNE    ??PrintSignedShortFormated_7
    143          }
   \   0000009C   9627               ADIW    R29:R28, 7
   \   0000009E   2F86               MOV     R24, R22
   \   000000A0   9508               RET
    144          
    145          /*
    146          static void PrintSignedShort(signed short value) {
    147              unsigned char sBuf0[7];
    148              unsigned char *sBuf = &sBuf0[6];
    149              unsigned char x = 6, minus;
    150              unsigned short valueAlt;   // Alte Wert für schneller % 10 Berechnung
    151              unsigned short valueCalc;  // muss unsigned weil signed short kann kein 32768
    152              
    153              *sBuf = 0;
    154              if (value < 0) { // Vorzeichen behandeln
    155                minus = 1;
    156                valueCalc = -value;
    157              } else {
    158                minus = 0;
    159                valueCalc = value;
    160              }
    161              do {
    162                valueAlt = valueCalc;
    163                valueCalc = div10(valueCalc); //  schneller als valueCalc /= 10;
    164                *--sBuf = '0' + valueAlt - (valueCalc * 10); // schneller als  *--sBuf = '0' + (valueAlt % 10)
    165              } while (valueCalc);
    166              if (minus)
    167          		*--sBuf = '-';                // Minuszeichen vor die höchstwertigste Stelle setzen
    168              PrintString((const char*) sBuf0); // String ausgeben
    169          }
    170          */
    171          
    172          #define TIME_FUNC(func) print_execute_time(func, "" # func) 
    173          

   \                                 In  segment CODE, align 2, keep-with-next
    174          unsigned short print_execute_time(test_func_t function, char name[]) {
   \                     print_execute_time:
   \   00000000   939A               ST      -Y, R25
   \   00000002   938A               ST      -Y, R24
   \   00000004   01C9               MOVW    R25:R24, R19:R18
    175          	// Timer anhalten und initialisieren
    176          	TCCR1A = 0;
   \   00000006   E020               LDI     R18, 0
   \   00000008   BD2F               OUT     0x2F, R18
    177          	TCCR1B = 0;
   \   0000000A   BD2E               OUT     0x2E, R18
    178          	TCNT1  = 0;
   \   0000000C   BD2D               OUT     0x2D, R18
   \   0000000E   BD2C               OUT     0x2C, R18
    179          	TIFR   = 0;
   \   00000010   BF26               OUT     0x36, R18
    180          	TCCR1B = 1; // prescaler 1 Timer starten
   \   00000012   E021               LDI     R18, 1
   \   00000014   BD2E               OUT     0x2E, R18
    181          	function();
   \   00000016   01F8               MOVW    R31:R30, R17:R16
   \   00000018   9509               ICALL
    182          	TCCR1B = 0; // Timer stoppen
   \   0000001A   E000               LDI     R16, 0
   \   0000001C   BD0E               OUT     0x2E, R16
    183          	// print
    184          	PrintSignedShortFormated(TCNT1);
   \   0000001E   B50C               IN      R16, 0x2C
   \   00000020   B51D               IN      R17, 0x2D
   \   00000022   ....               RCALL   PrintSignedShortFormated
    185          	PrintString(" = ");
   \   00000024   ....               LDI     R30, LOW(`?<Constant " = ">`)
   \   00000026   ....               LDI     R31, (`?<Constant " = ">`) >> 8
   \   00000028   C003               RJMP    ??print_execute_time_0
   \                     ??print_execute_time_1:
   \   0000002A   E010               LDI     R17, 0
   \   0000002C   BF11               OUT     0x31, R17
   \   0000002E   BF00               OUT     0x30, R16
   \                     ??print_execute_time_0:
   \   00000030   9101               LD      R16, Z+
   \   00000032   2300               TST     R16
   \   00000034   F7D1               BRNE    ??print_execute_time_1
    186          	PrintString(name);
   \   00000036   01FC               MOVW    R31:R30, R25:R24
   \   00000038   C003               RJMP    ??print_execute_time_2
   \                     ??print_execute_time_3:
   \   0000003A   E010               LDI     R17, 0
   \   0000003C   BF11               OUT     0x31, R17
   \   0000003E   BF00               OUT     0x30, R16
   \                     ??print_execute_time_2:
   \   00000040   9101               LD      R16, Z+
   \   00000042   2300               TST     R16
   \   00000044   F7D1               BRNE    ??print_execute_time_3
    187          	if (TIFR & (1 << 2))
   \   00000046   B706               IN      R16, 0x36
   \   00000048   FF02               SBRS    R16, 2
   \   0000004A   C009               RJMP    ??print_execute_time_4
    188          		PrintString(" (Timeroverflow!)");	
   \   0000004C   ....               LDI     R30, LOW((`?<Constant " = ">` + 4))
   \   0000004E   ....               LDI     R31, HIGH((`?<Constant " = ">` + 4))
   \   00000050   C003               RJMP    ??print_execute_time_5
   \                     ??print_execute_time_6:
   \   00000052   E010               LDI     R17, 0
   \   00000054   BF11               OUT     0x31, R17
   \   00000056   BF00               OUT     0x30, R16
   \                     ??print_execute_time_5:
   \   00000058   9101               LD      R16, Z+
   \   0000005A   2300               TST     R16
   \   0000005C   F7D1               BRNE    ??print_execute_time_6
    189          	PrintString("\n");
   \                     ??print_execute_time_4:
   \   0000005E   ....               LDI     R30, LOW((`?<Constant " = ">` + 22))
   \   00000060   ....               LDI     R31, HIGH((`?<Constant " = ">` + 22))
   \   00000062   C003               RJMP    ??print_execute_time_7
   \                     ??print_execute_time_8:
   \   00000064   E010               LDI     R17, 0
   \   00000066   BF11               OUT     0x31, R17
   \   00000068   BF00               OUT     0x30, R16
   \                     ??print_execute_time_7:
   \   0000006A   9101               LD      R16, Z+
   \   0000006C   2300               TST     R16
   \   0000006E   F7D1               BRNE    ??print_execute_time_8
    190          	return TCNT1;
   \   00000070   B50C               IN      R16, 0x2C
   \   00000072   B51D               IN      R17, 0x2D
   \   00000074   9189               LD      R24, Y+
   \   00000076   9199               LD      R25, Y+
   \   00000078   9508               RET
   \   0000007A                      REQUIRE _A_TCNT1
   \   0000007A                      REQUIRE _A_TCCR1B
   \   0000007A                      REQUIRE _A_TCCR1A
   \   0000007A                      REQUIRE _A_TIFR
    191          }
    192          

   \                                 In  segment CODE, align 2, keep-with-next
    193          int main() {
   \                     main:
    194          	PrintString("\nZeitmessung Rechenoperationen\n");
   \   00000000   ....               LDI     R30, LOW(`?<Constant "\\nZeitmessung Rechenop...">`)
   \   00000002   ....               LDI     R31, (`?<Constant "\\nZeitmessung Rechenop...">`) >> 8
   \   00000004   C003               RJMP    ??main_0
   \                     ??main_1:
   \   00000006   E010               LDI     R17, 0
   \   00000008   BF11               OUT     0x31, R17
   \   0000000A   BF00               OUT     0x30, R16
   \                     ??main_0:
   \   0000000C   9101               LD      R16, Z+
   \   0000000E   2300               TST     R16
   \   00000010   F7D1               BRNE    ??main_1
    195          	PrintString("\n Takte   Funktionsname\n");
   \   00000012   ....               LDI     R30, LOW((`?<Constant "\\nZeitmessung Rechenop...">` + 32))
   \   00000014   ....               LDI     R31, HIGH((`?<Constant "\\nZeitmessung Rechenop...">` + 32))
   \   00000016   C003               RJMP    ??main_2
   \                     ??main_3:
   \   00000018   E010               LDI     R17, 0
   \   0000001A   BF11               OUT     0x31, R17
   \   0000001C   BF00               OUT     0x30, R16
   \                     ??main_2:
   \   0000001E   9101               LD      R16, Z+
   \   00000020   2300               TST     R16
   \   00000022   F7D1               BRNE    ??main_3
    196          	TIME_FUNC(float_convert_to_float);
   \   00000024   ....               LDI     R18, LOW((`?<Constant "\\nZeitmessung Rechenop...">` + 57))
   \   00000026   ....               LDI     R19, HIGH((`?<Constant "\\nZeitmessung Rechenop...">` + 57))
   \   00000028   ....               LDI     R16, LOW(float_convert_to_float/2)
   \   0000002A   ....               LDI     R17, (float_convert_to_float/2) >> 8
   \   0000002C   ....               RCALL   print_execute_time
    197          	TIME_FUNC(float_convert_to_int);
   \   0000002E   ....               LDI     R18, LOW((`?<Constant "\\nZeitmessung Rechenop...">` + 80))
   \   00000030   ....               LDI     R19, HIGH((`?<Constant "\\nZeitmessung Rechenop...">` + 80))
   \   00000032   ....               LDI     R16, LOW(float_convert_to_int/2)
   \   00000034   ....               LDI     R17, (float_convert_to_int/2) >> 8
   \   00000036   ....               RCALL   print_execute_time
    198          	TIME_FUNC(float_add_const);
   \   00000038   ....               LDI     R18, LOW((`?<Constant "\\nZeitmessung Rechenop...">` + 101))
   \   0000003A   ....               LDI     R19, HIGH((`?<Constant "\\nZeitmessung Rechenop...">` + 101))
   \   0000003C   ....               LDI     R16, LOW(float_add_const/2)
   \   0000003E   ....               LDI     R17, (float_add_const/2) >> 8
   \   00000040   ....               RCALL   print_execute_time
    199          	TIME_FUNC(float_add);
   \   00000042   ....               LDI     R18, LOW((`?<Constant "\\nZeitmessung Rechenop...">` + 117))
   \   00000044   ....               LDI     R19, HIGH((`?<Constant "\\nZeitmessung Rechenop...">` + 117))
   \   00000046   ....               LDI     R16, LOW(float_add/2)
   \   00000048   ....               LDI     R17, (float_add/2) >> 8
   \   0000004A   ....               RCALL   print_execute_time
    200          	TIME_FUNC(float_mul_const);
   \   0000004C   ....               LDI     R18, LOW((`?<Constant "\\nZeitmessung Rechenop...">` + 127))
   \   0000004E   ....               LDI     R19, HIGH((`?<Constant "\\nZeitmessung Rechenop...">` + 127))
   \   00000050   ....               LDI     R16, LOW(float_mul_const/2)
   \   00000052   ....               LDI     R17, (float_mul_const/2) >> 8
   \   00000054   ....               RCALL   print_execute_time
    201          	TIME_FUNC(float_mul);
   \   00000056   ....               LDI     R18, LOW((`?<Constant "\\nZeitmessung Rechenop...">` + 143))
   \   00000058   ....               LDI     R19, HIGH((`?<Constant "\\nZeitmessung Rechenop...">` + 143))
   \   0000005A   ....               LDI     R16, LOW(float_mul/2)
   \   0000005C   ....               LDI     R17, (float_mul/2) >> 8
   \   0000005E   ....               RCALL   print_execute_time
    202          	TIME_FUNC(float_div_const);
   \   00000060   ....               LDI     R18, LOW((`?<Constant "\\nZeitmessung Rechenop...">` + 153))
   \   00000062   ....               LDI     R19, HIGH((`?<Constant "\\nZeitmessung Rechenop...">` + 153))
   \   00000064   ....               LDI     R16, LOW(float_div_const/2)
   \   00000066   ....               LDI     R17, (float_div_const/2) >> 8
   \   00000068   ....               RCALL   print_execute_time
    203          	TIME_FUNC(float_div);
   \   0000006A   ....               LDI     R18, LOW((`?<Constant "\\nZeitmessung Rechenop...">` + 169))
   \   0000006C   ....               LDI     R19, HIGH((`?<Constant "\\nZeitmessung Rechenop...">` + 169))
   \   0000006E   ....               LDI     R16, LOW(float_div/2)
   \   00000070   ....               LDI     R17, (float_div/2) >> 8
   \   00000072   ....               RCALL   print_execute_time
    204          	TIME_FUNC(int16_div10);
   \   00000074   ....               LDI     R18, LOW((`?<Constant "\\nZeitmessung Rechenop...">` + 179))
   \   00000076   ....               LDI     R19, HIGH((`?<Constant "\\nZeitmessung Rechenop...">` + 179))
   \   00000078   ....               LDI     R16, LOW(int16_div10/2)
   \   0000007A   ....               LDI     R17, (int16_div10/2) >> 8
   \   0000007C   ....               RCALL   print_execute_time
    205          	TIME_FUNC(int16_div10_fast);
   \   0000007E   ....               LDI     R18, LOW((`?<Constant "\\nZeitmessung Rechenop...">` + 191))
   \   00000080   ....               LDI     R19, HIGH((`?<Constant "\\nZeitmessung Rechenop...">` + 191))
   \   00000082   ....               LDI     R16, LOW(int16_div10_fast/2)
   \   00000084   ....               LDI     R17, (int16_div10_fast/2) >> 8
   \   00000086   ....               RCALL   print_execute_time
    206          	TIME_FUNC(int16_div16);
   \   00000088   ....               LDI     R18, LOW((`?<Constant "\\nZeitmessung Rechenop...">` + 208))
   \   0000008A   ....               LDI     R19, HIGH((`?<Constant "\\nZeitmessung Rechenop...">` + 208))
   \   0000008C   ....               LDI     R16, LOW(int16_div16/2)
   \   0000008E   ....               LDI     R17, (int16_div16/2) >> 8
   \   00000090   ....               RCALL   print_execute_time
    207          	TIME_FUNC(int16_div);
   \   00000092   ....               LDI     R18, LOW((`?<Constant "\\nZeitmessung Rechenop...">` + 220))
   \   00000094   ....               LDI     R19, HIGH((`?<Constant "\\nZeitmessung Rechenop...">` + 220))
   \   00000096   ....               LDI     R16, LOW(int16_div/2)
   \   00000098   ....               LDI     R17, (int16_div/2) >> 8
   \   0000009A   ....               RCALL   print_execute_time
    208          	TIME_FUNC(int16_mult_const);
   \   0000009C   ....               LDI     R18, LOW((`?<Constant "\\nZeitmessung Rechenop...">` + 230))
   \   0000009E   ....               LDI     R19, HIGH((`?<Constant "\\nZeitmessung Rechenop...">` + 230))
   \   000000A0   ....               LDI     R16, LOW(int16_mult_const/2)
   \   000000A2   ....               LDI     R17, (int16_mult_const/2) >> 8
   \   000000A4   ....               RCALL   print_execute_time
    209          	TIME_FUNC(int16_mult);	
   \   000000A6   ....               LDI     R18, LOW((`?<Constant "\\nZeitmessung Rechenop...">` + 247))
   \   000000A8   ....               LDI     R19, HIGH((`?<Constant "\\nZeitmessung Rechenop...">` + 247))
   \   000000AA   ....               LDI     R16, LOW(int16_mult/2)
   \   000000AC   ....               LDI     R17, (int16_mult/2) >> 8
   \   000000AE   ....               RCALL   print_execute_time
    210          	TIME_FUNC(int32_div10);
   \   000000B0   ....               LDI     R18, LOW((`?<Constant "\\nZeitmessung Rechenop...">` + 258))
   \   000000B2   ....               LDI     R19, HIGH((`?<Constant "\\nZeitmessung Rechenop...">` + 258))
   \   000000B4   ....               LDI     R16, LOW(int32_div10/2)
   \   000000B6   ....               LDI     R17, (int32_div10/2) >> 8
   \   000000B8   ....               RCALL   print_execute_time
    211          	TIME_FUNC(int32_div16);
   \   000000BA   ....               LDI     R18, LOW((`?<Constant "\\nZeitmessung Rechenop...">` + 270))
   \   000000BC   ....               LDI     R19, HIGH((`?<Constant "\\nZeitmessung Rechenop...">` + 270))
   \   000000BE   ....               LDI     R16, LOW(int32_div16/2)
   \   000000C0   ....               LDI     R17, (int32_div16/2) >> 8
   \   000000C2   ....               RCALL   print_execute_time
    212          	TIME_FUNC(int32_div);
   \   000000C4   ....               LDI     R18, LOW((`?<Constant "\\nZeitmessung Rechenop...">` + 282))
   \   000000C6   ....               LDI     R19, HIGH((`?<Constant "\\nZeitmessung Rechenop...">` + 282))
   \   000000C8   ....               LDI     R16, LOW(int32_div/2)
   \   000000CA   ....               LDI     R17, (int32_div/2) >> 8
   \   000000CC   ....               RCALL   print_execute_time
    213          	TIME_FUNC(int32_mult_const);
   \   000000CE   ....               LDI     R18, LOW((`?<Constant "\\nZeitmessung Rechenop...">` + 292))
   \   000000D0   ....               LDI     R19, HIGH((`?<Constant "\\nZeitmessung Rechenop...">` + 292))
   \   000000D2   ....               LDI     R16, LOW(int32_mult_const/2)
   \   000000D4   ....               LDI     R17, (int32_mult_const/2) >> 8
   \   000000D6   ....               RCALL   print_execute_time
    214          	TIME_FUNC(int32_mult);		
   \   000000D8   ....               LDI     R18, LOW((`?<Constant "\\nZeitmessung Rechenop...">` + 309))
   \   000000DA   ....               LDI     R19, HIGH((`?<Constant "\\nZeitmessung Rechenop...">` + 309))
   \   000000DC   ....               LDI     R16, LOW(int32_mult/2)
   \   000000DE   ....               LDI     R17, (int32_mult/2) >> 8
   \   000000E0   ....               RCALL   print_execute_time
    215          	return 0;	
   \   000000E2   E000               LDI     R16, 0
   \   000000E4   E010               LDI     R17, 0
   \   000000E6   9508               RET
    216          }

   \                                 In  segment NEAR_ID, align 1, keep-with-next
   \                     `?<Initializer for <Constant " = ">>`:
   \   00000000   3D200020           DC8 " = "
   \                     `?<Initializer for <Constant " (Timeroverflow!)`:
   \   00000004   28206954656D       DC8 " (Timeroverflow!)"
   \              6F7265766672
   \              6F6C21770029
   \                     `?<Initializer for <Constant "\\n">>`:
   \   00000016   000A               DC8 "\012"

   \                                 In  segment NEAR_ID, align 1, keep-with-next
   \                     `?<Initializer for <Constant "\\nZeitmessung Rec`:
   \   00000000   5A0A69656D74       DC8 "\012Zeitmessung Rechenoperationen\012"
   \              73657573676E
   \              522063656568
   \              6F6E65706172
   \              69746E6F6E65
   \              000A        
   \                     `?<Initializer for <Constant "\\n Takte   Funkti`:
   \   00000020   200A6154746B       DC8 "\012 Takte   Funktionsname\012"
   \              206520207546
   \              6B6E69746E6F
   \              6E736D610A65
   \              00          
   \                     `?<Initializer for <Constant "float_convert_to_`:
   \   00000039   6C66616F5F74       DC8 "float_convert_to_float"
   \              6F63766E7265
   \              5F746F74665F
   \              6F6C746100  
   \                     `?<Initializer for <Constant "float_convert_to__1`:
   \   00000050   6C66616F5F74       DC8 "float_convert_to_int"
   \              6F63766E7265
   \              5F746F74695F
   \              746E00      
   \                     `?<Initializer for <Constant "float_add_const">`:
   \   00000065   6C66616F5F74       DC8 "float_add_const"
   \              64615F646F63
   \              736E0074    
   \                     `?<Initializer for <Constant "float_add">>`:
   \   00000075   6C66616F5F74       DC8 "float_add"
   \              64610064    
   \                     `?<Initializer for <Constant "float_mul_const">`:
   \   0000007F   6C66616F5F74       DC8 "float_mul_const"
   \              756D5F6C6F63
   \              736E0074    
   \                     `?<Initializer for <Constant "float_mul">>`:
   \   0000008F   6C66616F5F74       DC8 "float_mul"
   \              756D006C    
   \                     `?<Initializer for <Constant "float_div_const">`:
   \   00000099   6C66616F5F74       DC8 "float_div_const"
   \              69645F766F63
   \              736E0074    
   \                     `?<Initializer for <Constant "float_div">>`:
   \   000000A9   6C66616F5F74       DC8 "float_div"
   \              69640076    
   \                     `?<Initializer for <Constant "int16_div10">>`:
   \   000000B3   6E6931745F36       DC8 "int16_div10"
   \              696431760030
   \                     `?<Initializer for <Constant "int16_div10_fast"`:
   \   000000BF   6E6931745F36       DC8 "int16_div10_fast"
   \              696431765F30
   \              6166747300  
   \                     `?<Initializer for <Constant "int16_div16">>`:
   \   000000D0   6E6931745F36       DC8 "int16_div16"
   \              696431760036
   \                     `?<Initializer for <Constant "int16_div">>`:
   \   000000DC   6E6931745F36       DC8 "int16_div"
   \              69640076    
   \                     `?<Initializer for <Constant "int16_mult_const"`:
   \   000000E6   6E6931745F36       DC8 "int16_mult_const"
   \              756D746C635F
   \              6E6F747300  
   \                     `?<Initializer for <Constant "int16_mult">>`:
   \   000000F7   6E6931745F36       DC8 "int16_mult"
   \              756D746C00  
   \                     `?<Initializer for <Constant "int32_div10">>`:
   \   00000102   6E6933745F32       DC8 "int32_div10"
   \              696431760030
   \                     `?<Initializer for <Constant "int32_div16">>`:
   \   0000010E   6E6933745F32       DC8 "int32_div16"
   \              696431760036
   \                     `?<Initializer for <Constant "int32_div">>`:
   \   0000011A   6E6933745F32       DC8 "int32_div"
   \              69640076    
   \                     `?<Initializer for <Constant "int32_mult_const"`:
   \   00000124   6E6933745F32       DC8 "int32_mult_const"
   \              756D746C635F
   \              6E6F747300  
   \                     `?<Initializer for <Constant "int32_mult">>`:
   \   00000135   6E6933745F32       DC8 "int32_mult"
   \              756D746C00  

   \                                 In  segment NEAR_ID, align 1, keep-with-next
   \                     `?<Initializer for a>`:
   \   00000000   E5864557           DD 4557E586H
   \                     `?<Initializer for b>`:
   \   00000004   21D0463F           DD 463F21D0H
   \                     `?<Initializer for c>`:
   \   00000008   00000000           DD 0H
   \                     `?<Initializer for d>`:
   \   0000000C   5B92               DC16 23442

   \                                 In  segment NEAR_ID, align 1, keep-with-next
   \                     `?<Initializer for i_a>`:
   \   00000000   5B94               DC16 23444
   \                     `?<Initializer for i_b>`:
   \   00000002   0017               DC16 23
   \                     `?<Initializer for i_c>`:
   \   00000004   0000               DC8 0, 0

   \                                 In  segment NEAR_ID, align 1, keep-with-next
   \                     `?<Initializer for l_a>`:
   \   00000000   5B940000           DD 23444
   \                     `?<Initializer for l_b>`:
   \   00000004   00170000           DD 23
   \                     `?<Initializer for l_c>`:
   \   00000008   00000000           DC8 0, 0, 0, 0

   \                                 In  segment NEAR_I, align 1, keep-with-next
   \   00000000                      REQUIRE `?<Segment init: NEAR_I>`
   \                     `?<Constant " = ">`:
   \   00000000                      DS8 4
   \   00000004                      REQUIRE `?<Initializer for <Constant " = ">>`
   \   00000004                      DS8 18
   \   00000016                      REQUIRE `?<Initializer for <Constant " (Timeroverflow!)`
   \   00000016                      DS8 2
   \   00000018                      REQUIRE `?<Initializer for <Constant "\\n">>`

   \                                 In  segment NEAR_I, align 1, keep-with-next
   \   00000000                      REQUIRE `?<Segment init: NEAR_I>`
   \                     `?<Constant "\\nZeitmessung Rechenop...">`:
   \   00000000                      DS8 32
   \   00000020                      REQUIRE `?<Initializer for <Constant "\\nZeitmessung Rec`
   \   00000020                      DS8 25
   \   00000039                      REQUIRE `?<Initializer for <Constant "\\n Takte   Funkti`
   \   00000039                      DS8 23
   \   00000050                      REQUIRE `?<Initializer for <Constant "float_convert_to_`
   \   00000050                      DS8 21
   \   00000065                      REQUIRE `?<Initializer for <Constant "float_convert_to__1`
   \   00000065                      DS8 16
   \   00000075                      REQUIRE `?<Initializer for <Constant "float_add_const">`
   \   00000075                      DS8 10
   \   0000007F                      REQUIRE `?<Initializer for <Constant "float_add">>`
   \   0000007F                      DS8 16
   \   0000008F                      REQUIRE `?<Initializer for <Constant "float_mul_const">`
   \   0000008F                      DS8 10
   \   00000099                      REQUIRE `?<Initializer for <Constant "float_mul">>`
   \   00000099                      DS8 16
   \   000000A9                      REQUIRE `?<Initializer for <Constant "float_div_const">`
   \   000000A9                      DS8 10
   \   000000B3                      REQUIRE `?<Initializer for <Constant "float_div">>`
   \   000000B3                      DS8 12
   \   000000BF                      REQUIRE `?<Initializer for <Constant "int16_div10">>`
   \   000000BF                      DS8 17
   \   000000D0                      REQUIRE `?<Initializer for <Constant "int16_div10_fast"`
   \   000000D0                      DS8 12
   \   000000DC                      REQUIRE `?<Initializer for <Constant "int16_div16">>`
   \   000000DC                      DS8 10
   \   000000E6                      REQUIRE `?<Initializer for <Constant "int16_div">>`
   \   000000E6                      DS8 17
   \   000000F7                      REQUIRE `?<Initializer for <Constant "int16_mult_const"`
   \   000000F7                      DS8 11
   \   00000102                      REQUIRE `?<Initializer for <Constant "int16_mult">>`
   \   00000102                      DS8 12
   \   0000010E                      REQUIRE `?<Initializer for <Constant "int32_div10">>`
   \   0000010E                      DS8 12
   \   0000011A                      REQUIRE `?<Initializer for <Constant "int32_div16">>`
   \   0000011A                      DS8 10
   \   00000124                      REQUIRE `?<Initializer for <Constant "int32_div">>`
   \   00000124                      DS8 17
   \   00000135                      REQUIRE `?<Initializer for <Constant "int32_mult_const"`
   \   00000135                      DS8 11
   \   00000140                      REQUIRE `?<Initializer for <Constant "int32_mult">>`

   Maximum stack usage in bytes:

     Function                      CSTACK RSTACK
     --------                      ------ ------
     PrintSignedShortFormated          9      2
     float_add                         2      4
     float_add_const                   2      4
     float_convert_to_float            0      4
     float_convert_to_int              0      4
     float_div                         2      4
     float_div_const                   2      4
     float_mul                         2      4
     float_mul_const                   2      4
     int16_div                         2      4
     int16_div10                       2      4
     int16_div10_fast                  0      2
     int16_div16                       0      2
     int16_mult                        0      2
     int16_mult_const                  0      2
     int32_div                         2      4
     int32_div10                       2      4
     int32_div16                       0      4
     int32_mult                        0      2
     int32_mult_const                  0      2
     main                              0      2
       -> print_execute_time           0      2
       -> print_execute_time           0      2
       -> print_execute_time           0      2
       -> print_execute_time           0      2
       -> print_execute_time           0      2
       -> print_execute_time           0      2
       -> print_execute_time           0      2
       -> print_execute_time           0      2
       -> print_execute_time           0      2
       -> print_execute_time           0      2
       -> print_execute_time           0      2
       -> print_execute_time           0      2
       -> print_execute_time           0      2
       -> print_execute_time           0      2
       -> print_execute_time           0      2
       -> print_execute_time           0      2
       -> print_execute_time           0      2
       -> print_execute_time           0      2
       -> print_execute_time           0      2
     print_execute_time                2      2
       ->   Indirect call              2      2
       -> PrintSignedShortFormated     2      2


   Segment part sizes:

     Function/Label                                 Bytes
     --------------                                 -----
     _A_TCNT1                                          2
     _A_TCCR1B                                         1
     _A_TCCR1A                                         1
     _A_TIFR                                           1
     a                                                14
     b
     c
     d
     float_convert_to_float                           36
     float_convert_to_int                             30
     float_add_const                                  32
     ??Subroutine4_0                                  14
     float_add                                        34
     float_mul_const                                  32
     float_mul                                        34
     ?Subroutine0                                     14
     float_div_const                                  18
     float_div                                        20
     i_a                                               6
     i_b
     i_c
     int16_div10                                      10
     ?Subroutine3                                     18
     int16_div10_fast                                 44
     ?Subroutine2                                     18
     int16_div16                                      14
     int16_div                                        14
     int16_mult_const                                 24
     int16_mult                                       30
     l_a                                              12
     l_b
     l_c
     int32_div10                                      16
     ?Subroutine1                                     28
     int32_div16                                      28
     int32_div                                        20
     int32_mult_const                                 52
     int32_mult                                       90
     PrintSignedShortFormated                        162
     print_execute_time                              122
     main                                            232
     ?<Initializer for <Constant " = ">>              24
     ?<Initializer for <Constant "\nZeitmessung Rec  320
     ?<Initializer for a>                             14
     ?<Initializer for i_a>                            6
     ?<Initializer for l_a>                           12
     ?<Constant " = ">                                24
     ?<Constant "\nZeitmessung Rechenop...">         320
      Others                                           7

 
     5 bytes in segment ABSOLUTE
 1 186 bytes in segment CODE
     7 bytes in segment INITTAB
   376 bytes in segment NEAR_I
   376 bytes in segment NEAR_ID
 
 1 562 bytes of CODE memory (+ 7 bytes shared)
   376 bytes of DATA memory (+ 5 bytes shared)

Errors: none
Warnings: 2
