###############################################################################
#                                                                             #
# IAR C/C++ Compiler V6.12.1.50500 for Atmel AVR        19/Mar/2015  14:05:54 #
# Copyright 1996-2012 IAR Systems AB.                                         #
#                                                                             #
#    Source file  =  C:\Users\boekhoma\Develop\github\optimize-with-int-calcu #
#                    lations-for-microcontroller\test.c                       #
#    Command line =  C:\Users\boekhoma\Develop\github\optimize-with-int-calcu #
#                    lations-for-microcontroller\test.c --cpu=m128 -ms -o     #
#                    C:\Users\boekhoma\Develop\github\optimize-with-int-calcu #
#                    lations-for-microcontroller\iar\Debug\Obj\ -D            #
#                    SIM_WIO=0x30 -D SIM_RIO -lC                              #
#                    C:\Users\boekhoma\Develop\github\optimize-with-int-calcu #
#                    lations-for-microcontroller\iar\Debug\List\ -lA          #
#                    C:\Users\boekhoma\Develop\github\optimize-with-int-calcu #
#                    lations-for-microcontroller\iar\Debug\List\ -y           #
#                    --initializers_in_flash --debug -e --eeprom_size 4096    #
#                    --clib -Ohs                                              #
#    List file    =  C:\Users\boekhoma\Develop\github\optimize-with-int-calcu #
#                    lations-for-microcontroller\iar\Debug\List\test.lst      #
#    Object file  =  C:\Users\boekhoma\Develop\github\optimize-with-int-calcu #
#                    lations-for-microcontroller\iar\Debug\Obj\test.r90       #
#                                                                             #
#                                                                             #
###############################################################################

C:\Users\boekhoma\Develop\github\optimize-with-int-calculations-for-microcontroller\test.c
      1          #ifdef  __IAR_SYSTEMS_ICC__
      2          
      3          #include <ioavr.h>

   \                                 In  segment ABSOLUTE, at 0x4c
   \   union <unnamed> volatile __io _A_TCNT1
   \                     _A_TCNT1:
   \   00000000                      DS8 2

   \                                 In  segment ABSOLUTE, at 0x4e
   \   union <unnamed> volatile __io _A_TCCR1B
   \                     _A_TCCR1B:
   \   00000000                      DS8 1

   \                                 In  segment ABSOLUTE, at 0x4f
   \   union <unnamed> volatile __io _A_TCCR1A
   \                     _A_TCCR1A:
   \   00000000                      DS8 1

   \                                 In  segment ABSOLUTE, at 0x56
   \   union <unnamed> volatile __io _A_TIFR
   \                     _A_TIFR:
   \   00000000                      DS8 1
      4          typedef unsigned char  uint8_t;
      5          typedef   signed char   int8_t;
      6          typedef unsigned short uint16_t;
      7          typedef   signed short  int16_t;
      8          typedef unsigned long  uint32_t;
      9          typedef   signed long   int32_t;
     10          #define PROGMEM __flash
     11          #define PW(a) (a)
     12          #include <math.h>
     13          
     14          #elif defined  CODE_VISION
     15          
     16          #include <io.h> 
     17          #include <math.h>
     18          #include <stdint.h>
     19          #include <stdio.h>
     20          #define PW(a) (a)
     21          #include <math.h>
     22          #define const flash
     23          #define PROGMEM 
     24          
     25          #else
     26          
     27          #include <avr/io.h>
     28          #include <stdlib.h>
     29          #include <math.h>
     30          #include <avr/pgmspace.h>
     31          #define PW(a) pgm_read_word(&(a))
     32          
     33          #endif
     34          

   \                                 In  segment NEAR_F, align 1, keep-with-next
     35          const int16_t PROGMEM sin_table[66] = {
   \                     sin_table:
   \   00000000   000003240648       DC16 0, 804, 1608, 2410, 3212, 4011, 4808, 5602, 6393, 7179, 7962, 8739
   \              096A0C8C0FAB
   \              12C815E218F9
   \              1C0B1F1A2223
   \   00000018   252828262B1F       DC16 9512, 10278, 11039, 11793, 12539, 13279, 14010, 14732, 15446
   \              2E1130FB33DF
   \              36BA398C3C56
   \   0000002A   3F1741CE447A       DC16 16151, 16846, 17530, 18204, 18868, 19519, 20159, 20787, 21403
   \              471C49B44C3F
   \              4EBF5133539B
   \   0000003C   55F558425A82       DC16 22005, 22594, 23170, 23731, 24279, 24811, 25329, 25832, 26319
   \              5CB35ED760EB
   \              62F164E866CF
   \   0000004E   68A66A6D6C23       DC16 26790, 27245, 27683, 28105, 28510, 28898, 29268, 29621, 29956
   \              6DC96F5E70E2
   \              725473B57504
   \   00000060   7641776B7884       DC16 30273, 30571, 30852, 31113, 31356, 31580, 31785, 31971, 32137
   \              79897A7C7B5C
   \              7C297CE37D89
   \   00000072   7E1D7E9C7F09       DC16 32285, 32412, 32521, 32609, 32678, 32728, 32757, 32767, 32757
   \              7F617FA67FD8
   \              7FF57FFF7FF5
     36          
     37                0,   804,  1608,  2410,  3212,  4011,  4808,  5602,
     38             6393,  7179,  7962,  8739,  9512, 10278, 11039, 11793,
     39            12539, 13279, 14010, 14732, 15446, 16151, 16846, 17530,
     40            18204, 18868, 19519, 20159, 20787, 21403, 22005, 22594,
     41            23170, 23731, 24279, 24811, 25329, 25832, 26319, 26790,
     42            27245, 27683, 28105, 28510, 28898, 29268, 29621, 29956,
     43            30273, 30571, 30852, 31113, 31356, 31580, 31785, 31971,
     44            32137, 32285, 32412, 32521, 32609, 32678, 32728, 32757,
     45            32767, 32757
     46          };
     47          

   \                                 In  segment CODE, align 2, keep-with-next
     48          static int16_t Sine(int32_t phase)
   \                     Sine:
     49          {
   \   00000000   926A               ST      -Y, R6
   \   00000002   925A               ST      -Y, R5
   \   00000004   924A               ST      -Y, R4
   \   00000006   93AA               ST      -Y, R26
   \   00000008   011C               MOVW    R3:R2, R25:R24
   \   0000000A                      REQUIRE ?Register_R4_is_cg_reg
   \   0000000A                      REQUIRE ?Register_R5_is_cg_reg
   \   0000000A                      REQUIRE ?Register_R6_is_cg_reg
     50                  int16_t s0;
     51                  uint16_t tmp_phase, tmp_phase_hi;
     52          
     53                  tmp_phase = phase & 0x7fff;
   \   0000000A   01A8               MOVW    R21:R20, R17:R16
   \   0000000C   775F               ANDI    R21, 0x7F
     54          
     55                  if (tmp_phase & 0x4000)
   \   0000000E   FB56               BST     R21, 6
   \   00000010   F42E               BRTC    ??Sine_0
     56                          tmp_phase = 0x8000 - tmp_phase;
   \   00000012   E060               LDI     R22, 0
   \   00000014   E870               LDI     R23, 128
   \   00000016   1B60               SUB     R22, R16
   \   00000018   0B75               SBC     R23, R21
   \   0000001A   01AB               MOVW    R21:R20, R23:R22
     57          
     58                  tmp_phase_hi = tmp_phase >> 8; // 0...64
   \                     ??Sine_0:
   \   0000001C   2F65               MOV     R22, R21
   \   0000001E   E070               LDI     R23, 0
     59          
     60                  s0 = PW(sin_table[tmp_phase_hi]);
   \   00000020   0F66               LSL     R22
   \   00000022   1F77               ROL     R23
   \   00000024   ....               LDI     R30, LOW(sin_table)
   \   00000026   ....               LDI     R31, (sin_table) >> 8
   \   00000028   0FE6               ADD     R30, R22
   \   0000002A   1FF7               ADC     R31, R23
   \   0000002C   9165               LPM     R22, Z+
   \   0000002E   9175               LPM     R23, Z+
     61          
     62                  s0 += ((int16_t)((((int32_t)(PW(sin_table[tmp_phase_hi+1]) - s0))*
     63                                              (tmp_phase&0xff))>>8));
   \   00000030   9045               LPM     R4, Z+
   \   00000032   9054               LPM     R5, Z
   \   00000034   1A46               SUB     R4, R22
   \   00000036   0A57               SBC     R5, R23
   \   00000038   2C65               MOV     R6, R5
   \   0000003A   0C66               LSL     R6
   \   0000003C   0866               SBC     R6, R6
   \   0000003E   E050               LDI     R21, 0
   \   00000040   2F84               MOV     R24, R20
   \   00000042   9D86               MUL     R24, R6
   \   00000044   2DA0               MOV     R26, R0
   \   00000046   9D85               MUL     R24, R5
   \   00000048   2D90               MOV     R25, R0
   \   0000004A   0DA1               ADD     R26, R1
   \   0000004C   9D84               MUL     R24, R4
   \   0000004E   0D91               ADD     R25, R1
   \   00000050   1FA5               ADC     R26, R21
   \   00000052   0F69               ADD     R22, R25
   \   00000054   1F7A               ADC     R23, R26
     64          
     65                  if (phase & 0x8000) {
   \   00000056   FF17               SBRS    R17, 7
   \   00000058   C003               RJMP    ??Sine_1
     66                          s0 = -s0;
   \   0000005A   9571               NEG     R23
   \   0000005C   9561               NEG     R22
   \   0000005E   4070               SBCI    R23, 0
     67                  }
     68          
     69                  return s0;
   \                     ??Sine_1:
   \   00000060   018B               MOVW    R17:R16, R23:R22
   \   00000062   01C1               MOVW    R25:R24, R3:R2
   \   00000064   91A9               LD      R26, Y+
   \   00000066   9049               LD      R4, Y+
   \   00000068   9059               LD      R5, Y+
   \   0000006A   9069               LD      R6, Y+
   \   0000006C   9508               RET
     70          }
     71          
     72          static int16_t Cosi(int32_t phase)
     73          {
     74              return Sine(phase + 0x4000);
     75          }
     76          
     77          /* by Jim Ulery  http://www.azillionmonkeys.com/qed/ulerysqroot.pdf  */

   \                                 In  segment CODE, align 2, keep-with-next
     78          static uint32_t isqrt_c32(uint32_t val) {
   \                     isqrt_c32:
   \   00000000   92BA               ST      -Y, R11
   \   00000002   92AA               ST      -Y, R10
   \   00000004   929A               ST      -Y, R9
   \   00000006   2DF8               MOV     R31, R8
   \   00000008   2C37               MOV     R3, R7
   \   0000000A   2D76               MOV     R23, R6
   \   0000000C   2D55               MOV     R21, R5
   \   0000000E   2DE4               MOV     R30, R4
   \   00000010   2F68               MOV     R22, R24
   \   00000012                      REQUIRE ?Register_R4_is_cg_reg
   \   00000012                      REQUIRE ?Register_R5_is_cg_reg
   \   00000012                      REQUIRE ?Register_R6_is_cg_reg
   \   00000012                      REQUIRE ?Register_R7_is_cg_reg
   \   00000012                      REQUIRE ?Register_R8_is_cg_reg
   \   00000012                      REQUIRE ?Register_R9_is_cg_reg
   \   00000012                      REQUIRE ?Register_R10_is_cg_reg
   \   00000012                      REQUIRE ?Register_R11_is_cg_reg
   \   00000012   0128               MOVW    R5:R4, R17:R16
   \   00000014   0139               MOVW    R7:R6, R19:R18
     79              uint32_t temp, g = 0, b = 0x8000, bshft = 15;
   \   00000016   2488               CLR     R8
   \   00000018   2499               CLR     R9
   \   0000001A   24AA               CLR     R10
   \   0000001C   24BB               CLR     R11
   \   0000001E   2400               CLR     R0
   \   00000020   E800               LDI     R16, 128
   \   00000022   2E10               MOV     R1, R16
   \   00000024   2422               CLR     R2
   \   00000026   E08F               LDI     R24, 15
     80              do {
     81                  if (val >= (temp = (((g << 1) + b)<<bshft--))) {
   \                     ??isqrt_c32_0:
   \   00000028   0184               MOVW    R17:R16, R9:R8
   \   0000002A   0195               MOVW    R19:R18, R11:R10
   \   0000002C   0F00               LSL     R16
   \   0000002E   1F11               ROL     R17
   \   00000030   1F22               ROL     R18
   \   00000032   1F33               ROL     R19
   \   00000034   0D00               ADD     R16, R0
   \   00000036   1D11               ADC     R17, R1
   \   00000038   1D22               ADC     R18, R2
   \   0000003A   1D32               ADC     R19, R2
   \   0000003C   2F48               MOV     R20, R24
   \   0000003E   ........           CALL    ?L_SHL_L03
   \   00000042   958A               DEC     R24
   \   00000044   1640               CP      R4, R16
   \   00000046   0651               CPC     R5, R17
   \   00000048   0662               CPC     R6, R18
   \   0000004A   0673               CPC     R7, R19
   \   0000004C   F040               BRCS    ??isqrt_c32_1
     82                      g += b;
   \   0000004E   0C80               ADD     R8, R0
   \   00000050   1C91               ADC     R9, R1
   \   00000052   1CA2               ADC     R10, R2
   \   00000054   1CB2               ADC     R11, R2
     83                      val -= temp;
   \   00000056   1A40               SUB     R4, R16
   \   00000058   0A51               SBC     R5, R17
   \   0000005A   0A62               SBC     R6, R18
   \   0000005C   0A73               SBC     R7, R19
     84                  }
     85              } while (b >>= 1);
   \                     ??isqrt_c32_1:
   \   0000005E   9416               LSR     R1
   \   00000060   9407               ROR     R0
   \   00000062   2D00               MOV     R16, R0
   \   00000064   2901               OR      R16, R1
   \   00000066   F701               BRNE    ??isqrt_c32_0
     86              return g;
   \   00000068   0184               MOVW    R17:R16, R9:R8
   \   0000006A   0195               MOVW    R19:R18, R11:R10
   \   0000006C   2F86               MOV     R24, R22
   \   0000006E   2E4E               MOV     R4, R30
   \   00000070   2E55               MOV     R5, R21
   \   00000072   2E67               MOV     R6, R23
   \   00000074   2C73               MOV     R7, R3
   \   00000076   2E8F               MOV     R8, R31
   \   00000078   9099               LD      R9, Y+
   \   0000007A   90A9               LD      R10, Y+
   \   0000007C   90B9               LD      R11, Y+
   \   0000007E   9508               RET
     87          }
     88          

   \                                 In  segment CODE, align 2, keep-with-next
     89          static uint16_t isqrt_c16(uint16_t val) {
   \                     isqrt_c16:
   \   00000000   2F59               MOV     R21, R25
   \   00000002   2E28               MOV     R2, R24
   \   00000004   01B8               MOVW    R23:R22, R17:R16
     90              uint16_t temp, g = 0, b = 0x80, bshft = 7;
   \   00000006   2400               CLR     R0
   \   00000008   2411               CLR     R1
   \   0000000A   E820               LDI     R18, 128
   \   0000000C   E030               LDI     R19, 0
   \   0000000E   E087               LDI     R24, 7
   \   00000010   E090               LDI     R25, 0
     91              do {
     92                  if (val >= (temp = (((g << 1) + b)<<bshft--))) {
   \                     ??isqrt_c16_0:
   \   00000012   0180               MOVW    R17:R16, R1:R0
   \   00000014   0F00               LSL     R16
   \   00000016   1F11               ROL     R17
   \   00000018   0F02               ADD     R16, R18
   \   0000001A   1F13               ADC     R17, R19
   \   0000001C   2F48               MOV     R20, R24
   \   0000001E   ........           CALL    ?S_SHL_L02
   \   00000022   9701               SBIW    R25:R24, 1
   \   00000024   1760               CP      R22, R16
   \   00000026   0771               CPC     R23, R17
   \   00000028   F020               BRCS    ??isqrt_c16_1
     93                      g += b;
   \   0000002A   0E02               ADD     R0, R18
   \   0000002C   1E13               ADC     R1, R19
     94                      val -= temp;
   \   0000002E   1B60               SUB     R22, R16
   \   00000030   0B71               SBC     R23, R17
     95                  }
     96              } while (b >>= 1);
   \                     ??isqrt_c16_1:
   \   00000032   9526               LSR     R18
   \   00000034   F771               BRNE    ??isqrt_c16_0
     97              return g;
   \   00000036   0180               MOVW    R17:R16, R1:R0
   \   00000038   2D82               MOV     R24, R2
   \   0000003A   2F95               MOV     R25, R21
   \   0000003C   9508               RET
     98          }
     99          
    100          #include "asmlib.h"

  typedef unsigned char  uint8_t;
                         ^
"C:\Users\boekhoma\Develop\github\optimize-with-int-calculations-for-microcontroller\asmlib.h",5  Warning[Pe301]: 
          typedef name has already been declared (with same type)

  typedef   signed char   int8_t;
                          ^
"C:\Users\boekhoma\Develop\github\optimize-with-int-calculations-for-microcontroller\asmlib.h",6  Warning[Pe301]: 
          typedef name has already been declared (with same type)

  typedef unsigned short uint16_t;
                         ^
"C:\Users\boekhoma\Develop\github\optimize-with-int-calculations-for-microcontroller\asmlib.h",7  Warning[Pe301]: 
          typedef name has already been declared (with same type)

  typedef   signed short  int16_t;
                          ^
"C:\Users\boekhoma\Develop\github\optimize-with-int-calculations-for-microcontroller\asmlib.h",8  Warning[Pe301]: 
          typedef name has already been declared (with same type)

  typedef unsigned long  uint32_t;
                         ^
"C:\Users\boekhoma\Develop\github\optimize-with-int-calculations-for-microcontroller\asmlib.h",9  Warning[Pe301]: 
          typedef name has already been declared (with same type)

  typedef   signed long   int32_t;
                          ^
"C:\Users\boekhoma\Develop\github\optimize-with-int-calculations-for-microcontroller\asmlib.h",10  Warning[Pe301]: 
          typedef name has already been declared (with same type)

  static int16_t Cosi(int32_t phase)
                 ^
"C:\Users\boekhoma\Develop\github\optimize-with-int-calculations-for-microcontroller\test.c",72  Warning[Pe177]: 
          function "Cosi" was declared but never referenced
    101          
    102          typedef void (*test_func_t)(void);
    103          

   \                                 In  segment NEAR_I, align 1, keep-with-next
   \   00000000                      REQUIRE `?<Segment init: NEAR_I>`
    104          float a = 3454.345334, b = 12232.45345, c = 0.0;
   \                     a:
   \   00000000                      DS8 4
   \   00000004                      REQUIRE `?<Initializer for a>`
   \                     b:
   \   00000004                      DS8 4
   \   00000008                      REQUIRE `?<Initializer for b>`
   \                     c:
   \   00000008                      DS8 4
   \   0000000C                      REQUIRE `?<Initializer for c>`
    105          short d = 23442;
   \                     d:
   \   0000000C                      DS8 2
   \   0000000E                      REQUIRE `?<Initializer for d>`
    106          

   \                                 In  segment CODE, align 2, keep-with-next
    107          void float_convert_to_float(void) {
   \                     float_convert_to_float:
   \   00000000   01AD               MOVW    R21:R20, R27:R26
    108          	c = d;
   \   00000002   ....               LDI     R26, LOW((a + 12))
   \   00000004   ....               LDI     R27, HIGH((a + 12))
   \   00000006   910D               LD      R16, X+
   \   00000008   911C               LD      R17, X
   \   0000000A   9715               SBIW    R27:R26, 5
   \   0000000C   2F21               MOV     R18, R17
   \   0000000E   0F22               LSL     R18
   \   00000010   0B22               SBC     R18, R18
   \   00000012   2F32               MOV     R19, R18
   \   00000014   ........           CALL    ?SL2F_L04
   \   00000018   930D               ST      X+, R16
   \   0000001A   931D               ST      X+, R17
   \   0000001C   932D               ST      X+, R18
   \   0000001E   933C               ST      X, R19
    109          }
   \   00000020   01DA               MOVW    R27:R26, R21:R20
   \   00000022   9508               RET
    110          

   \                                 In  segment CODE, align 2, keep-with-next
    111          void float_convert_to_int(void) {
   \                     float_convert_to_int:
   \   00000000   2F5B               MOV     R21, R27
   \   00000002   2F6A               MOV     R22, R26
    112          	d = (short) c;
   \   00000004   ....               LDI     R26, LOW((a + 8))
   \   00000006   ....               LDI     R27, HIGH((a + 8))
   \   00000008   910D               LD      R16, X+
   \   0000000A   911D               LD      R17, X+
   \   0000000C   912D               LD      R18, X+
   \   0000000E   913D               LD      R19, X+
   \   00000010   ........           CALL    ?F2SL_L04
   \   00000014   930D               ST      X+, R16
   \   00000016   931C               ST      X, R17
    113          }
   \   00000018   2FA6               MOV     R26, R22
   \   0000001A   2FB5               MOV     R27, R21
   \   0000001C   9508               RET
    114          

   \                                 In  segment CODE, align 2, keep-with-next
    115          void float_add_const(void) {
   \                     float_add_const:
   \   00000000   93BA               ST      -Y, R27
   \   00000002   93AA               ST      -Y, R26
    116          	c = a + 4.0;
   \   00000004   ....               LDI     R26, LOW(a)
   \   00000006   ....               LDI     R27, (a) >> 8
   \   00000008   E040               LDI     R20, 0
   \   0000000A   E050               LDI     R21, 0
   \   0000000C   E860               LDI     R22, 128
   \   0000000E   E470               LDI     R23, 64
   \   00000010   910D               LD      R16, X+
   \   00000012   911D               LD      R17, X+
   \   00000014   912D               LD      R18, X+
   \   00000016   913C               LD      R19, X
   \   00000018   9615               ADIW    R27:R26, 5
   \   0000001A   ........           CALL    ?F_ADD_L04
   \   0000001E   ....               RJMP    ??Subroutine7_0
    117          }

   \                                 In  segment CODE, align 2, keep-with-next
   \                     ??Subroutine7_0:
   \   00000000   930D               ST      X+, R16
   \   00000002   931D               ST      X+, R17
   \   00000004   932D               ST      X+, R18
   \   00000006   933C               ST      X, R19
   \   00000008   91A9               LD      R26, Y+
   \   0000000A   91B9               LD      R27, Y+
   \   0000000C   9508               RET
    118          

   \                                 In  segment CODE, align 2, keep-with-next
    119          void float_add(void) {
   \                     float_add:
   \   00000000   93BA               ST      -Y, R27
   \   00000002   93AA               ST      -Y, R26
    120          	c = a + b;
   \   00000004   ....               LDI     R26, LOW((a + 4))
   \   00000006   ....               LDI     R27, HIGH((a + 4))
   \   00000008   910D               LD      R16, X+
   \   0000000A   911D               LD      R17, X+
   \   0000000C   912D               LD      R18, X+
   \   0000000E   913C               LD      R19, X
   \   00000010   9717               SBIW    R27:R26, 7
   \   00000012   914D               LD      R20, X+
   \   00000014   915D               LD      R21, X+
   \   00000016   916D               LD      R22, X+
   \   00000018   917C               LD      R23, X
   \   0000001A   9615               ADIW    R27:R26, 5
   \   0000001C   ........           CALL    ?F_ADD_L04
   \   00000020   ....               RJMP    ??Subroutine7_0
    121          }  
    122          

   \                                 In  segment CODE, align 2, keep-with-next
    123          void float_mul_const(void) {
   \                     float_mul_const:
   \   00000000   93BA               ST      -Y, R27
   \   00000002   93AA               ST      -Y, R26
    124          	c = a * 4.0;
   \   00000004   ....               LDI     R26, LOW(a)
   \   00000006   ....               LDI     R27, (a) >> 8
   \   00000008   E040               LDI     R20, 0
   \   0000000A   E050               LDI     R21, 0
   \   0000000C   E860               LDI     R22, 128
   \   0000000E   E470               LDI     R23, 64
   \   00000010   910D               LD      R16, X+
   \   00000012   911D               LD      R17, X+
   \   00000014   912D               LD      R18, X+
   \   00000016   913C               LD      R19, X
   \   00000018   9615               ADIW    R27:R26, 5
   \   0000001A   ........           CALL    ?F_MUL_L04
   \   0000001E   ....               RJMP    ??Subroutine7_0
    125          } 
    126          

   \                                 In  segment CODE, align 2, keep-with-next
    127          void float_mul(void) {
   \                     float_mul:
   \   00000000   93BA               ST      -Y, R27
   \   00000002   93AA               ST      -Y, R26
    128          	c = a * b;
   \   00000004   ....               LDI     R26, LOW((a + 4))
   \   00000006   ....               LDI     R27, HIGH((a + 4))
   \   00000008   910D               LD      R16, X+
   \   0000000A   911D               LD      R17, X+
   \   0000000C   912D               LD      R18, X+
   \   0000000E   913C               LD      R19, X
   \   00000010   9717               SBIW    R27:R26, 7
   \   00000012   914D               LD      R20, X+
   \   00000014   915D               LD      R21, X+
   \   00000016   916D               LD      R22, X+
   \   00000018   917C               LD      R23, X
   \   0000001A   9615               ADIW    R27:R26, 5
   \   0000001C   ........           CALL    ?F_MUL_L04
   \   00000020   ....               RJMP    ??Subroutine7_0
    129          } 
    130          

   \                                 In  segment CODE, align 2, keep-with-next
   \                     ?Subroutine0:
   \   00000000   910D               LD      R16, X+
   \   00000002   911D               LD      R17, X+
   \   00000004   912D               LD      R18, X+
   \   00000006   913C               LD      R19, X
   \   00000008   9615               ADIW    R27:R26, 5
   \   0000000A   ........           CALL    ?F_DIV_L04
   \   0000000E                      REQUIRE ??Subroutine7_0
   \   0000000E                      ;               // Fall through to label ??Subroutine7_0

   \                                 In  segment CODE, align 2, keep-with-next
    131          void float_div_const(void) {
   \                     float_div_const:
   \   00000000   93BA               ST      -Y, R27
   \   00000002   93AA               ST      -Y, R26
    132          	c = a / 2.4;
   \   00000004   ....               LDI     R26, LOW(a)
   \   00000006   ....               LDI     R27, (a) >> 8
   \   00000008   E94A               LDI     R20, 154
   \   0000000A   E959               LDI     R21, 153
   \   0000000C   E169               LDI     R22, 25
   \   0000000E   E470               LDI     R23, 64
   \   00000010   ....               RJMP    ?Subroutine0
    133          } 
    134          

   \                                 In  segment CODE, align 2, keep-with-next
    135          void float_div(void) {
   \                     float_div:
   \   00000000   93BA               ST      -Y, R27
   \   00000002   93AA               ST      -Y, R26
    136          	c = a / b;
   \   00000004   ....               LDI     R26, LOW((a + 4))
   \   00000006   ....               LDI     R27, HIGH((a + 4))
   \   00000008   914D               LD      R20, X+
   \   0000000A   915D               LD      R21, X+
   \   0000000C   916D               LD      R22, X+
   \   0000000E   917C               LD      R23, X
   \   00000010   9717               SBIW    R27:R26, 7
   \   00000012   ....               RJMP    ?Subroutine0
    137          }
    138          

   \                                 In  segment CODE, align 2, keep-with-next
    139          void float_sqrt(void) {
   \                     float_sqrt:
   \   00000000   93BA               ST      -Y, R27
   \   00000002   93AA               ST      -Y, R26
    140          	c = sqrt(a);
   \   00000004   ....               LDI     R26, LOW(a)
   \   00000006   ....               LDI     R27, (a) >> 8
   \   00000008   910D               LD      R16, X+
   \   0000000A   911D               LD      R17, X+
   \   0000000C   912D               LD      R18, X+
   \   0000000E   913C               LD      R19, X
   \   00000010   9615               ADIW    R27:R26, 5
   \   00000012   ........           CALL    sqrt
   \   00000016   ....               RJMP    ??Subroutine7_0
    141          }
    142          

   \                                 In  segment CODE, align 2, keep-with-next
    143          void float_sin(void) {
   \                     float_sin:
   \   00000000   93BA               ST      -Y, R27
   \   00000002   93AA               ST      -Y, R26
    144          	c = sin(a);	
   \   00000004   ....               LDI     R26, LOW(a)
   \   00000006   ....               LDI     R27, (a) >> 8
   \   00000008   910D               LD      R16, X+
   \   0000000A   911D               LD      R17, X+
   \   0000000C   912D               LD      R18, X+
   \   0000000E   913C               LD      R19, X
   \   00000010   9615               ADIW    R27:R26, 5
   \   00000012   ........           CALL    sin
   \   00000016   ....               RJMP    ??Subroutine7_0
    145          }
    146          

   \                                 In  segment NEAR_I, align 1, keep-with-next
   \   00000000                      REQUIRE `?<Segment init: NEAR_I>`
    147          unsigned short i_a = 2344, i_b = 23, i_c;
   \                     i_a:
   \   00000000                      DS8 2
   \   00000002                      REQUIRE `?<Initializer for i_a>`
   \                     i_b:
   \   00000002                      DS8 2
   \   00000004                      REQUIRE `?<Initializer for i_b>`
   \                     i_c:
   \   00000004                      DS8 2
   \   00000006                      REQUIRE `?<Initializer for i_c>`
    148          
    149          static inline unsigned short div10(unsigned short in) { 
    150              return (((unsigned long) in * 52429L)) >> 19;
    151          }
    152          

   \                                 In  segment CODE, align 2, keep-with-next
    153          void int16_div10(void) {
   \                     int16_div10:
   \   00000000   019D               MOVW    R19:R18, R27:R26
    154          	i_c = i_a / 10;
   \   00000002   ....               LDI     R26, LOW(i_a)
   \   00000004   ....               LDI     R27, (i_a) >> 8
   \   00000006   E04A               LDI     R20, 10
   \   00000008   E050               LDI     R21, 0
   \   0000000A                      REQUIRE ?Subroutine4
   \   0000000A                      ;               // Fall through to label ?Subroutine4
    155          }

   \                                 In  segment CODE, align 2, keep-with-next
   \                     ?Subroutine4:
   \   00000000   910D               LD      R16, X+
   \   00000002   911C               LD      R17, X
   \   00000004   9613               ADIW    R27:R26, 3
   \   00000006   ........           CALL    ?US_DIVMOD_L02
   \   0000000A   930D               ST      X+, R16
   \   0000000C   931C               ST      X, R17
   \   0000000E   01D9               MOVW    R27:R26, R19:R18
   \   00000010   9508               RET
    156          

   \                                 In  segment CODE, align 2, keep-with-next
    157          void int16_div10_fast(void) {
   \                     int16_div10_fast:
    158          	i_c = div10(i_a);
   \   00000000   ....               LDI     R30, LOW(i_a)
   \   00000002   ....               LDI     R31, (i_a) >> 8
   \   00000004   8140               LD      R20, Z
   \   00000006   8151               LDD     R21, Z+1
   \   00000008   EC0D               LDI     R16, 205
   \   0000000A   EC1C               LDI     R17, 204
   \   0000000C   2422               CLR     R2
   \   0000000E   9F15               MUL     R17, R21
   \   00000010   0190               MOVW    R19:R18, R1:R0
   \   00000012   9F14               MUL     R17, R20
   \   00000014   2D10               MOV     R17, R0
   \   00000016   0D21               ADD     R18, R1
   \   00000018   1D32               ADC     R19, R2
   \   0000001A   9F05               MUL     R16, R21
   \   0000001C   0D10               ADD     R17, R0
   \   0000001E   1D21               ADC     R18, R1
   \   00000020   1D32               ADC     R19, R2
   \   00000022   9F04               MUL     R16, R20
   \   00000024   0D11               ADD     R17, R1
   \   00000026   1D22               ADC     R18, R2
   \   00000028   1D32               ADC     R19, R2
   \   0000002A   0189               MOVW    R17:R16, R19:R18
   \   0000002C                      REQUIRE ?Subroutine2
   \   0000002C                      ;               // Fall through to label ?Subroutine2
    159          }

   \                                 In  segment CODE, align 2, keep-with-next
   \                     ?Subroutine2:
   \   00000000   9516               LSR     R17
   \   00000002   9507               ROR     R16
   \   00000004   9516               LSR     R17
   \   00000006   9507               ROR     R16
   \   00000008   9516               LSR     R17
   \   0000000A   9507               ROR     R16
   \   0000000C   8304               STD     Z+4, R16
   \   0000000E   8315               STD     Z+5, R17
   \   00000010   9508               RET
    160          

   \                                 In  segment CODE, align 2, keep-with-next
    161          void int16_div16(void) {
   \                     int16_div16:
    162          	i_c = i_a / 16;
   \   00000000   ....               LDI     R30, LOW(i_a)
   \   00000002   ....               LDI     R31, (i_a) >> 8
   \   00000004   8100               LD      R16, Z
   \   00000006   8111               LDD     R17, Z+1
   \   00000008   9516               LSR     R17
   \   0000000A   9507               ROR     R16
   \   0000000C   ....               RJMP    ?Subroutine2
    163          }
    164          

   \                                 In  segment CODE, align 2, keep-with-next
    165          void int16_div(void) {
   \                     int16_div:
   \   00000000   019D               MOVW    R19:R18, R27:R26
    166              i_c = i_a / i_b;
   \   00000002   ....               LDI     R26, LOW((i_a + 2))
   \   00000004   ....               LDI     R27, HIGH((i_a + 2))
   \   00000006   914D               LD      R20, X+
   \   00000008   915C               LD      R21, X
   \   0000000A   9713               SBIW    R27:R26, 3
   \   0000000C   ....               RJMP    ?Subroutine4
    167          } 
    168          

   \                                 In  segment CODE, align 2, keep-with-next
    169          void int16_mult_const(void) {
   \                     int16_mult_const:
    170              i_c = i_a * 23;
   \   00000000   ....               LDI     R30, LOW(i_a)
   \   00000002   ....               LDI     R31, (i_a) >> 8
   \   00000004   8120               LD      R18, Z
   \   00000006   8131               LDD     R19, Z+1
   \   00000008   E107               LDI     R16, 23
   \   0000000A   9F03               MUL     R16, R19
   \   0000000C   2D10               MOV     R17, R0
   \   0000000E   9F02               MUL     R16, R18
   \   00000010   0D11               ADD     R17, R1
   \   00000012   8204               STD     Z+4, R0
   \   00000014   8315               STD     Z+5, R17
    171          } 
   \   00000016   9508               RET
    172          

   \                                 In  segment CODE, align 2, keep-with-next
    173          void int16_mult(void) {
   \                     int16_mult:
    174              i_c = i_a * i_b;
   \   00000000   ....               LDI     R30, LOW(i_a)
   \   00000002   ....               LDI     R31, (i_a) >> 8
   \   00000004   8100               LD      R16, Z
   \   00000006   8111               LDD     R17, Z+1
   \   00000008   8122               LDD     R18, Z+2
   \   0000000A   8133               LDD     R19, Z+3
   \   0000000C   9F30               MUL     R19, R16
   \   0000000E   2D30               MOV     R19, R0
   \   00000010   9F21               MUL     R18, R17
   \   00000012   0D30               ADD     R19, R0
   \   00000014   9F20               MUL     R18, R16
   \   00000016   0D31               ADD     R19, R1
   \   00000018   8204               STD     Z+4, R0
   \   0000001A   8335               STD     Z+5, R19
    175          } 
   \   0000001C   9508               RET
    176          

   \                                 In  segment NEAR_I, align 1, keep-with-next
   \   00000000                      REQUIRE `?<Segment init: NEAR_I>`
    177          unsigned long l_a = 23444, l_b = 23, l_c;
   \                     l_a:
   \   00000000                      DS8 4
   \   00000004                      REQUIRE `?<Initializer for l_a>`
   \                     l_b:
   \   00000004                      DS8 4
   \   00000008                      REQUIRE `?<Initializer for l_b>`
   \                     l_c:
   \   00000008                      DS8 4
   \   0000000C                      REQUIRE `?<Initializer for l_c>`
    178          

   \                                 In  segment CODE, align 2, keep-with-next
    179          void int32_div10(void) {
   \                     int32_div10:
   \   00000000   93BA               ST      -Y, R27
   \   00000002   2FFA               MOV     R31, R26
    180          	l_c = l_a / 10;
   \   00000004   ....               LDI     R26, LOW(l_a)
   \   00000006   ....               LDI     R27, (l_a) >> 8
   \   00000008   E04A               LDI     R20, 10
   \   0000000A   E050               LDI     R21, 0
   \   0000000C   E060               LDI     R22, 0
   \   0000000E   E070               LDI     R23, 0
   \   00000010                      REQUIRE ?Subroutine1
   \   00000010                      ;               // Fall through to label ?Subroutine1
    181          }

   \                                 In  segment CODE, align 2, keep-with-next
   \                     ?Subroutine1:
   \   00000000   910D               LD      R16, X+
   \   00000002   911D               LD      R17, X+
   \   00000004   912D               LD      R18, X+
   \   00000006   913C               LD      R19, X
   \   00000008   9615               ADIW    R27:R26, 5
   \   0000000A   ........           CALL    ?UL_DIVMOD_L03
   \   0000000E   930D               ST      X+, R16
   \   00000010   931D               ST      X+, R17
   \   00000012   932D               ST      X+, R18
   \   00000014   933C               ST      X, R19
   \   00000016   2FAF               MOV     R26, R31
   \   00000018   91B9               LD      R27, Y+
   \   0000001A   9508               RET
    182          

   \                                 In  segment CODE, align 2, keep-with-next
    183          void int32_div16(void) {
   \                     int32_div16:
    184          	l_c = l_a / 16;
   \   00000000   ....               LDI     R30, LOW(l_a)
   \   00000002   ....               LDI     R31, (l_a) >> 8
   \   00000004   E044               LDI     R20, 4
   \   00000006   8100               LD      R16, Z
   \   00000008   8111               LDD     R17, Z+1
   \   0000000A   8122               LDD     R18, Z+2
   \   0000000C   8133               LDD     R19, Z+3
   \   0000000E   ........           CALL    ?UL_SHR_L03
   \   00000012                      REQUIRE ?Subroutine6
   \   00000012                      ;               // Fall through to label ?Subroutine6
    185          }

   \                                 In  segment CODE, align 2, keep-with-next
   \                     ?Subroutine6:
   \   00000000   8700               STD     Z+8, R16
   \   00000002                      REQUIRE ??Subroutine8_0
   \   00000002                      ;               // Fall through to label ??Subroutine8_0

   \                                 In  segment CODE, align 2, keep-with-next
   \                     ??Subroutine8_0:
   \   00000000   8711               STD     Z+9, R17
   \   00000002   8722               STD     Z+10, R18
   \   00000004   8733               STD     Z+11, R19
   \   00000006   9508               RET
    186          

   \                                 In  segment CODE, align 2, keep-with-next
    187          void int32_div(void) {
   \                     int32_div:
   \   00000000   93BA               ST      -Y, R27
   \   00000002   2FFA               MOV     R31, R26
    188              l_c = l_a / l_b;
   \   00000004   ....               LDI     R26, LOW((l_a + 4))
   \   00000006   ....               LDI     R27, HIGH((l_a + 4))
   \   00000008   914D               LD      R20, X+
   \   0000000A   915D               LD      R21, X+
   \   0000000C   916D               LD      R22, X+
   \   0000000E   917C               LD      R23, X
   \   00000010   9717               SBIW    R27:R26, 7
   \   00000012   ....               RJMP    ?Subroutine1
    189          } 
    190          

   \                                 In  segment CODE, align 2, keep-with-next
    191          void int32_mult_const(void) {
   \                     int32_mult_const:
    192              l_c = l_a * 234;
   \   00000000   ....               LDI     R30, LOW(l_a)
   \   00000002   ....               LDI     R31, (l_a) >> 8
   \   00000004   8140               LD      R20, Z
   \   00000006   8151               LDD     R21, Z+1
   \   00000008   8162               LDD     R22, Z+2
   \   0000000A   8173               LDD     R23, Z+3
   \   0000000C   EE0A               LDI     R16, 234
   \   0000000E   2422               CLR     R2
   \   00000010   9F07               MUL     R16, R23
   \   00000012   2D30               MOV     R19, R0
   \   00000014   9F06               MUL     R16, R22
   \   00000016   2D20               MOV     R18, R0
   \   00000018   0D31               ADD     R19, R1
   \   0000001A   9F05               MUL     R16, R21
   \   0000001C   2D10               MOV     R17, R0
   \   0000001E   0D21               ADD     R18, R1
   \   00000020   1D32               ADC     R19, R2
   \   00000022   9F04               MUL     R16, R20
   \   00000024   0D11               ADD     R17, R1
   \   00000026   1D22               ADC     R18, R2
   \   00000028   1D32               ADC     R19, R2
   \   0000002A   8600               STD     Z+8, R0
   \   0000002C   ....               RJMP    ??Subroutine8_0
    193          } 
    194          

   \                                 In  segment CODE, align 2, keep-with-next
    195          void int32_mult(void) {
   \                     int32_mult:
    196              l_c = l_a * l_b;
   \   00000000   ....               LDI     R30, LOW(l_a)
   \   00000002   ....               LDI     R31, (l_a) >> 8
   \   00000004   8100               LD      R16, Z
   \   00000006   8111               LDD     R17, Z+1
   \   00000008   8122               LDD     R18, Z+2
   \   0000000A   8133               LDD     R19, Z+3
   \   0000000C   8144               LDD     R20, Z+4
   \   0000000E   8155               LDD     R21, Z+5
   \   00000010   8166               LDD     R22, Z+6
   \   00000012   8177               LDD     R23, Z+7
   \   00000014   2422               CLR     R2
   \   00000016   9F70               MUL     R23, R16
   \   00000018   2D70               MOV     R23, R0
   \   0000001A   9F61               MUL     R22, R17
   \   0000001C   0D70               ADD     R23, R0
   \   0000001E   9F52               MUL     R21, R18
   \   00000020   0D70               ADD     R23, R0
   \   00000022   9F43               MUL     R20, R19
   \   00000024   0D70               ADD     R23, R0
   \   00000026   9F60               MUL     R22, R16
   \   00000028   2D60               MOV     R22, R0
   \   0000002A   0D71               ADD     R23, R1
   \   0000002C   9F51               MUL     R21, R17
   \   0000002E   0D60               ADD     R22, R0
   \   00000030   1D71               ADC     R23, R1
   \   00000032   9F42               MUL     R20, R18
   \   00000034   0D60               ADD     R22, R0
   \   00000036   1D71               ADC     R23, R1
   \   00000038   9F50               MUL     R21, R16
   \   0000003A   2D50               MOV     R21, R0
   \   0000003C   0D61               ADD     R22, R1
   \   0000003E   1D72               ADC     R23, R2
   \   00000040   9F41               MUL     R20, R17
   \   00000042   0D50               ADD     R21, R0
   \   00000044   1D61               ADC     R22, R1
   \   00000046   1D72               ADC     R23, R2
   \   00000048   9F40               MUL     R20, R16
   \   0000004A   0D51               ADD     R21, R1
   \   0000004C   1D62               ADC     R22, R2
   \   0000004E   1D72               ADC     R23, R2
   \   00000050   8600               STD     Z+8, R0
   \   00000052   8751               STD     Z+9, R21
   \   00000054   8762               STD     Z+10, R22
   \   00000056   8773               STD     Z+11, R23
    197          }
   \   00000058   9508               RET
    198          

   \                                 In  segment CODE, align 2, keep-with-next
    199          void int32_sqrt(void) {
   \                     int32_sqrt:
    200          	l_c = isqrt_c32(23442342);
   \   00000000   EA06               LDI     R16, 166
   \   00000002   EB13               LDI     R17, 179
   \   00000004   E625               LDI     R18, 101
   \   00000006   E031               LDI     R19, 1
   \   00000008   ....               RCALL   isqrt_c32
   \   0000000A   ....               LDI     R30, LOW(l_a)
   \   0000000C   ....               LDI     R31, (l_a) >> 8
   \   0000000E   ....               RJMP    ?Subroutine6
    201          }
    202          

   \                                 In  segment CODE, align 2, keep-with-next
    203          void int32_sqrt_asm(void) {
   \                     int32_sqrt_asm:
    204          #ifndef  __IAR_SYSTEMS_ICC__ 
    205          #ifndef  CODE_VISION    
    206          	l_c = isqrt32(23442342);
    207          #endif
    208          #endif
    209          }
   \   00000000   9508               RET
    210          

   \                                 In  segment CODE, align 2, keep-with-next
    211          void int16_sqrt_asm(void) {
   \                     int16_sqrt_asm:
    212          #ifndef  __IAR_SYSTEMS_ICC__
    213          #ifndef  CODE_VISION       
    214          	i_c = isqrt16(23442);
    215          #endif    
    216          #endif    
    217          }
   \   00000000   9508               RET
    218          

   \                                 In  segment CODE, align 2, keep-with-next
    219          void int16_sqrt(void) {
   \                     int16_sqrt:
    220          	i_c = isqrt_c16(23442);
   \   00000000   E902               LDI     R16, 146
   \   00000002   E51B               LDI     R17, 91
   \   00000004   ....               RCALL   isqrt_c16
   \   00000006   9300....           STS     (i_a + 4), R16
   \   0000000A   9310....           STS     (i_a + 5), R17
    221          }
   \   0000000E   9508               RET
    222          

   \                                 In  segment CODE, align 2, keep-with-next
    223          void int16_sin(void) {
   \                     int16_sin:
    224          	l_c = Sine(0x7FFF/6);
   \   00000000   E505               LDI     R16, 85
   \   00000002   E115               LDI     R17, 21
   \   00000004   E020               LDI     R18, 0
   \   00000006   E030               LDI     R19, 0
   \   00000008   ....               RCALL   Sine
   \   0000000A   2F21               MOV     R18, R17
   \   0000000C   0F22               LSL     R18
   \   0000000E   0B22               SBC     R18, R18
   \   00000010   ....               LDI     R30, LOW(l_a)
   \   00000012   ....               LDI     R31, (l_a) >> 8
   \   00000014   8700               STD     Z+8, R16
   \   00000016   8711               STD     Z+9, R17
   \   00000018   8722               STD     Z+10, R18
   \   0000001A   8723               STD     Z+11, R18
    225          }
   \   0000001C   9508               RET
    226          
    227          

   \                                 In  segment CODE, align 2, keep-with-next
    228          void empty_func(void) {
   \                     empty_func:
    229          }
   \   00000000   9508               RET
    230          
    231          #define MAX_U_STELL 1000L
    232          int16_t v_soll = 100, v_ist = 80, u_stell;
    233          

   \                                 In  segment CODE, align 2, keep-with-next
    234          void int16_pi_regler(void) {
   \                     int16_pi_regler:
    235          	static int32_t u_stell_l = 0;
    236          	static int16_t reg_abw, reg_abw_old;
    237                  static uint8_t kp = 50, ki = 15;
    238                  reg_abw = (v_soll - v_ist);
   \   00000000   ....               LDI     R30, LOW(??u_stell_l)
   \   00000002   ....               LDI     R31, (??u_stell_l) >> 8
   \   00000004   8164               LDD     R22, Z+4
   \   00000006   8175               LDD     R23, Z+5
   \   00000008   8106               LDD     R16, Z+6
   \   0000000A   8117               LDD     R17, Z+7
   \   0000000C   1B60               SUB     R22, R16
   \   0000000E   0B71               SBC     R23, R17
   \   00000010   8762               STD     Z+10, R22
   \   00000012   8773               STD     Z+11, R23
    239          	// PI-Regeler Geschwindigkeitsalgorithmus 
    240          	u_stell_l  += reg_abw*kp + ((reg_abw*ki + 16) >> 5) - reg_abw_old*kp;
   \   00000014   8506               LDD     R16, Z+14
   \   00000016   8524               LDD     R18, Z+12
   \   00000018   8535               LDD     R19, Z+13
   \   0000001A   011B               MOVW    R3:R2, R23:R22
   \   0000001C   1A22               SUB     R2, R18
   \   0000001E   0A33               SBC     R3, R19
   \   00000020   9E30               MUL     R3, R16
   \   00000022   2C30               MOV     R3, R0
   \   00000024   9E20               MUL     R2, R16
   \   00000026   2C20               MOV     R2, R0
   \   00000028   0C31               ADD     R3, R1
   \   0000002A   8507               LDD     R16, Z+15
   \   0000002C   9F07               MUL     R16, R23
   \   0000002E   2D10               MOV     R17, R0
   \   00000030   9F06               MUL     R16, R22
   \   00000032   2D00               MOV     R16, R0
   \   00000034   0D11               ADD     R17, R1
   \   00000036   5F00               SUBI    R16, 240
   \   00000038   4F1F               SBCI    R17, 255
   \   0000003A   E045               LDI     R20, 5
   \   0000003C   ........           CALL    ?SS_SHR_L02
   \   00000040   0D02               ADD     R16, R2
   \   00000042   1D13               ADC     R17, R3
   \   00000044   2F21               MOV     R18, R17
   \   00000046   0F22               LSL     R18
   \   00000048   0B22               SBC     R18, R18
   \   0000004A   8000               LD      R0, Z
   \   0000004C   8011               LDD     R1, Z+1
   \   0000004E   8022               LDD     R2, Z+2
   \   00000050   8033               LDD     R3, Z+3
   \   00000052   0E00               ADD     R0, R16
   \   00000054   1E11               ADC     R1, R17
   \   00000056   1E22               ADC     R2, R18
   \   00000058   1E32               ADC     R3, R18
   \   0000005A   8200               ST      Z, R0
   \   0000005C   8211               STD     Z+1, R1
   \   0000005E   8222               STD     Z+2, R2
   \   00000060   8233               STD     Z+3, R3
    241          	if (u_stell_l > (MAX_U_STELL << 5))
   \   00000062   0180               MOVW    R17:R16, R1:R0
   \   00000064   0191               MOVW    R19:R18, R3:R2
   \   00000066   3001               CPI     R16, 1
   \   00000068   E74D               LDI     R20, 125
   \   0000006A   0714               CPC     R17, R20
   \   0000006C   E040               LDI     R20, 0
   \   0000006E   0724               CPC     R18, R20
   \   00000070   0734               CPC     R19, R20
   \   00000072   F01C               BRLT    ??int16_pi_regler_0
    242                      u_stell_l = MAX_U_STELL << 5;
   \   00000074   E71D               LDI     R17, 125
   \   00000076   8340               ST      Z, R20
   \   00000078   C009               RJMP    ??int16_pi_regler_1
    243                  else if (u_stell_l < -(MAX_U_STELL << 5))
   \                     ??int16_pi_regler_0:
   \   0000007A   3000               CPI     R16, 0
   \   0000007C   4813               SBCI    R17, 131
   \   0000007E   EF4F               LDI     R20, 255
   \   00000080   4F2F               SBCI    R18, 255
   \   00000082   4F3F               SBCI    R19, 255
   \   00000084   F434               BRGE    ??int16_pi_regler_2
    244                      u_stell_l = -(MAX_U_STELL << 5); 
   \   00000086   E000               LDI     R16, 0
   \   00000088   E813               LDI     R17, 131
   \   0000008A   8300               ST      Z, R16
   \                     ??int16_pi_regler_1:
   \   0000008C   8311               STD     Z+1, R17
   \   0000008E   8342               STD     Z+2, R20
   \   00000090   8343               STD     Z+3, R20
    245                  u_stell     = u_stell_l >> 5;
   \                     ??int16_pi_regler_2:
   \   00000092   E045               LDI     R20, 5
   \   00000094   8100               LD      R16, Z
   \   00000096   8111               LDD     R17, Z+1
   \   00000098   8122               LDD     R18, Z+2
   \   0000009A   8133               LDD     R19, Z+3
   \   0000009C   ........           CALL    ?SL_SHR_L03
   \   000000A0   8700               STD     Z+8, R16
   \   000000A2   8711               STD     Z+9, R17
    246          	reg_abw_old = reg_abw; 
   \   000000A4   8764               STD     Z+12, R22
   \   000000A6   8775               STD     Z+13, R23
    247          }
   \   000000A8   9508               RET

   \                                 In  segment NEAR_I, align 1, keep-with-next
   \   00000000                      REQUIRE `?<Segment init: NEAR_I>`
   \                     ??u_stell_l:
   \   00000000                      DS8 4
   \   00000004                      REQUIRE `?<Initializer for u_stell_l>`
   \                     v_soll:
   \   00000004                      DS8 2
   \   00000006                      REQUIRE `?<Initializer for v_soll>`
   \                     v_ist:
   \   00000006                      DS8 2
   \   00000008                      REQUIRE `?<Initializer for v_ist>`
   \                     u_stell:
   \   00000008                      DS8 2
   \   0000000A                      REQUIRE `?<Initializer for u_stell>`
   \   0000000A                      DS8 2
   \   0000000C                      REQUIRE `?<Initializer for reg_abw>`
   \   0000000C                      DS8 2
   \   0000000E                      REQUIRE `?<Initializer for reg_abw_old>`
   \   0000000E                      DS8 1
   \   0000000F                      REQUIRE `?<Initializer for kp>`
   \   0000000F                      DS8 1
   \   00000010                      REQUIRE `?<Initializer for ki>`
    248          
    249          #ifdef  __IAR_SYSTEMS_ICC__
    250          /* This port correponds to the "-W 0x20,-" command line option. */
    251          #define special_output_port (*((__io *) SIM_WIO))
    252          /* This port correponds to the "-R 0x22,-" command line option. */
    253          #define special_input_port  (*((__io *) SIM_RIO))
    254          

   \                                 In  segment ABSOLUTE, at 0x30
    255          __no_init uint8_t WIO @ 0x30;
   \                     WIO:
   \   00000000                      DS8 1
    256          
    257          #else
    258          /* This port correponds to the "-W 0x20,-" command line option. */
    259          #define special_output_port (*((volatile char *) SIM_WIO))
    260          /* This port correponds to the "-R 0x22,-" command line option. */
    261          #define special_input_port  (*((volatile char *) SIM_RIO))
    262          #endif
    263          
    264          static void PrintString(char* str) {
    265          #ifndef  __IAR_SYSTEMS_ICC__
    266          #ifndef  CODE_VISION
    267              const char *c;
    268          	for(c = str; *c; c++)
    269          	  special_output_port = *c;
    270          #endif
    271          #else
    272             const char *c;
    273             for(c = str; *c; c++)
    274          	  WIO = *c; 
    275          #endif
    276            
    277          }
    278          

   \                                 In  segment CODE, align 2, keep-with-next
    279          static void PrintSignedShortFormated(signed short value) {
   \                     PrintSignedShortFormated:
   \   00000000   2C34               MOV     R3, R4
   \   00000002   2F7B               MOV     R23, R27
   \   00000004   2E2A               MOV     R2, R26
   \   00000006   2F68               MOV     R22, R24
   \   00000008                      REQUIRE ?Register_R4_is_cg_reg
   \   00000008   9727               SBIW    R29:R28, 7
   \   0000000A   0198               MOVW    R19:R18, R17:R16
    280              unsigned char sBuf0[7];
    281              unsigned char *sBuf = &sBuf0[6];
   \   0000000C   01DE               MOVW    R27:R26, R29:R28
   \   0000000E   9616               ADIW    R27:R26, 6
    282              unsigned char  minus;
    283              unsigned short valueAlt;   // Alte Wert fr schneller % 10 Berechnung
    284              unsigned short valueCalc;  // muss unsigned weil signed short kann kein 32768
    285              
    286              *sBuf = 0;       // String Terminierung
   \   00000010   E000               LDI     R16, 0
   \   00000012   830E               STD     Y+6, R16
    287              if (value < 0) { // Vorzeichen behandeln
   \   00000014   2311               TST     R17
   \   00000016   F432               BRPL    ??PrintSignedShortFormated_0
    288                minus = '-';
   \   00000018   E28D               LDI     R24, 45
    289                valueCalc = -value;
   \   0000001A   9531               NEG     R19
   \   0000001C   9521               NEG     R18
   \   0000001E   4030               SBCI    R19, 0
   \   00000020   0189               MOVW    R17:R16, R19:R18
   \   00000022   C002               RJMP    ??PrintSignedShortFormated_1
    290              } else {
    291                minus = ' ';
   \                     ??PrintSignedShortFormated_0:
   \   00000024   E280               LDI     R24, 32
    292                valueCalc = value;
   \   00000026   2F02               MOV     R16, R18
    293              }
    294              if (!valueCalc) 
   \                     ??PrintSignedShortFormated_1:
   \   00000028   2F20               MOV     R18, R16
   \   0000002A   2B21               OR      R18, R17
   \   0000002C   F429               BRNE    ??PrintSignedShortFormated_2
    295                *--sBuf = '0';
   \   0000002E   01DE               MOVW    R27:R26, R29:R28
   \   00000030   9615               ADIW    R27:R26, 5
   \   00000032   E300               LDI     R16, 48
   \   00000034   830D               STD     Y+5, R16
   \   00000036   C00F               RJMP    ??PrintSignedShortFormated_3
    296              else while (valueCalc) {
    297                valueAlt = valueCalc;
   \                     ??PrintSignedShortFormated_2:
   \   00000038   2E40               MOV     R4, R16
    298                //  schneller als valueCalc /= 10;
    299                //valueCalc = div10(valueCalc); 
    300                valueCalc /= 10;
   \   0000003A   E04A               LDI     R20, 10
   \   0000003C   E050               LDI     R21, 0
   \   0000003E   ........           CALL    ?US_DIVMOD_L02
    301                
    302                // schneller als  *--sBuf = '0' + (valueAlt % 10)
    303                *--sBuf = '0' + valueAlt - (valueCalc * 10); 
   \   00000042   2D24               MOV     R18, R4
   \   00000044   5D20               SUBI    R18, 208
   \   00000046   2F40               MOV     R20, R16
   \   00000048   E03A               LDI     R19, 10
   \   0000004A   9F43               MUL     R20, R19
   \   0000004C   1920               SUB     R18, R0
   \   0000004E   932E               ST      -X, R18
    304              } 
   \   00000050   2F20               MOV     R18, R16
   \   00000052   2B21               OR      R18, R17
   \   00000054   F789               BRNE    ??PrintSignedShortFormated_2
    305              *--sBuf = minus;                  // Minuszeichen vor die hchstwertigste Stelle setzen
   \                     ??PrintSignedShortFormated_3:
   \   00000056   938E               ST      -X, R24
   \   00000058   018E               MOVW    R17:R16, R29:R28
    306              while (sBuf > sBuf0)              // mit Leerzeichen auffllen (fr Formatierung)  
   \   0000005A   170A               CP      R16, R26
   \   0000005C   071B               CPC     R17, R27
   \   0000005E   F428               BRCC    ??PrintSignedShortFormated_4
    307                *--sBuf = ' ';
   \                     ??PrintSignedShortFormated_5:
   \   00000060   E220               LDI     R18, 32
   \   00000062   932E               ST      -X, R18
   \   00000064   170A               CP      R16, R26
   \   00000066   071B               CPC     R17, R27
   \   00000068   F3D8               BRCS    ??PrintSignedShortFormated_5
    308              PrintString((char*) sBuf0); // String ausgeben
   \                     ??PrintSignedShortFormated_4:
   \   0000006A   01FE               MOVW    R31:R30, R29:R28
   \   0000006C   C001               RJMP    ??PrintSignedShortFormated_6
   \                     ??PrintSignedShortFormated_7:
   \   0000006E   BB00               OUT     0x10, R16
   \                     ??PrintSignedShortFormated_6:
   \   00000070   9101               LD      R16, Z+
   \   00000072   2300               TST     R16
   \   00000074   F7E1               BRNE    ??PrintSignedShortFormated_7
    309          }
   \   00000076   9627               ADIW    R29:R28, 7
   \   00000078   2F86               MOV     R24, R22
   \   0000007A   2DA2               MOV     R26, R2
   \   0000007C   2FB7               MOV     R27, R23
   \   0000007E   2C43               MOV     R4, R3
   \   00000080   9508               RET
   \   00000082                      REQUIRE WIO
    310          
    311          

   \                                 In  segment CODE, align 2, keep-with-next
    312          void print_int16(void) {
   \                     print_int16:
    313          	PrintSignedShortFormated(-32421);
   \   00000000   E50B               LDI     R16, 91
   \   00000002   E811               LDI     R17, 129
   \   00000004   ....               RJMP    PrintSignedShortFormated
    314          }
    315          

   \                                 In  segment CODE, align 2, keep-with-next
    316          static char* myitoa(signed long val) {
   \                     myitoa:
   \   00000000   924A               ST      -Y, R4
   \   00000002   93BA               ST      -Y, R27
   \   00000004   93AA               ST      -Y, R26
   \   00000006   2FF8               MOV     R31, R24
   \   00000008                      REQUIRE ?Register_R4_is_cg_reg
   \   00000008   01A8               MOVW    R21:R20, R17:R16
   \   0000000A   01B9               MOVW    R23:R22, R19:R18
    317          	static char buf[13];
    318          	char *sBuf = &buf[12];
   \   0000000C   ....               LDI     R26, LOW((??buf + 12))
   \   0000000E   ....               LDI     R27, HIGH((??buf + 12))
    319          	unsigned char sign = val < 0;
   \   00000010   2333               TST     R19
   \   00000012   F412               BRPL    ??myitoa_0
   \   00000014   E081               LDI     R24, 1
   \   00000016   C001               RJMP    ??myitoa_1
   \                     ??myitoa_0:
   \   00000018   E080               LDI     R24, 0
    320          	unsigned long value, valueOld;
    321          	*sBuf = 0;
   \                     ??myitoa_1:
   \   0000001A   E000               LDI     R16, 0
   \   0000001C   9300....           STS     (??buf + 12), R16
    322          	if (sign)
   \   00000020   FB80               BST     R24, 0
   \   00000022   F456               BRTC    ??myitoa_2
    323          		value = (unsigned long) -val;
   \   00000024   9550               COM     R21
   \   00000026   9560               COM     R22
   \   00000028   9570               COM     R23
   \   0000002A   9541               NEG     R20
   \   0000002C   4F5F               SBCI    R21, 255
   \   0000002E   4F6F               SBCI    R22, 255
   \   00000030   4F7F               SBCI    R23, 255
   \   00000032   018A               MOVW    R17:R16, R21:R20
   \   00000034   019B               MOVW    R19:R18, R23:R22
   \   00000036   C001               RJMP    ??myitoa_3
    324          	else
    325          		value = (unsigned long) val;
   \                     ??myitoa_2:
   \   00000038   2F04               MOV     R16, R20
    326          	do {
    327          		valueOld = value;
   \                     ??myitoa_3:
   \   0000003A   2E40               MOV     R4, R16
    328          		value /= 10;
   \   0000003C   E04A               LDI     R20, 10
   \   0000003E   E050               LDI     R21, 0
   \   00000040   E060               LDI     R22, 0
   \   00000042   E070               LDI     R23, 0
   \   00000044   ........           CALL    ?UL_DIVMOD_L03
    329          		*--sBuf = '0' + valueOld - (value * 10); // schneller als % 10
   \   00000048   2D64               MOV     R22, R4
   \   0000004A   5D60               SUBI    R22, 208
   \   0000004C   2F50               MOV     R21, R16
   \   0000004E   E04A               LDI     R20, 10
   \   00000050   9F54               MUL     R21, R20
   \   00000052   1960               SUB     R22, R0
   \   00000054   936E               ST      -X, R22
    330          	}  while (value);
   \   00000056   2F40               MOV     R20, R16
   \   00000058   2B41               OR      R20, R17
   \   0000005A   2B42               OR      R20, R18
   \   0000005C   2B43               OR      R20, R19
   \   0000005E   F769               BRNE    ??myitoa_3
    331          	if (sign)
   \   00000060   F416               BRTC    ??myitoa_4
    332          		*--sBuf = '-';
   \   00000062   E20D               LDI     R16, 45
   \   00000064   930E               ST      -X, R16
    333          	return sBuf;
   \                     ??myitoa_4:
   \   00000066   018D               MOVW    R17:R16, R27:R26
   \   00000068   2F8F               MOV     R24, R31
   \   0000006A   91A9               LD      R26, Y+
   \   0000006C   91B9               LD      R27, Y+
   \   0000006E   9049               LD      R4, Y+
   \   00000070   9508               RET
    334          }

   \                                 In  segment NEAR_Z, align 1, keep-with-next
   \   00000000                      REQUIRE `?<Segment init: NEAR_Z>`
   \                     ??buf:
   \   00000000                      DS8 13
    335          

   \                                 In  segment CODE, align 2, keep-with-next
    336          static char *myitoa2(int32_t zahl) {
   \                     myitoa2:
   \   00000000   011D               MOVW    R3:R2, R27:R26
   \   00000002   2E19               MOV     R1, R25
   \   00000004   01A8               MOVW    R21:R20, R17:R16
   \   00000006   01B9               MOVW    R23:R22, R19:R18
    337          	static uint32_t subtractors[] = {1000000000,100000000,10000000,1000000,
    338                                               100000,10000,1000,100,10,1};
    339          	static char string[12];
    340          	char *str = string, n;	
   \   00000008   ....               LDI     R26, LOW(??string)
   \   0000000A   ....               LDI     R27, (??string) >> 8
    341          	uint32_t u, *sub = subtractors;  
   \   0000000C   ....               LDI     R30, LOW((??string + 12))
   \   0000000E   ....               LDI     R31, HIGH((??string + 12))
    342              uint8_t i = 10;
   \   00000010   E00A               LDI     R16, 10
   \   00000012   2E00               MOV     R0, R16
    343          	if (zahl < 0) {                 
   \   00000014   2333               TST     R19
   \   00000016   F47A               BRPL    ??myitoa2_0
    344          		*str++ = '-';              
   \   00000018   E20D               LDI     R16, 45
   \   0000001A   9300....           STS     ??string, R16
   \   0000001E   ....               LDI     R26, LOW((??string + 1))
   \   00000020   ....               LDI     R27, HIGH((??string + 1))
    345          		u = (uint32_t) -zahl;
   \   00000022   9550               COM     R21
   \   00000024   9560               COM     R22
   \   00000026   9570               COM     R23
   \   00000028   9541               NEG     R20
   \   0000002A   4F5F               SBCI    R21, 255
   \   0000002C   4F6F               SBCI    R22, 255
   \   0000002E   4F7F               SBCI    R23, 255
   \   00000030   018A               MOVW    R17:R16, R21:R20
   \   00000032   019B               MOVW    R19:R18, R23:R22
   \   00000034   C001               RJMP    ??myitoa2_1
    346          	} else
    347          		u = (uint32_t) zahl;
   \                     ??myitoa2_0:
   \   00000036   2F04               MOV     R16, R20
   \                     ??myitoa2_1:
   \   00000038   8140               LD      R20, Z
   \   0000003A   8151               LDD     R21, Z+1
   \   0000003C   8162               LDD     R22, Z+2
   \   0000003E   8173               LDD     R23, Z+3
   \   00000040   1704               CP      R16, R20
   \   00000042   0715               CPC     R17, R21
   \   00000044   0726               CPC     R18, R22
   \   00000046   0737               CPC     R19, R23
   \   00000048   F438               BRCC    ??myitoa2_2
    348          	// fhrende nullen entfernen 			
    349          	while (i > 1 && u < *sub) {
    350          		if (u >= *sub)
    351          			break;
    352          		i--;
   \   0000004A   940A               DEC     R0
    353          		sub++;
   \   0000004C   9634               ADIW    R31:R30, 4
    354          	}
   \   0000004E   E042               LDI     R20, 2
   \   00000050   1604               CP      R0, R20
   \   00000052   F790               BRCC    ??myitoa2_1
    355          	while (i--) {
   \   00000054   2000               TST     R0
   \   00000056   F0C9               BREQ    ??myitoa2_3
   \                     ??myitoa2_2:
   \   00000058   940A               DEC     R0
    356          		n = '0';
   \   0000005A   E390               LDI     R25, 48
   \   0000005C   8140               LD      R20, Z
   \   0000005E   8151               LDD     R21, Z+1
   \   00000060   8162               LDD     R22, Z+2
   \   00000062   8173               LDD     R23, Z+3
    357          		while (u >= *sub) {
   \   00000064   1704               CP      R16, R20
   \   00000066   0715               CPC     R17, R21
   \   00000068   0726               CPC     R18, R22
   \   0000006A   0737               CPC     R19, R23
   \   0000006C   F050               BRCS    ??myitoa2_4
    358          			n++;
   \                     ??myitoa2_5:
   \   0000006E   9593               INC     R25
    359          			u -= *sub;
   \   00000070   1B04               SUB     R16, R20
   \   00000072   0B15               SBC     R17, R21
   \   00000074   0B26               SBC     R18, R22
   \   00000076   0B37               SBC     R19, R23
   \   00000078   1704               CP      R16, R20
   \   0000007A   0715               CPC     R17, R21
   \   0000007C   0726               CPC     R18, R22
   \   0000007E   0737               CPC     R19, R23
   \   00000080   F7B0               BRCC    ??myitoa2_5
    360          		} 
    361          		*str++ = n;
   \                     ??myitoa2_4:
   \   00000082   939D               ST      X+, R25
    362          		sub++;
   \   00000084   9634               ADIW    R31:R30, 4
   \   00000086   2000               TST     R0
   \   00000088   F739               BRNE    ??myitoa2_2
    363          	}
    364          	*str = 0;
   \                     ??myitoa2_3:
   \   0000008A   E000               LDI     R16, 0
   \   0000008C   930C               ST      X, R16
    365          	return string;
   \   0000008E   ....               LDI     R16, LOW(??string)
   \   00000090   ....               LDI     R17, (??string) >> 8
   \   00000092   2D91               MOV     R25, R1
   \   00000094   01D1               MOVW    R27:R26, R3:R2
   \   00000096   9508               RET
    366          }

   \                                 In  segment NEAR_I, align 1, keep-with-next
   \   00000000                      REQUIRE `?<Segment init: NEAR_I>`
   \                     ??string:
   \   00000000                      DS8 12
   \   0000000C                      REQUIRE `?<Initializer for string>`
   \   0000000C                      DS8 40
   \   00000034                      REQUIRE `?<Initializer for subtractors>`
    367          

   \                                 In  segment CODE, align 2, keep-with-next
    368          void print_myitoa(void) {
   \                     print_myitoa:
    369             PrintString(myitoa(-32421)); 
   \   00000000   E50B               LDI     R16, 91
   \   00000002   E811               LDI     R17, 129
   \   00000004   EF2F               LDI     R18, 255
   \   00000006   EF3F               LDI     R19, 255
   \   00000008   ....               RCALL   myitoa
   \   0000000A                      REQUIRE ?Subroutine5
   \   0000000A                      REQUIRE WIO
   \   0000000A                      ;               // Fall through to label ?Subroutine5
    370          
    371          }

   \                                 In  segment CODE, align 2, keep-with-next
   \                     ?Subroutine5:
   \   00000000   C002               RJMP    ??Subroutine5_0
   \                     ??Subroutine5_1:
   \   00000002   018F               MOVW    R17:R16, R31:R30
   \   00000004   BB20               OUT     0x10, R18
   \                     ??Subroutine5_0:
   \   00000006   01F8               MOVW    R31:R30, R17:R16
   \   00000008   9121               LD      R18, Z+
   \   0000000A   2322               TST     R18
   \   0000000C   F7D1               BRNE    ??Subroutine5_1
   \   0000000E   9508               RET
    372          

   \                                 In  segment CODE, align 2, keep-with-next
    373          void print_myitoa2(void) {
   \                     print_myitoa2:
    374             PrintString(myitoa2(-32421));
   \   00000000   E50B               LDI     R16, 91
   \   00000002   E811               LDI     R17, 129
   \   00000004   EF2F               LDI     R18, 255
   \   00000006   EF3F               LDI     R19, 255
   \   00000008   ....               RCALL   myitoa2
   \   0000000A   ....               RJMP    ?Subroutine5
   \   0000000C                      REQUIRE WIO
    375          
    376          }
    377          

   \                                 In  segment CODE, align 2, keep-with-next
    378          void print_int16_itoa(void) {
   \                     print_int16_itoa:
   \   00000000   9727               SBIW    R29:R28, 7
    379          	char sbuf[7];
    380          #ifndef  __IAR_SYSTEMS_ICC__
    381          #ifndef  CODE_VISION  
    382          	itoa(-32421, sbuf, 10);
    383          #endif
    384          #endif
    385          	PrintString(sbuf);
   \   00000002   01FE               MOVW    R31:R30, R29:R28
   \   00000004   C001               RJMP    ??print_int16_itoa_0
   \                     ??print_int16_itoa_1:
   \   00000006   BB00               OUT     0x10, R16
   \                     ??print_int16_itoa_0:
   \   00000008   9101               LD      R16, Z+
   \   0000000A   2300               TST     R16
   \   0000000C   F7E1               BRNE    ??print_int16_itoa_1
    386          }
   \   0000000E   9627               ADIW    R29:R28, 7
   \   00000010   9508               RET
   \   00000012                      REQUIRE WIO
    387          

   \                                 In  segment NEAR_Z, align 1, keep-with-next
   \   00000000                      REQUIRE `?<Segment init: NEAR_Z>`
    388          uint16_t buffer[10][10];
   \                     buffer:
   \   00000000                      DS8 200
    389          

   \                                 In  segment CODE, align 2, keep-with-next
    390          void testData() {
   \                     testData:
   \   00000000   01AD               MOVW    R21:R20, R27:R26
   \   00000002   019C               MOVW    R19:R18, R25:R24
    391            	uint8_t x, y;
    392            	for (x = 0; x < 10; x++) {
   \   00000004   E000               LDI     R16, 0
   \   00000006   ....               LDI     R24, LOW(buffer)
   \   00000008   ....               LDI     R25, (buffer) >> 8
    393                      for (y = 0; y < 10; y++) {
   \                     ??testData_0:
   \   0000000A   01FC               MOVW    R31:R30, R25:R24
   \   0000000C   2FA0               MOV     R26, R16
   \   0000000E   E0B0               LDI     R27, 0
   \   00000010   E01A               LDI     R17, 10
    394                          buffer[x][y] = x + y*10;
   \                     ??testData_1:
   \   00000012   93A1               ST      Z+, R26
   \   00000014   93B1               ST      Z+, R27
    395                      }
   \   00000016   961A               ADIW    R27:R26, 10
   \   00000018   951A               DEC     R17
   \   0000001A   F7D9               BRNE    ??testData_1
    396            	}	
   \   0000001C   9503               INC     R16
   \   0000001E   9644               ADIW    R25:R24, 20
   \   00000020   300A               CPI     R16, 10
   \   00000022   F398               BRCS    ??testData_0
    397          }
   \   00000024   01C9               MOVW    R25:R24, R19:R18
   \   00000026   01DA               MOVW    R27:R26, R21:R20
   \   00000028   9508               RET
    398          

   \                                 In  segment CODE, align 2, keep-with-next
    399          void test_loop1() {
   \                     test_loop1:
   \   00000000   2F19               MOV     R17, R25
   \   00000002   2F48               MOV     R20, R24
    400            	uint8_t x, y;
    401            	for (x = 0; x < 10; x++) {
   \   00000004   ....               LDI     R24, LOW(buffer)
   \   00000006   ....               LDI     R25, (buffer) >> 8
   \   00000008   E03A               LDI     R19, 10
    402                      for (y = 0; y < 10; y++) {
   \                     ??test_loop1_0:
   \   0000000A   01FC               MOVW    R31:R30, R25:R24
   \   0000000C   E02A               LDI     R18, 10
   \   0000000E   E000               LDI     R16, 0
    403                          buffer[x][y] = 0;
   \                     ??test_loop1_1:
   \   00000010   9301               ST      Z+, R16
   \   00000012   9301               ST      Z+, R16
    404                      }
   \   00000014   952A               DEC     R18
   \   00000016   F7E1               BRNE    ??test_loop1_1
    405            	}	
   \   00000018   9644               ADIW    R25:R24, 20
   \   0000001A   953A               DEC     R19
   \   0000001C   F7B1               BRNE    ??test_loop1_0
    406          }
   \   0000001E   2F84               MOV     R24, R20
   \   00000020   2F91               MOV     R25, R17
   \   00000022   9508               RET
    407          

   \                                 In  segment CODE, align 2, keep-with-next
    408          void test_loop2() {
   \                     test_loop2:
    409            	uint16_t *ptr = (uint16_t *) buffer; 
   \   00000000                      REQUIRE ?Subroutine3
   \   00000000                      ;               // Fall through to label ?Subroutine3

   \                                 In  segment CODE, align 2, keep-with-next
   \                     ?Subroutine3:
   \   00000000   ....               LDI     R30, LOW(buffer)
   \   00000002   ....               LDI     R31, (buffer) >> 8
    410            	uint8_t x;
    411            	for (x = 0; x < 10*10; x++) {
   \   00000004   E624               LDI     R18, 100
   \   00000006   E000               LDI     R16, 0
    412               	    *ptr++ = 0;
   \                     ??Subroutine3_0:
   \   00000008   9301               ST      Z+, R16
   \   0000000A   9301               ST      Z+, R16
   \   0000000C   952A               DEC     R18
   \   0000000E   F7E1               BRNE    ??Subroutine3_0
    413            	}
    414          }
   \   00000010   9508               RET
    415          

   \                                 In  segment CODE, align 2, keep-with-next
    416          void test_loop3() {
   \                     test_loop3:
    417            	uint16_t *ptr = (uint16_t *) buffer; 
   \   00000000   ....               RJMP    ?Subroutine3
    418            	uint8_t x = 10*10;
    419            	while (x--) {
    420               	    *ptr++ = 0;
    421            	}
    422          }
    423          

   \                                 In  segment CODE, align 2, keep-with-next
    424          void test_loop4() {
   \                     test_loop4:
    425            	uint8_t x = 10;
    426            	uint16_t *ptr = (uint16_t *) buffer; 
   \   00000000   ....               LDI     R30, LOW(buffer)
   \   00000002   ....               LDI     R31, (buffer) >> 8
   \   00000004   E02A               LDI     R18, 10
   \   00000006   E000               LDI     R16, 0
    427             	do {
    428             		*ptr++ = 0;
   \                     ??test_loop4_0:
   \   00000008   9301               ST      Z+, R16
   \   0000000A   9301               ST      Z+, R16
    429             		*ptr++ = 0;
   \   0000000C   9301               ST      Z+, R16
   \   0000000E   9301               ST      Z+, R16
    430             		*ptr++ = 0; 
   \   00000010   9301               ST      Z+, R16
   \   00000012   9301               ST      Z+, R16
    431             		*ptr++ = 0; 
   \   00000014   9301               ST      Z+, R16
   \   00000016   9301               ST      Z+, R16
    432             		*ptr++ = 0; 
   \   00000018   9301               ST      Z+, R16
   \   0000001A   9301               ST      Z+, R16
    433             		*ptr++ = 0; 
   \   0000001C   9301               ST      Z+, R16
   \   0000001E   9301               ST      Z+, R16
    434             		*ptr++ = 0; 
   \   00000020   9301               ST      Z+, R16
   \   00000022   9301               ST      Z+, R16
    435             		*ptr++ = 0; 
   \   00000024   9301               ST      Z+, R16
   \   00000026   9301               ST      Z+, R16
    436             		*ptr++ = 0; 
   \   00000028   9301               ST      Z+, R16
   \   0000002A   9301               ST      Z+, R16
    437             		*ptr++ = 0; 		
   \   0000002C   9301               ST      Z+, R16
   \   0000002E   9301               ST      Z+, R16
    438             	} while (--x);
   \   00000030   952A               DEC     R18
   \   00000032   F751               BRNE    ??test_loop4_0
    439          }
   \   00000034   9508               RET
    440          
    441          /*
    442          static void PrintSignedShort(signed short value) {
    443              unsigned char sBuf0[7];
    444              unsigned char *sBuf = &sBuf0[6];
    445              unsigned char x = 6, minus;
    446              unsigned short valueAlt;   // Alte Wert fr schneller % 10 Berechnung
    447              unsigned short valueCalc;  // muss unsigned weil signed short kann kein 32768
    448              
    449              *sBuf = 0;
    450              if (value < 0) { // Vorzeichen behandeln
    451                minus = 1;
    452                valueCalc = -value;
    453              } else {
    454                minus = 0;
    455                valueCalc = value;
    456              }
    457              do {
    458                valueAlt = valueCalc;
    459                valueCalc = div10(valueCalc); //  schneller als valueCalc /= 10;
    460                *--sBuf = '0' + valueAlt - (valueCalc * 10); // schneller als  *--sBuf = '0' + (valueAlt % 10)
    461              } while (valueCalc);
    462              if (minus)
    463          		*--sBuf = '-';                // Minuszeichen vor die hchstwertigste Stelle setzen
    464              PrintString((const char*) sBuf0); // String ausgeben
    465          }
    466          */
    467          
    468          // typedef void (*test_func_t)(void);
    469          #define TIME_FUNC(func) print_execute_time(func, (char*) "" # func) 
    470          

   \                                 In  segment CODE, align 2, keep-with-next
    471          unsigned short print_execute_time(test_func_t function, char* name) {
   \                     print_execute_time:
   \   00000000   939A               ST      -Y, R25
   \   00000002   938A               ST      -Y, R24
   \   00000004   01C9               MOVW    R25:R24, R19:R18
    472          	// Timer anhalten und initialisieren
    473          	TCCR1A = 0;
   \   00000006   E020               LDI     R18, 0
   \   00000008   BD2F               OUT     0x2F, R18
    474          	TCCR1B = 0;
   \   0000000A   BD2E               OUT     0x2E, R18
    475          	TCNT1  = 0;
   \   0000000C   BD2D               OUT     0x2D, R18
   \   0000000E   BD2C               OUT     0x2C, R18
    476          	TIFR   = 0;
   \   00000010   BF26               OUT     0x36, R18
    477          	TCCR1B = 1; // prescaler 1 Timer starten
   \   00000012   E021               LDI     R18, 1
   \   00000014   BD2E               OUT     0x2E, R18
    478          	function();
   \   00000016   01F8               MOVW    R31:R30, R17:R16
   \   00000018   9509               ICALL
    479          	TCCR1B = 0; // Timer stoppen
   \   0000001A   E000               LDI     R16, 0
   \   0000001C   BD0E               OUT     0x2E, R16
    480          	PrintSignedShortFormated(TCNT1);
   \   0000001E   B50C               IN      R16, 0x2C
   \   00000020   B51D               IN      R17, 0x2D
   \   00000022   ....               RCALL   PrintSignedShortFormated
    481          	PrintString(" : ");
   \   00000024   ....               LDI     R30, LOW(`?<Constant " : ">`)
   \   00000026   ....               LDI     R31, (`?<Constant " : ">`) >> 8
   \   00000028   C001               RJMP    ??print_execute_time_0
   \                     ??print_execute_time_1:
   \   0000002A   BB00               OUT     0x10, R16
   \                     ??print_execute_time_0:
   \   0000002C   9101               LD      R16, Z+
   \   0000002E   2300               TST     R16
   \   00000030   F7E1               BRNE    ??print_execute_time_1
    482          	PrintString(name);
   \   00000032   01FC               MOVW    R31:R30, R25:R24
   \   00000034   C001               RJMP    ??print_execute_time_2
   \                     ??print_execute_time_3:
   \   00000036   BB00               OUT     0x10, R16
   \                     ??print_execute_time_2:
   \   00000038   9101               LD      R16, Z+
   \   0000003A   2300               TST     R16
   \   0000003C   F7E1               BRNE    ??print_execute_time_3
    483          	if (TIFR & (1 << 2))
   \   0000003E   B706               IN      R16, 0x36
   \   00000040   FF02               SBRS    R16, 2
   \   00000042   C007               RJMP    ??print_execute_time_4
    484          		PrintString(" (Timeroverflow!)");	
   \   00000044   ....               LDI     R30, LOW((`?<Constant " : ">` + 4))
   \   00000046   ....               LDI     R31, HIGH((`?<Constant " : ">` + 4))
   \   00000048   C001               RJMP    ??print_execute_time_5
   \                     ??print_execute_time_6:
   \   0000004A   BB00               OUT     0x10, R16
   \                     ??print_execute_time_5:
   \   0000004C   9101               LD      R16, Z+
   \   0000004E   2300               TST     R16
   \   00000050   F7E1               BRNE    ??print_execute_time_6
    485          	PrintString("\n");
   \                     ??print_execute_time_4:
   \   00000052   ....               LDI     R30, LOW((`?<Constant " : ">` + 22))
   \   00000054   ....               LDI     R31, HIGH((`?<Constant " : ">` + 22))
   \   00000056   C001               RJMP    ??print_execute_time_7
   \                     ??print_execute_time_8:
   \   00000058   BB00               OUT     0x10, R16
   \                     ??print_execute_time_7:
   \   0000005A   9101               LD      R16, Z+
   \   0000005C   2300               TST     R16
   \   0000005E   F7E1               BRNE    ??print_execute_time_8
    486          	return TCNT1;
   \   00000060   B50C               IN      R16, 0x2C
   \   00000062   B51D               IN      R17, 0x2D
   \   00000064   9189               LD      R24, Y+
   \   00000066   9199               LD      R25, Y+
   \   00000068   9508               RET
   \   0000006A                      REQUIRE _A_TCCR1A
   \   0000006A                      REQUIRE _A_TCCR1B
   \   0000006A                      REQUIRE _A_TCNT1
   \   0000006A                      REQUIRE _A_TIFR
   \   0000006A                      REQUIRE WIO
    487          }
    488          

   \                                 In  segment CODE, align 2, keep-with-next
    489          static void assert_(uint8_t compareTrue, uint16_t line) {
   \                     assert_:
    490              if (!compareTrue) {
   \   00000000   2300               TST     R16
   \   00000002   F481               BRNE    ??assert__0
    491                PrintString("Assert Error in Line ");
   \   00000004   ....               LDI     R30, LOW((`?<Constant " : ">` + 24))
   \   00000006   ....               LDI     R31, HIGH((`?<Constant " : ">` + 24))
   \   00000008   C001               RJMP    ??assert__1
   \                     ??assert__2:
   \   0000000A   BB00               OUT     0x10, R16
   \                     ??assert__1:
   \   0000000C   9101               LD      R16, Z+
   \   0000000E   2300               TST     R16
   \   00000010   F7E1               BRNE    ??assert__2
    492                PrintSignedShortFormated(line);
   \   00000012   0189               MOVW    R17:R16, R19:R18
   \   00000014   ....               RCALL   PrintSignedShortFormated
    493                PrintString("\n");
   \   00000016   ....               LDI     R30, LOW((`?<Constant " : ">` + 22))
   \   00000018   ....               LDI     R31, HIGH((`?<Constant " : ">` + 22))
   \   0000001A   C001               RJMP    ??assert__3
   \                     ??assert__4:
   \   0000001C   BB00               OUT     0x10, R16
   \                     ??assert__3:
   \   0000001E   9101               LD      R16, Z+
   \   00000020   2300               TST     R16
   \   00000022   F7E1               BRNE    ??assert__4
    494              }
    495          }
   \                     ??assert__0:
   \   00000024   9508               RET
   \   00000026                      REQUIRE WIO
    496          
    497          extern void chg_registers();
    498          

   \                                 In  segment CODE, align 2, keep-with-next
    499          void main() {
   \                     main:
    500          	PrintString("\nZeitmessung Rechenoperationen\n");
   \   00000000   ....               LDI     R30, LOW(`?<Constant "\\nZeitmessung Rechenop...">`)
   \   00000002   ....               LDI     R31, (`?<Constant "\\nZeitmessung Rechenop...">`) >> 8
   \   00000004   C001               RJMP    ??main_0
   \                     ??main_1:
   \   00000006   BB00               OUT     0x10, R16
   \                     ??main_0:
   \   00000008   9101               LD      R16, Z+
   \   0000000A   2300               TST     R16
   \   0000000C   F7E1               BRNE    ??main_1
    501          	PrintString("\n Takte   Funktionsname\n");
   \   0000000E   ....               LDI     R30, LOW((`?<Constant "\\nZeitmessung Rechenop...">` + 32))
   \   00000010   ....               LDI     R31, HIGH((`?<Constant "\\nZeitmessung Rechenop...">` + 32))
   \   00000012   C001               RJMP    ??main_2
   \                     ??main_3:
   \   00000014   BB00               OUT     0x10, R16
   \                     ??main_2:
   \   00000016   9101               LD      R16, Z+
   \   00000018   2300               TST     R16
   \   0000001A   F7E1               BRNE    ??main_3
    502          	TIME_FUNC(float_convert_to_float);
   \   0000001C   ....               LDI     R18, LOW((`?<Constant "\\nZeitmessung Rechenop...">` + 57))
   \   0000001E   ....               LDI     R19, HIGH((`?<Constant "\\nZeitmessung Rechenop...">` + 57))
   \   00000020   ....               LDI     R16, LOW(float_convert_to_float/2)
   \   00000022   ....               LDI     R17, (float_convert_to_float/2) >> 8
   \   00000024   ....               RCALL   print_execute_time
    503          	TIME_FUNC(float_convert_to_int);
   \   00000026   ....               LDI     R18, LOW((`?<Constant "\\nZeitmessung Rechenop...">` + 80))
   \   00000028   ....               LDI     R19, HIGH((`?<Constant "\\nZeitmessung Rechenop...">` + 80))
   \   0000002A   ....               LDI     R16, LOW(float_convert_to_int/2)
   \   0000002C   ....               LDI     R17, (float_convert_to_int/2) >> 8
   \   0000002E   ....               RCALL   print_execute_time
    504          	TIME_FUNC(float_add_const);
   \   00000030   ....               LDI     R18, LOW((`?<Constant "\\nZeitmessung Rechenop...">` + 101))
   \   00000032   ....               LDI     R19, HIGH((`?<Constant "\\nZeitmessung Rechenop...">` + 101))
   \   00000034   ....               LDI     R16, LOW(float_add_const/2)
   \   00000036   ....               LDI     R17, (float_add_const/2) >> 8
   \   00000038   ....               RCALL   print_execute_time
    505          	TIME_FUNC(float_add);
   \   0000003A   ....               LDI     R18, LOW((`?<Constant "\\nZeitmessung Rechenop...">` + 117))
   \   0000003C   ....               LDI     R19, HIGH((`?<Constant "\\nZeitmessung Rechenop...">` + 117))
   \   0000003E   ....               LDI     R16, LOW(float_add/2)
   \   00000040   ....               LDI     R17, (float_add/2) >> 8
   \   00000042   ....               RCALL   print_execute_time
    506          	TIME_FUNC(float_mul_const);
   \   00000044   ....               LDI     R18, LOW((`?<Constant "\\nZeitmessung Rechenop...">` + 127))
   \   00000046   ....               LDI     R19, HIGH((`?<Constant "\\nZeitmessung Rechenop...">` + 127))
   \   00000048   ....               LDI     R16, LOW(float_mul_const/2)
   \   0000004A   ....               LDI     R17, (float_mul_const/2) >> 8
   \   0000004C   ....               RCALL   print_execute_time
    507          	TIME_FUNC(float_mul);
   \   0000004E   ....               LDI     R18, LOW((`?<Constant "\\nZeitmessung Rechenop...">` + 143))
   \   00000050   ....               LDI     R19, HIGH((`?<Constant "\\nZeitmessung Rechenop...">` + 143))
   \   00000052   ....               LDI     R16, LOW(float_mul/2)
   \   00000054   ....               LDI     R17, (float_mul/2) >> 8
   \   00000056   ....               RCALL   print_execute_time
    508          	TIME_FUNC(float_div_const);
   \   00000058   ....               LDI     R18, LOW((`?<Constant "\\nZeitmessung Rechenop...">` + 153))
   \   0000005A   ....               LDI     R19, HIGH((`?<Constant "\\nZeitmessung Rechenop...">` + 153))
   \   0000005C   ....               LDI     R16, LOW(float_div_const/2)
   \   0000005E   ....               LDI     R17, (float_div_const/2) >> 8
   \   00000060   ....               RCALL   print_execute_time
    509          	TIME_FUNC(float_div);
   \   00000062   ....               LDI     R18, LOW((`?<Constant "\\nZeitmessung Rechenop...">` + 169))
   \   00000064   ....               LDI     R19, HIGH((`?<Constant "\\nZeitmessung Rechenop...">` + 169))
   \   00000066   ....               LDI     R16, LOW(float_div/2)
   \   00000068   ....               LDI     R17, (float_div/2) >> 8
   \   0000006A   ....               RCALL   print_execute_time
    510          	TIME_FUNC(int16_div10);
   \   0000006C   ....               LDI     R18, LOW((`?<Constant "\\nZeitmessung Rechenop...">` + 179))
   \   0000006E   ....               LDI     R19, HIGH((`?<Constant "\\nZeitmessung Rechenop...">` + 179))
   \   00000070   ....               LDI     R16, LOW(int16_div10/2)
   \   00000072   ....               LDI     R17, (int16_div10/2) >> 8
   \   00000074   ....               RCALL   print_execute_time
    511              //assert_(i_c == 234, __LINE__);
    512          	TIME_FUNC(int16_div10_fast);
   \   00000076   ....               LDI     R18, LOW((`?<Constant "\\nZeitmessung Rechenop...">` + 191))
   \   00000078   ....               LDI     R19, HIGH((`?<Constant "\\nZeitmessung Rechenop...">` + 191))
   \   0000007A   ....               LDI     R16, LOW(int16_div10_fast/2)
   \   0000007C   ....               LDI     R17, (int16_div10_fast/2) >> 8
   \   0000007E   ....               RCALL   print_execute_time
    513              //assert_(i_c == 234, __LINE__);
    514          	TIME_FUNC(int16_div16);
   \   00000080   ....               LDI     R18, LOW((`?<Constant "\\nZeitmessung Rechenop...">` + 208))
   \   00000082   ....               LDI     R19, HIGH((`?<Constant "\\nZeitmessung Rechenop...">` + 208))
   \   00000084   ....               LDI     R16, LOW(int16_div16/2)
   \   00000086   ....               LDI     R17, (int16_div16/2) >> 8
   \   00000088   ....               RCALL   print_execute_time
    515          	TIME_FUNC(int16_div);
   \   0000008A   ....               LDI     R18, LOW((`?<Constant "\\nZeitmessung Rechenop...">` + 220))
   \   0000008C   ....               LDI     R19, HIGH((`?<Constant "\\nZeitmessung Rechenop...">` + 220))
   \   0000008E   ....               LDI     R16, LOW(int16_div/2)
   \   00000090   ....               LDI     R17, (int16_div/2) >> 8
   \   00000092   ....               RCALL   print_execute_time
    516          	TIME_FUNC(int16_mult_const);
   \   00000094   ....               LDI     R18, LOW((`?<Constant "\\nZeitmessung Rechenop...">` + 230))
   \   00000096   ....               LDI     R19, HIGH((`?<Constant "\\nZeitmessung Rechenop...">` + 230))
   \   00000098   ....               LDI     R16, LOW(int16_mult_const/2)
   \   0000009A   ....               LDI     R17, (int16_mult_const/2) >> 8
   \   0000009C   ....               RCALL   print_execute_time
    517              //assert_(i_c == 53912, __LINE__);
    518          	TIME_FUNC(int16_mult);
   \   0000009E   ....               LDI     R18, LOW((`?<Constant "\\nZeitmessung Rechenop...">` + 247))
   \   000000A0   ....               LDI     R19, HIGH((`?<Constant "\\nZeitmessung Rechenop...">` + 247))
   \   000000A2   ....               LDI     R16, LOW(int16_mult/2)
   \   000000A4   ....               LDI     R17, (int16_mult/2) >> 8
   \   000000A6   ....               RCALL   print_execute_time
    519              //assert_(i_c == 53912, __LINE__);	
    520          	TIME_FUNC(int32_div10);
   \   000000A8   ....               LDI     R18, LOW((`?<Constant "\\nZeitmessung Rechenop...">` + 258))
   \   000000AA   ....               LDI     R19, HIGH((`?<Constant "\\nZeitmessung Rechenop...">` + 258))
   \   000000AC   ....               LDI     R16, LOW(int32_div10/2)
   \   000000AE   ....               LDI     R17, (int32_div10/2) >> 8
   \   000000B0   ....               RCALL   print_execute_time
    521              //assert_(l_c == 2344, __LINE__);
    522          	TIME_FUNC(int32_div16);
   \   000000B2   ....               LDI     R18, LOW((`?<Constant "\\nZeitmessung Rechenop...">` + 270))
   \   000000B4   ....               LDI     R19, HIGH((`?<Constant "\\nZeitmessung Rechenop...">` + 270))
   \   000000B6   ....               LDI     R16, LOW(int32_div16/2)
   \   000000B8   ....               LDI     R17, (int32_div16/2) >> 8
   \   000000BA   ....               RCALL   print_execute_time
    523          	TIME_FUNC(int32_div);
   \   000000BC   ....               LDI     R18, LOW((`?<Constant "\\nZeitmessung Rechenop...">` + 282))
   \   000000BE   ....               LDI     R19, HIGH((`?<Constant "\\nZeitmessung Rechenop...">` + 282))
   \   000000C0   ....               LDI     R16, LOW(int32_div/2)
   \   000000C2   ....               LDI     R17, (int32_div/2) >> 8
   \   000000C4   ....               RCALL   print_execute_time
    524          	TIME_FUNC(int32_mult_const);
   \   000000C6   ....               LDI     R18, LOW((`?<Constant "\\nZeitmessung Rechenop...">` + 292))
   \   000000C8   ....               LDI     R19, HIGH((`?<Constant "\\nZeitmessung Rechenop...">` + 292))
   \   000000CA   ....               LDI     R16, LOW(int32_mult_const/2)
   \   000000CC   ....               LDI     R17, (int32_mult_const/2) >> 8
   \   000000CE   ....               RCALL   print_execute_time
    525          	TIME_FUNC(float_sqrt);
   \   000000D0   ....               LDI     R18, LOW((`?<Constant "\\nZeitmessung Rechenop...">` + 309))
   \   000000D2   ....               LDI     R19, HIGH((`?<Constant "\\nZeitmessung Rechenop...">` + 309))
   \   000000D4   ....               LDI     R16, LOW(float_sqrt/2)
   \   000000D6   ....               LDI     R17, (float_sqrt/2) >> 8
   \   000000D8   ....               RCALL   print_execute_time
    526          	TIME_FUNC(int16_sqrt);
   \   000000DA   ....               LDI     R18, LOW((`?<Constant "\\nZeitmessung Rechenop...">` + 320))
   \   000000DC   ....               LDI     R19, HIGH((`?<Constant "\\nZeitmessung Rechenop...">` + 320))
   \   000000DE   ....               LDI     R16, LOW(int16_sqrt/2)
   \   000000E0   ....               LDI     R17, (int16_sqrt/2) >> 8
   \   000000E2   ....               RCALL   print_execute_time
    527              //assert_(i_c == 153, __LINE__);
    528          	TIME_FUNC(int16_sqrt_asm);
   \   000000E4   ....               LDI     R18, LOW((`?<Constant "\\nZeitmessung Rechenop...">` + 331))
   \   000000E6   ....               LDI     R19, HIGH((`?<Constant "\\nZeitmessung Rechenop...">` + 331))
   \   000000E8   ....               LDI     R16, LOW(int16_sqrt_asm/2)
   \   000000EA   ....               LDI     R17, (int16_sqrt_asm/2) >> 8
   \   000000EC   ....               RCALL   print_execute_time
    529              //assert_(i_c == 153, __LINE__);	
    530          	TIME_FUNC(int32_sqrt);
   \   000000EE   ....               LDI     R18, LOW((`?<Constant "\\nZeitmessung Rechenop...">` + 346))
   \   000000F0   ....               LDI     R19, HIGH((`?<Constant "\\nZeitmessung Rechenop...">` + 346))
   \   000000F2   ....               LDI     R16, LOW(int32_sqrt/2)
   \   000000F4   ....               LDI     R17, (int32_sqrt/2) >> 8
   \   000000F6   ....               RCALL   print_execute_time
    531              //assert_(l_c == 4841, __LINE__);
    532          	TIME_FUNC(int32_sqrt_asm);
   \   000000F8   ....               LDI     R18, LOW((`?<Constant "\\nZeitmessung Rechenop...">` + 357))
   \   000000FA   ....               LDI     R19, HIGH((`?<Constant "\\nZeitmessung Rechenop...">` + 357))
   \   000000FC   ....               LDI     R16, LOW(int32_sqrt_asm/2)
   \   000000FE   ....               LDI     R17, (int32_sqrt_asm/2) >> 8
   \   00000100   ....               RCALL   print_execute_time
    533              //assert_(l_c == 4841, __LINE__);
    534          	TIME_FUNC(float_sin);
   \   00000102   ....               LDI     R18, LOW((`?<Constant "\\nZeitmessung Rechenop...">` + 372))
   \   00000104   ....               LDI     R19, HIGH((`?<Constant "\\nZeitmessung Rechenop...">` + 372))
   \   00000106   ....               LDI     R16, LOW(float_sin/2)
   \   00000108   ....               LDI     R17, (float_sin/2) >> 8
   \   0000010A   ....               RCALL   print_execute_time
    535          	TIME_FUNC(int16_sin);
   \   0000010C   ....               LDI     R18, LOW((`?<Constant "\\nZeitmessung Rechenop...">` + 382))
   \   0000010E   ....               LDI     R19, HIGH((`?<Constant "\\nZeitmessung Rechenop...">` + 382))
   \   00000110   ....               LDI     R16, LOW(int16_sin/2)
   \   00000112   ....               LDI     R17, (int16_sin/2) >> 8
   \   00000114   ....               RCALL   print_execute_time
    536              testData();
   \   00000116   ....               RCALL   testData
    537          	TIME_FUNC(test_loop1);
   \   00000118   ....               LDI     R18, LOW((`?<Constant "\\nZeitmessung Rechenop...">` + 392))
   \   0000011A   ....               LDI     R19, HIGH((`?<Constant "\\nZeitmessung Rechenop...">` + 392))
   \   0000011C   ....               LDI     R16, LOW(test_loop1/2)
   \   0000011E   ....               LDI     R17, (test_loop1/2) >> 8
   \   00000120   ....               RCALL   print_execute_time
    538              //assert_(buffer[9][9] == 0, __LINE__);
    539          	testData();
   \   00000122   ....               RCALL   testData
    540              TIME_FUNC(test_loop2);
   \   00000124   ....               LDI     R18, LOW((`?<Constant "\\nZeitmessung Rechenop...">` + 403))
   \   00000126   ....               LDI     R19, HIGH((`?<Constant "\\nZeitmessung Rechenop...">` + 403))
   \   00000128   ....               LDI     R16, LOW(test_loop2/2)
   \   0000012A   ....               LDI     R17, (test_loop2/2) >> 8
   \   0000012C   ....               RCALL   print_execute_time
    541              //assert_(buffer[9][9] == 0, __LINE__);
    542          	testData();
   \   0000012E   ....               RCALL   testData
    543              TIME_FUNC(test_loop3);
   \   00000130   ....               LDI     R18, LOW((`?<Constant "\\nZeitmessung Rechenop...">` + 414))
   \   00000132   ....               LDI     R19, HIGH((`?<Constant "\\nZeitmessung Rechenop...">` + 414))
   \   00000134   ....               LDI     R16, LOW(test_loop3/2)
   \   00000136   ....               LDI     R17, (test_loop3/2) >> 8
   \   00000138   ....               RCALL   print_execute_time
    544              //assert_(buffer[9][9] == 0, __LINE__);
    545          	testData();
   \   0000013A   ....               RCALL   testData
    546              TIME_FUNC(test_loop4);
   \   0000013C   ....               LDI     R18, LOW((`?<Constant "\\nZeitmessung Rechenop...">` + 425))
   \   0000013E   ....               LDI     R19, HIGH((`?<Constant "\\nZeitmessung Rechenop...">` + 425))
   \   00000140   ....               LDI     R16, LOW(test_loop4/2)
   \   00000142   ....               LDI     R17, (test_loop4/2) >> 8
   \   00000144   ....               RCALL   print_execute_time
    547              assert_(buffer[9][9] == 0, __LINE__);
   \   00000146   9100....           LDS     R16, (buffer + 198)
   \   0000014A   9110....           LDS     R17, (buffer + 199)
   \   0000014E   2B01               OR      R16, R17
   \   00000150   F411               BRNE    ??main_4
   \   00000152   E001               LDI     R16, 1
   \   00000154   C001               RJMP    ??main_5
   \                     ??main_4:
   \   00000156   E000               LDI     R16, 0
   \                     ??main_5:
   \   00000158   E223               LDI     R18, 35
   \   0000015A   E032               LDI     R19, 2
   \   0000015C   ....               RCALL   assert_
    548              TIME_FUNC(int16_pi_regler);    
   \   0000015E   ....               LDI     R18, LOW((`?<Constant "\\nZeitmessung Rechenop...">` + 436))
   \   00000160   ....               LDI     R19, HIGH((`?<Constant "\\nZeitmessung Rechenop...">` + 436))
   \   00000162   ....               LDI     R16, LOW(int16_pi_regler/2)
   \   00000164   ....               LDI     R17, (int16_pi_regler/2) >> 8
   \   00000166   ....               RCALL   print_execute_time
    549          	TIME_FUNC(empty_func);  
   \   00000168   ....               LDI     R18, LOW((`?<Constant "\\nZeitmessung Rechenop...">` + 452))
   \   0000016A   ....               LDI     R19, HIGH((`?<Constant "\\nZeitmessung Rechenop...">` + 452))
   \   0000016C   ....               LDI     R16, LOW(empty_func/2)
   \   0000016E   ....               LDI     R17, (empty_func/2) >> 8
   \   00000170   ....               RCALL   print_execute_time
    550          	TIME_FUNC(print_int16);
   \   00000172   ....               LDI     R18, LOW((`?<Constant "\\nZeitmessung Rechenop...">` + 463))
   \   00000174   ....               LDI     R19, HIGH((`?<Constant "\\nZeitmessung Rechenop...">` + 463))
   \   00000176   ....               LDI     R16, LOW(print_int16/2)
   \   00000178   ....               LDI     R17, (print_int16/2) >> 8
   \   0000017A   ....               RCALL   print_execute_time
    551          	TIME_FUNC(print_int16_itoa);
   \   0000017C   ....               LDI     R18, LOW((`?<Constant "\\nZeitmessung Rechenop...">` + 475))
   \   0000017E   ....               LDI     R19, HIGH((`?<Constant "\\nZeitmessung Rechenop...">` + 475))
   \   00000180   ....               LDI     R16, LOW(print_int16_itoa/2)
   \   00000182   ....               LDI     R17, (print_int16_itoa/2) >> 8
   \   00000184   ....               RCALL   print_execute_time
    552              TIME_FUNC(print_myitoa);  
   \   00000186   ....               LDI     R18, LOW((`?<Constant "\\nZeitmessung Rechenop...">` + 492))
   \   00000188   ....               LDI     R19, HIGH((`?<Constant "\\nZeitmessung Rechenop...">` + 492))
   \   0000018A   ....               LDI     R16, LOW(print_myitoa/2)
   \   0000018C   ....               LDI     R17, (print_myitoa/2) >> 8
   \   0000018E   ....               RCALL   print_execute_time
    553              TIME_FUNC(print_myitoa2);
   \   00000190   ....               LDI     R18, LOW((`?<Constant "\\nZeitmessung Rechenop...">` + 505))
   \   00000192   ....               LDI     R19, HIGH((`?<Constant "\\nZeitmessung Rechenop...">` + 505))
   \   00000194   ....               LDI     R16, LOW(print_myitoa2/2)
   \   00000196   ....               LDI     R17, (print_myitoa2/2) >> 8
   \   00000198   ....               RJMP    print_execute_time
   \   0000019A                      REQUIRE WIO
    554             // TIME_FUNC(chg_registers);
    555                  
    556          	//PrintString(" - sqrt(23442.0)  = ");
    557          	//PrintSignedShortFormated(sqrt(23442.0));	
    558          	//PrintString("\n - isqrt16(23442) = ");
    559          	//PrintSignedShortFormated(isqrt_c16(23442));
    560          	//PrintString("\n");	
    561          	//return 0;	
    562          }

   \                                 In  segment NEAR_ID, align 1, keep-with-next
   \                     `?<Initializer for <Constant " : ">>`:
   \   00000000   3A200020           DC8 " : "
   \                     `?<Initializer for <Constant " (Timeroverflow!)`:
   \   00000004   28206954656D       DC8 " (Timeroverflow!)"
   \              6F7265766672
   \              6F6C21770029
   \                     `?<Initializer for <Constant "\\n">>`:
   \   00000016   000A               DC8 "\012"
   \                     `?<Initializer for <Constant "Assert Error in L`:
   \   00000018   734165737472       DC8 "Assert Error in Line "
   \              45207272726F
   \              6920206E694C
   \              656E0020    

   \                                 In  segment NEAR_ID, align 1, keep-with-next
   \                     `?<Initializer for <Constant "\\nZeitmessung Rec`:
   \   00000000   5A0A69656D74       DC8 "\012Zeitmessung Rechenoperationen\012"
   \              73657573676E
   \              522063656568
   \              6F6E65706172
   \              69746E6F6E65
   \              000A        
   \                     `?<Initializer for <Constant "\\n Takte   Funkti`:
   \   00000020   200A6154746B       DC8 "\012 Takte   Funktionsname\012"
   \              206520207546
   \              6B6E69746E6F
   \              6E736D610A65
   \              00          
   \                     `?<Initializer for <Constant "float_convert_to_`:
   \   00000039   6C66616F5F74       DC8 "float_convert_to_float"
   \              6F63766E7265
   \              5F746F74665F
   \              6F6C746100  
   \                     `?<Initializer for <Constant "float_convert_to__1`:
   \   00000050   6C66616F5F74       DC8 "float_convert_to_int"
   \              6F63766E7265
   \              5F746F74695F
   \              746E00      
   \                     `?<Initializer for <Constant "float_add_const">`:
   \   00000065   6C66616F5F74       DC8 "float_add_const"
   \              64615F646F63
   \              736E0074    
   \                     `?<Initializer for <Constant "float_add">>`:
   \   00000075   6C66616F5F74       DC8 "float_add"
   \              64610064    
   \                     `?<Initializer for <Constant "float_mul_const">`:
   \   0000007F   6C66616F5F74       DC8 "float_mul_const"
   \              756D5F6C6F63
   \              736E0074    
   \                     `?<Initializer for <Constant "float_mul">>`:
   \   0000008F   6C66616F5F74       DC8 "float_mul"
   \              756D006C    
   \                     `?<Initializer for <Constant "float_div_const">`:
   \   00000099   6C66616F5F74       DC8 "float_div_const"
   \              69645F766F63
   \              736E0074    
   \                     `?<Initializer for <Constant "float_div">>`:
   \   000000A9   6C66616F5F74       DC8 "float_div"
   \              69640076    
   \                     `?<Initializer for <Constant "int16_div10">>`:
   \   000000B3   6E6931745F36       DC8 "int16_div10"
   \              696431760030
   \                     `?<Initializer for <Constant "int16_div10_fast"`:
   \   000000BF   6E6931745F36       DC8 "int16_div10_fast"
   \              696431765F30
   \              6166747300  
   \                     `?<Initializer for <Constant "int16_div16">>`:
   \   000000D0   6E6931745F36       DC8 "int16_div16"
   \              696431760036
   \                     `?<Initializer for <Constant "int16_div">>`:
   \   000000DC   6E6931745F36       DC8 "int16_div"
   \              69640076    
   \                     `?<Initializer for <Constant "int16_mult_const"`:
   \   000000E6   6E6931745F36       DC8 "int16_mult_const"
   \              756D746C635F
   \              6E6F747300  
   \                     `?<Initializer for <Constant "int16_mult">>`:
   \   000000F7   6E6931745F36       DC8 "int16_mult"
   \              756D746C00  
   \                     `?<Initializer for <Constant "int32_div10">>`:
   \   00000102   6E6933745F32       DC8 "int32_div10"
   \              696431760030
   \                     `?<Initializer for <Constant "int32_div16">>`:
   \   0000010E   6E6933745F32       DC8 "int32_div16"
   \              696431760036
   \                     `?<Initializer for <Constant "int32_div">>`:
   \   0000011A   6E6933745F32       DC8 "int32_div"
   \              69640076    
   \                     `?<Initializer for <Constant "int32_mult_const"`:
   \   00000124   6E6933745F32       DC8 "int32_mult_const"
   \              756D746C635F
   \              6E6F747300  
   \                     `?<Initializer for <Constant "float_sqrt">>`:
   \   00000135   6C66616F5F74       DC8 "float_sqrt"
   \              7173747200  
   \                     `?<Initializer for <Constant "int16_sqrt">>`:
   \   00000140   6E6931745F36       DC8 "int16_sqrt"
   \              7173747200  
   \                     `?<Initializer for <Constant "int16_sqrt_asm">>`:
   \   0000014B   6E6931745F36       DC8 "int16_sqrt_asm"
   \              71737472615F
   \              6D7300      
   \                     `?<Initializer for <Constant "int32_sqrt">>`:
   \   0000015A   6E6933745F32       DC8 "int32_sqrt"
   \              7173747200  
   \                     `?<Initializer for <Constant "int32_sqrt_asm">>`:
   \   00000165   6E6933745F32       DC8 "int32_sqrt_asm"
   \              71737472615F
   \              6D7300      
   \                     `?<Initializer for <Constant "float_sin">>`:
   \   00000174   6C66616F5F74       DC8 "float_sin"
   \              6973006E    
   \                     `?<Initializer for <Constant "int16_sin">>`:
   \   0000017E   6E6931745F36       DC8 "int16_sin"
   \              6973006E    
   \                     `?<Initializer for <Constant "test_loop1">>`:
   \   00000188   657474736C5F       DC8 "test_loop1"
   \              6F6F317000  
   \                     `?<Initializer for <Constant "test_loop2">>`:
   \   00000193   657474736C5F       DC8 "test_loop2"
   \              6F6F327000  
   \                     `?<Initializer for <Constant "test_loop3">>`:
   \   0000019E   657474736C5F       DC8 "test_loop3"
   \              6F6F337000  
   \                     `?<Initializer for <Constant "test_loop4">>`:
   \   000001A9   657474736C5F       DC8 "test_loop4"
   \              6F6F347000  
   \                     `?<Initializer for <Constant "int16_pi_regler">`:
   \   000001B4   6E6931745F36       DC8 "int16_pi_regler"
   \              6970725F6765
   \              656C0072    
   \                     `?<Initializer for <Constant "empty_func">>`:
   \   000001C4   6D6574705F79       DC8 "empty_func"
   \              7566636E00  
   \                     `?<Initializer for <Constant "print_int16">>`:
   \   000001CF   72706E695F74       DC8 "print_int16"
   \              6E6931740036
   \                     `?<Initializer for <Constant "print_int16_itoa"`:
   \   000001DB   72706E695F74       DC8 "print_int16_itoa"
   \              6E6931745F36
   \              7469616F00  
   \                     `?<Initializer for <Constant "print_myitoa">>`:
   \   000001EC   72706E695F74       DC8 "print_myitoa"
   \              796D7469616F
   \              00          
   \                     `?<Initializer for <Constant "print_myitoa2">>`:
   \   000001F9   72706E695F74       DC8 "print_myitoa2"
   \              796D7469616F
   \              0032        

   \                                 In  segment NEAR_ID, align 1, keep-with-next
   \                     `?<Initializer for a>`:
   \   00000000   E5864557           DD 4557E586H
   \                     `?<Initializer for b>`:
   \   00000004   21D0463F           DD 463F21D0H
   \                     `?<Initializer for c>`:
   \   00000008   00000000           DD 0H
   \                     `?<Initializer for d>`:
   \   0000000C   5B92               DC16 23442

   \                                 In  segment NEAR_ID, align 1, keep-with-next
   \                     `?<Initializer for i_a>`:
   \   00000000   0928               DC16 2344
   \                     `?<Initializer for i_b>`:
   \   00000002   0017               DC16 23
   \                     `?<Initializer for i_c>`:
   \   00000004   0000               DC8 0, 0

   \                                 In  segment NEAR_ID, align 1, keep-with-next
   \                     `?<Initializer for l_a>`:
   \   00000000   5B940000           DD 23444
   \                     `?<Initializer for l_b>`:
   \   00000004   00170000           DD 23
   \                     `?<Initializer for l_c>`:
   \   00000008   00000000           DC8 0, 0, 0, 0

   \                                 In  segment NEAR_ID, align 1, keep-with-next
   \                     `?<Initializer for u_stell_l>`:
   \   00000000   00000000           DD 0
   \                     `?<Initializer for v_soll>`:
   \   00000004   0064               DC16 100
   \                     `?<Initializer for v_ist>`:
   \   00000006   0050               DC16 80
   \                     `?<Initializer for u_stell>`:
   \   00000008   0000               DC8 0, 0
   \                     `?<Initializer for reg_abw>`:
   \   0000000A   0000               DC8 0, 0
   \                     `?<Initializer for reg_abw_old>`:
   \   0000000C   0000               DC8 0, 0
   \                     `?<Initializer for kp>`:
   \   0000000E   32                 DC8 50
   \                     `?<Initializer for ki>`:
   \   0000000F   0F                 DC8 15

   \                                 In  segment NEAR_ID, align 1, keep-with-next
   \                     `?<Initializer for string>`:
   \   00000000   000000000000       DC8 0, 0, 0, 0, 0, 0, 0, 0, 0, 0, 0, 0
   \              000000000000
   \                     `?<Initializer for subtractors>`:
   \   0000000C   CA003B9AE100       DD 1000000000, 100000000, 10000000, 1000000, 100000, 10000, 1000, 100
   \              05F596800098
   \              4240000F86A0
   \              000127100000
   \              03E800000064
   \              0000        
   \   0000002C   000A00000001       DD 10, 1
   \              0000        

   \                                 In  segment NEAR_I, align 1, keep-with-next
   \   00000000                      REQUIRE `?<Segment init: NEAR_I>`
   \                     `?<Constant " : ">`:
   \   00000000                      DS8 4
   \   00000004                      REQUIRE `?<Initializer for <Constant " : ">>`
   \   00000004                      DS8 18
   \   00000016                      REQUIRE `?<Initializer for <Constant " (Timeroverflow!)`
   \   00000016                      DS8 2
   \   00000018                      REQUIRE `?<Initializer for <Constant "\\n">>`
   \   00000018                      DS8 22
   \   0000002E                      REQUIRE `?<Initializer for <Constant "Assert Error in L`

   \                                 In  segment NEAR_I, align 1, keep-with-next
   \   00000000                      REQUIRE `?<Segment init: NEAR_I>`
   \                     `?<Constant "\\nZeitmessung Rechenop...">`:
   \   00000000                      DS8 32
   \   00000020                      REQUIRE `?<Initializer for <Constant "\\nZeitmessung Rec`
   \   00000020                      DS8 25
   \   00000039                      REQUIRE `?<Initializer for <Constant "\\n Takte   Funkti`
   \   00000039                      DS8 23
   \   00000050                      REQUIRE `?<Initializer for <Constant "float_convert_to_`
   \   00000050                      DS8 21
   \   00000065                      REQUIRE `?<Initializer for <Constant "float_convert_to__1`
   \   00000065                      DS8 16
   \   00000075                      REQUIRE `?<Initializer for <Constant "float_add_const">`
   \   00000075                      DS8 10
   \   0000007F                      REQUIRE `?<Initializer for <Constant "float_add">>`
   \   0000007F                      DS8 16
   \   0000008F                      REQUIRE `?<Initializer for <Constant "float_mul_const">`
   \   0000008F                      DS8 10
   \   00000099                      REQUIRE `?<Initializer for <Constant "float_mul">>`
   \   00000099                      DS8 16
   \   000000A9                      REQUIRE `?<Initializer for <Constant "float_div_const">`
   \   000000A9                      DS8 10
   \   000000B3                      REQUIRE `?<Initializer for <Constant "float_div">>`
   \   000000B3                      DS8 12
   \   000000BF                      REQUIRE `?<Initializer for <Constant "int16_div10">>`
   \   000000BF                      DS8 17
   \   000000D0                      REQUIRE `?<Initializer for <Constant "int16_div10_fast"`
   \   000000D0                      DS8 12
   \   000000DC                      REQUIRE `?<Initializer for <Constant "int16_div16">>`
   \   000000DC                      DS8 10
   \   000000E6                      REQUIRE `?<Initializer for <Constant "int16_div">>`
   \   000000E6                      DS8 17
   \   000000F7                      REQUIRE `?<Initializer for <Constant "int16_mult_const"`
   \   000000F7                      DS8 11
   \   00000102                      REQUIRE `?<Initializer for <Constant "int16_mult">>`
   \   00000102                      DS8 12
   \   0000010E                      REQUIRE `?<Initializer for <Constant "int32_div10">>`
   \   0000010E                      DS8 12
   \   0000011A                      REQUIRE `?<Initializer for <Constant "int32_div16">>`
   \   0000011A                      DS8 10
   \   00000124                      REQUIRE `?<Initializer for <Constant "int32_div">>`
   \   00000124                      DS8 17
   \   00000135                      REQUIRE `?<Initializer for <Constant "int32_mult_const"`
   \   00000135                      DS8 11
   \   00000140                      REQUIRE `?<Initializer for <Constant "float_sqrt">>`
   \   00000140                      DS8 11
   \   0000014B                      REQUIRE `?<Initializer for <Constant "int16_sqrt">>`
   \   0000014B                      DS8 15
   \   0000015A                      REQUIRE `?<Initializer for <Constant "int16_sqrt_asm">>`
   \   0000015A                      DS8 11
   \   00000165                      REQUIRE `?<Initializer for <Constant "int32_sqrt">>`
   \   00000165                      DS8 15
   \   00000174                      REQUIRE `?<Initializer for <Constant "int32_sqrt_asm">>`
   \   00000174                      DS8 10
   \   0000017E                      REQUIRE `?<Initializer for <Constant "float_sin">>`
   \   0000017E                      DS8 10
   \   00000188                      REQUIRE `?<Initializer for <Constant "int16_sin">>`
   \   00000188                      DS8 11
   \   00000193                      REQUIRE `?<Initializer for <Constant "test_loop1">>`
   \   00000193                      DS8 11
   \   0000019E                      REQUIRE `?<Initializer for <Constant "test_loop2">>`
   \   0000019E                      DS8 11
   \   000001A9                      REQUIRE `?<Initializer for <Constant "test_loop3">>`
   \   000001A9                      DS8 11
   \   000001B4                      REQUIRE `?<Initializer for <Constant "test_loop4">>`
   \   000001B4                      DS8 16
   \   000001C4                      REQUIRE `?<Initializer for <Constant "int16_pi_regler">`
   \   000001C4                      DS8 11
   \   000001CF                      REQUIRE `?<Initializer for <Constant "empty_func">>`
   \   000001CF                      DS8 12
   \   000001DB                      REQUIRE `?<Initializer for <Constant "print_int16">>`
   \   000001DB                      DS8 17
   \   000001EC                      REQUIRE `?<Initializer for <Constant "print_int16_itoa"`
   \   000001EC                      DS8 13
   \   000001F9                      REQUIRE `?<Initializer for <Constant "print_myitoa">>`
   \   000001F9                      DS8 14
   \   00000207                      REQUIRE `?<Initializer for <Constant "print_myitoa2">>`

   Maximum stack usage in bytes:

   CSTACK RSTACK Function
   ------ ------ --------
      12      4  PrintSignedShortFormated
       6      2  Sine
       0      2  assert_
                   0 2 -> PrintSignedShortFormated
       0      2  empty_func
       2      4  float_add
       2      4  float_add_const
       0      4  float_convert_to_float
       0      4  float_convert_to_int
       2      4  float_div
       2      4  float_div_const
       2      4  float_mul
       2      4  float_mul_const
       2      2  float_sin
                   2 2 -> sin
       2      2  float_sqrt
                   2 2 -> sqrt
       2      4  int16_div
       2      4  int16_div10
       0      2  int16_div10_fast
       0      2  int16_div16
       0      2  int16_mult
       0      2  int16_mult_const
       0      4  int16_pi_regler
       0      2  int16_sin
                   0 2 -> Sine
       0      2  int16_sqrt
                   0 2 -> isqrt_c16
       0      2  int16_sqrt_asm
       2      4  int32_div
       2      4  int32_div10
       0      4  int32_div16
       0      2  int32_mult
       0      2  int32_mult_const
       0      2  int32_sqrt
                   0 2 -> isqrt_c32
       0      2  int32_sqrt_asm
       0      4  isqrt_c16
      10      4  isqrt_c32
       0      2  main
                   0 2 -> assert_
                   0 2 -> print_execute_time
                   0 2 -> testData
       7      4  myitoa
       1      2  myitoa2
       2      2  print_execute_time
                   2 2 -- Indirect call
                   2 2 -> PrintSignedShortFormated
       0      2  print_int16
                   0 2 -> PrintSignedShortFormated
       7      2  print_int16_itoa
       0      2  print_myitoa
                   0 2 -> myitoa
       0      2  print_myitoa2
                   0 2 -> myitoa2
       0      2  testData
       0      2  test_loop1
       0      2  test_loop2
       0      2  test_loop3
       0      2  test_loop4


   Segment part sizes:

   Bytes  Function/Label
   -----  --------------
      46  ?<Constant " : ">
     519  ?<Constant "\nZeitmessung Rechenop...">
      46  ?<Initializer for <Constant " : ">>
     519  ?<Initializer for <Constant "\nZeitmessung Rec
      14  ?<Initializer for a>
       6  ?<Initializer for i_a>
      12  ?<Initializer for l_a>
      52  ?<Initializer for string>
      16  ?<Initializer for u_stell_l>
      14  ??Subroutine7_0
       8  ??Subroutine8_0
      14  ?Subroutine0
      28  ?Subroutine1
      18  ?Subroutine2
      18  ?Subroutine3
      18  ?Subroutine4
      16  ?Subroutine5
       2  ?Subroutine6
     130  PrintSignedShortFormated
     110  Sine
       1  WIO
       1  _A_TCCR1A
       1  _A_TCCR1B
       2  _A_TCNT1
       1  _A_TIFR
      14  a
          b
          c
          d
      38  assert_
      13  buf
     200  buffer
       2  empty_func
      34  float_add
      32  float_add_const
      36  float_convert_to_float
      30  float_convert_to_int
      20  float_div
      18  float_div_const
      34  float_mul
      32  float_mul_const
      24  float_sin
      24  float_sqrt
       6  i_a
          i_b
          i_c
      14  int16_div
      10  int16_div10
      44  int16_div10_fast
      14  int16_div16
      30  int16_mult
      24  int16_mult_const
     170  int16_pi_regler
      30  int16_sin
      16  int16_sqrt
       2  int16_sqrt_asm
      20  int32_div
      16  int32_div10
      18  int32_div16
      90  int32_mult
      46  int32_mult_const
      16  int32_sqrt
       2  int32_sqrt_asm
      62  isqrt_c16
     128  isqrt_c32
      12  l_a
          l_b
          l_c
     410  main
     114  myitoa
     152  myitoa2
     106  print_execute_time
       6  print_int16
      18  print_int16_itoa
      10  print_myitoa
      12  print_myitoa2
     132  sin_table
      52  string
          subtractors
      42  testData
      36  test_loop1
       0  test_loop2
       2  test_loop3
      54  test_loop4
      16  u_stell_l
          v_soll
          v_ist
          u_stell
          reg_abw
          reg_abw_old
          kp
          ki
      14  -- Other

 
     6 bytes in segment ABSOLUTE
 2 414 bytes in segment CODE
    14 bytes in segment INITTAB
   132 bytes in segment NEAR_F
   665 bytes in segment NEAR_I
   665 bytes in segment NEAR_ID
   213 bytes in segment NEAR_Z
 
 3 211 bytes of CODE memory (+ 14 bytes shared)
   878 bytes of DATA memory (+  6 bytes shared)

Errors: none
Warnings: 7
