///////////////////////////////////////////////////////////////////////////////
//                                                                            /
// IAR C/C++ Compiler V6.10.1.50424 for Atmel AVR       27/Oct/2011  13:47:05 /
// Copyright 1996-2011 IAR Systems AB.                                        /
//                                                                            /
//    Source file  =  D:\Devel\git\optimize-with-int-calculations-for-microco /
//                    ntroller\test.c                                         /
//    Command line =  D:\Devel\git\optimize-with-int-calculations-for-microco /
//                    ntroller\test.c --cpu=m128 -ms -o                       /
//                    D:\Devel\git\optimize-with-int-calculations-for-microco /
//                    ntroller\iar\Debug\Obj\ -D SIM_WIO=0x30 -D SIM_RIO -lC  /
//                    D:\Devel\git\optimize-with-int-calculations-for-microco /
//                    ntroller\iar\Debug\List\ -lA                            /
//                    D:\Devel\git\optimize-with-int-calculations-for-microco /
//                    ntroller\iar\Debug\List\ -y --initializers_in_flash     /
//                    --debug -e --eeprom_size 4096 --clib -Ohs               /
//    List file    =  D:\Devel\git\optimize-with-int-calculations-for-microco /
//                    ntroller\iar\Debug\List\test.s90                        /
//                                                                            /
//                                                                            /
///////////////////////////////////////////////////////////////////////////////

        NAME test

        RTMODEL "__64bit_doubles", "disabled"
        RTMODEL "__SystemLibrary", "CLib"
        RTMODEL "__cpu", "3"
        RTMODEL "__cpu_name", "ATmega128"
        RTMODEL "__enhanced_core", "enabled"
        RTMODEL "__has_elpm", "true"
        RTMODEL "__memory_model", "2"
        RTMODEL "__no_rampd", "enabled"
        RTMODEL "__rt_version", "3"

        RSEG CSTACK:DATA:NOROOT(0)
        RSEG RSTACK:DATA:NOROOT(0)

        EXTERN ?F2SL_L04
        EXTERN ?F_ADD_L04
        EXTERN ?F_DIV_L04
        EXTERN ?F_MUL_L04
        EXTERN ?L_SHL_L03
        EXTERN ?Register_R10_is_cg_reg
        EXTERN ?Register_R11_is_cg_reg
        EXTERN ?Register_R4_is_cg_reg
        EXTERN ?Register_R5_is_cg_reg
        EXTERN ?Register_R6_is_cg_reg
        EXTERN ?Register_R7_is_cg_reg
        EXTERN ?Register_R8_is_cg_reg
        EXTERN ?Register_R9_is_cg_reg
        EXTERN ?SL2F_L04
        EXTERN ?SL_SHR_L03
        EXTERN ?SS_SHR_L02
        EXTERN ?S_SHL_L02
        EXTERN ?UL_DIVMOD_L03
        EXTERN ?UL_SHR_L03
        EXTERN ?US_DIVMOD_L02
        EXTERN ?need_segment_init

        PUBWEAK `?<Segment init: NEAR_I>`
        PUBWEAK `?<Segment init: NEAR_Z>`
        FUNCTION PrintSignedShortFormated,0203H
        ARGFRAME RSTACK, 0, STACK
        LOCFRAME CSTACK, 7, STACK
        LOCFRAME RSTACK, 2, STACK
        FUNCTION Sine,0203H
        ARGFRAME RSTACK, 0, STACK
        LOCFRAME CSTACK, 6, STACK
        LOCFRAME RSTACK, 2, STACK
        PUBWEAK _A_TCCR1A
        PUBWEAK _A_TCCR1B
        PUBWEAK _A_TCNT1
        PUBWEAK _A_TIFR
        PUBWEAK __?EEARH
        PUBWEAK __?EEARL
        PUBWEAK __?EECR
        PUBWEAK __?EEDR
        PUBLIC a
        PUBLIC b
        PUBLIC buffer
        PUBLIC c
        PUBLIC d
        PUBLIC empty_func
        FUNCTION empty_func,0601H
        ARGFRAME CSTACK, 0, STACK
        LOCFRAME RSTACK, 2, STACK
        PUBLIC float_add
        FUNCTION float_add,0603H
        ARGFRAME CSTACK, 0, STACK
        LOCFRAME CSTACK, 2, STACK
        LOCFRAME RSTACK, 4, STACK
        PUBLIC float_add_const
        FUNCTION float_add_const,0603H
        ARGFRAME CSTACK, 0, STACK
        LOCFRAME CSTACK, 2, STACK
        LOCFRAME RSTACK, 4, STACK
        PUBLIC float_convert_to_float
        FUNCTION float_convert_to_float,0601H
        ARGFRAME CSTACK, 0, STACK
        LOCFRAME RSTACK, 4, STACK
        PUBLIC float_convert_to_int
        FUNCTION float_convert_to_int,0601H
        ARGFRAME CSTACK, 0, STACK
        LOCFRAME RSTACK, 4, STACK
        PUBLIC float_div
        FUNCTION float_div,0603H
        ARGFRAME CSTACK, 0, STACK
        LOCFRAME CSTACK, 2, STACK
        LOCFRAME RSTACK, 4, STACK
        PUBLIC float_div_const
        FUNCTION float_div_const,0603H
        ARGFRAME CSTACK, 0, STACK
        LOCFRAME CSTACK, 2, STACK
        LOCFRAME RSTACK, 4, STACK
        PUBLIC float_mul
        FUNCTION float_mul,0603H
        ARGFRAME CSTACK, 0, STACK
        LOCFRAME CSTACK, 2, STACK
        LOCFRAME RSTACK, 4, STACK
        PUBLIC float_mul_const
        FUNCTION float_mul_const,0603H
        ARGFRAME CSTACK, 0, STACK
        LOCFRAME CSTACK, 2, STACK
        LOCFRAME RSTACK, 4, STACK
        PUBLIC float_sin
        FUNCTION float_sin,021601H
        ARGFRAME CSTACK, 0, STACK
        LOCFRAME CSTACK, 2, STACK
        LOCFRAME RSTACK, 2, STACK
        PUBLIC float_sqrt
        FUNCTION float_sqrt,021601H
        ARGFRAME CSTACK, 0, STACK
        LOCFRAME CSTACK, 2, STACK
        LOCFRAME RSTACK, 2, STACK
        PUBLIC i_a
        PUBLIC i_b
        PUBLIC i_c
        PUBLIC int16_div
        FUNCTION int16_div,0601H
        ARGFRAME CSTACK, 0, STACK
        LOCFRAME CSTACK, 2, STACK
        LOCFRAME RSTACK, 4, STACK
        PUBLIC int16_div10
        FUNCTION int16_div10,0601H
        ARGFRAME CSTACK, 0, STACK
        LOCFRAME CSTACK, 2, STACK
        LOCFRAME RSTACK, 4, STACK
        PUBLIC int16_div10_fast
        FUNCTION int16_div10_fast,0601H
        ARGFRAME CSTACK, 0, STACK
        LOCFRAME RSTACK, 2, STACK
        PUBLIC int16_div16
        FUNCTION int16_div16,0601H
        ARGFRAME CSTACK, 0, STACK
        LOCFRAME RSTACK, 2, STACK
        PUBLIC int16_mult
        FUNCTION int16_mult,0601H
        ARGFRAME CSTACK, 0, STACK
        LOCFRAME RSTACK, 2, STACK
        PUBLIC int16_mult_const
        FUNCTION int16_mult_const,0601H
        ARGFRAME CSTACK, 0, STACK
        LOCFRAME RSTACK, 2, STACK
        PUBLIC int16_pi_regler
        FUNCTION int16_pi_regler,0601H
        ARGFRAME CSTACK, 0, STACK
        LOCFRAME RSTACK, 4, STACK
        PUBLIC int16_sin
        FUNCTION int16_sin,021601H
        ARGFRAME CSTACK, 0, STACK
        LOCFRAME RSTACK, 2, STACK
        PUBLIC int16_sqrt
        FUNCTION int16_sqrt,021601H
        ARGFRAME CSTACK, 0, STACK
        LOCFRAME RSTACK, 2, STACK
        PUBLIC int16_sqrt_asm
        FUNCTION int16_sqrt_asm,0601H
        ARGFRAME CSTACK, 0, STACK
        LOCFRAME RSTACK, 2, STACK
        PUBLIC int32_div
        FUNCTION int32_div,0601H
        ARGFRAME CSTACK, 0, STACK
        LOCFRAME CSTACK, 2, STACK
        LOCFRAME RSTACK, 4, STACK
        PUBLIC int32_div10
        FUNCTION int32_div10,0601H
        ARGFRAME CSTACK, 0, STACK
        LOCFRAME CSTACK, 2, STACK
        LOCFRAME RSTACK, 4, STACK
        PUBLIC int32_div16
        FUNCTION int32_div16,0601H
        ARGFRAME CSTACK, 0, STACK
        LOCFRAME RSTACK, 4, STACK
        PUBLIC int32_mult
        FUNCTION int32_mult,0201H
        ARGFRAME CSTACK, 0, STACK
        LOCFRAME RSTACK, 2, STACK
        PUBLIC int32_mult_const
        FUNCTION int32_mult_const,0601H
        ARGFRAME CSTACK, 0, STACK
        LOCFRAME RSTACK, 2, STACK
        PUBLIC int32_sqrt
        FUNCTION int32_sqrt,021601H
        ARGFRAME CSTACK, 0, STACK
        LOCFRAME RSTACK, 2, STACK
        PUBLIC int32_sqrt_asm
        FUNCTION int32_sqrt_asm,0601H
        ARGFRAME CSTACK, 0, STACK
        LOCFRAME RSTACK, 2, STACK
        FUNCTION isqrt,0203H
        ARGFRAME RSTACK, 0, STACK
        LOCFRAME CSTACK, 10, STACK
        LOCFRAME RSTACK, 4, STACK
        FUNCTION isqrt_c16,0203H
        ARGFRAME RSTACK, 0, STACK
        LOCFRAME RSTACK, 4, STACK
        PUBLIC l_a
        PUBLIC l_b
        PUBLIC l_c
        PUBLIC main
        FUNCTION main,021a01H
        ARGFRAME CSTACK, 0, STACK
        LOCFRAME RSTACK, 2, STACK
        PUBLIC print_execute_time
        FUNCTION print_execute_time,061203H
        ARGFRAME RSTACK, 0, STACK
        LOCFRAME RSTACK, 2, STACK
        PUBLIC print_int16
        FUNCTION print_int16,021603H
        ARGFRAME CSTACK, 0, STACK
        LOCFRAME RSTACK, 2, STACK
        PUBLIC print_int16_itoa
        FUNCTION print_int16_itoa,0603H
        ARGFRAME CSTACK, 0, STACK
        LOCFRAME RSTACK, 2, STACK
        PUBLIC sin_table
        PUBLIC testData
        FUNCTION testData,0201H
        ARGFRAME RSTACK, 0, STACK
        LOCFRAME RSTACK, 2, STACK
        PUBLIC test_loop1
        FUNCTION test_loop1,0601H
        ARGFRAME CSTACK, 0, STACK
        LOCFRAME RSTACK, 2, STACK
        PUBLIC test_loop2
        FUNCTION test_loop2,0601H
        ARGFRAME CSTACK, 0, STACK
        LOCFRAME RSTACK, 2, STACK
        PUBLIC test_loop3
        FUNCTION test_loop3,0601H
        ARGFRAME CSTACK, 0, STACK
        LOCFRAME RSTACK, 2, STACK
        PUBLIC test_loop4
        FUNCTION test_loop4,0601H
        ARGFRAME CSTACK, 0, STACK
        LOCFRAME RSTACK, 2, STACK
        PUBLIC u_stell
        PUBLIC v_ist
        PUBLIC v_soll
        
        CFI Names cfiNames0
        CFI StackFrame CFA_Y Y DATA
        CFI StackFrame CFA_SP SP DATA
        CFI VirtualResource ?RetPad:1, ?RetHigh:8, ?RetLow:8, ?Ret:17
        CFI Resource R0:8, R1:8, R2:8, R3:8, R4:8, R5:8, R6:8, R7:8, R8:8, R9:8
        CFI Resource R10:8, R11:8, R12:8, R13:8, R14:8, R15:8, R16:8, R17:8
        CFI Resource R18:8, R19:8, R20:8, R21:8, R22:8, R23:8, R24:8, R25:8
        CFI Resource R26:8, R27:8, R28:8, R29:8, R30:8, R31:8
        CFI Resource ?RetHighByteMask:8, SP:16, SPH:8, SPL:8, Y:16
        CFI ResourceParts ?Ret ?RetHigh, ?RetLow, ?RetPad
        CFI ResourceParts SP SPH, SPL
        CFI ResourceParts Y R29, R28
        CFI EndNames cfiNames0
        
        CFI Common cfiCommon0 Using cfiNames0
        CFI CodeAlign 1
        CFI DataAlign 1
        CFI ReturnAddress ?Ret CODE
        CFI CFA_Y Y+0
        CFI CFA_SP SP+2
        CFI ?RetPad 0
        CFI ?RetHigh and(load(1, DATA, sub(CFA_SP, 1)), ?RetHighByteMask)
        CFI ?RetLow Frame(CFA_SP, 0)
        CFI ?Ret Concat
        CFI R0 Undefined
        CFI R1 Undefined
        CFI R2 Undefined
        CFI R3 Undefined
        CFI R4 SameValue
        CFI R5 SameValue
        CFI R6 SameValue
        CFI R7 SameValue
        CFI R8 SameValue
        CFI R9 SameValue
        CFI R10 SameValue
        CFI R11 SameValue
        CFI R12 SameValue
        CFI R13 SameValue
        CFI R14 SameValue
        CFI R15 SameValue
        CFI R16 Undefined
        CFI R17 Undefined
        CFI R18 Undefined
        CFI R19 Undefined
        CFI R20 Undefined
        CFI R21 Undefined
        CFI R22 Undefined
        CFI R23 Undefined
        CFI R24 SameValue
        CFI R25 SameValue
        CFI R26 SameValue
        CFI R27 SameValue
        CFI R28 Undefined
        CFI R29 Undefined
        CFI R30 Undefined
        CFI R31 Undefined
        CFI ?RetHighByteMask SameValue
        CFI SPH Undefined
        CFI SPL Undefined
        CFI EndCommon cfiCommon0
        
        EXTERN sqrt
        FUNCTION sqrt,010202H
        ARGFRAME RSTACK, 0, STACK
        EXTERN sin
        FUNCTION sin,010202H
        ARGFRAME RSTACK, 0, STACK

// D:\Devel\git\optimize-with-int-calculations-for-microcontroller\test.c
//    1 #ifdef  __IAR_SYSTEMS_ICC__
//    2 
//    3 #include <ioavr.h>

        ASEGN ABSOLUTE:DATA:NOROOT,04cH
// union <unnamed> volatile __io _A_TCNT1
_A_TCNT1:
        DS8 2

        ASEGN ABSOLUTE:DATA:NOROOT,04eH
// union <unnamed> volatile __io _A_TCCR1B
_A_TCCR1B:
        DS8 1

        ASEGN ABSOLUTE:DATA:NOROOT,04fH
// union <unnamed> volatile __io _A_TCCR1A
_A_TCCR1A:
        DS8 1

        ASEGN ABSOLUTE:DATA:NOROOT,056H
// union <unnamed> volatile __io _A_TIFR
_A_TIFR:
        DS8 1
//    4 typedef unsigned char  uint8_t;
//    5 typedef   signed char   int8_t;
//    6 typedef unsigned short uint16_t;
//    7 typedef   signed short  int16_t;
//    8 typedef unsigned long  uint32_t;
//    9 typedef   signed long   int32_t;
//   10 #define PROGMEM __flash
//   11 #define PW(a) (a)
//   12 #include <math.h>
//   13 
//   14 #else
//   15 
//   16 #include <avr/io.h>
//   17 #include <stdlib.h>
//   18 #include <math.h>
//   19 #include <avr/pgmspace.h>
//   20 #define PW(a) pgm_read_word(&(a))
//   21 
//   22 #endif
//   23 

        RSEG NEAR_F:CODE:NOROOT(0)
//   24 const int16_t PROGMEM sin_table[66] = {
sin_table:
        DC16 0, 804, 1608, 2410, 3212, 4011, 4808, 5602, 6393, 7179, 7962, 8739
        DC16 9512, 10278, 11039, 11793, 12539, 13279, 14010, 14732, 15446
        DC16 16151, 16846, 17530, 18204, 18868, 19519, 20159, 20787, 21403
        DC16 22005, 22594, 23170, 23731, 24279, 24811, 25329, 25832, 26319
        DC16 26790, 27245, 27683, 28105, 28510, 28898, 29268, 29621, 29956
        DC16 30273, 30571, 30852, 31113, 31356, 31580, 31785, 31971, 32137
        DC16 32285, 32412, 32521, 32609, 32678, 32728, 32757, 32767, 32757
//   25 
//   26       0,   804,  1608,  2410,  3212,  4011,  4808,  5602,
//   27    6393,  7179,  7962,  8739,  9512, 10278, 11039, 11793,
//   28   12539, 13279, 14010, 14732, 15446, 16151, 16846, 17530,
//   29   18204, 18868, 19519, 20159, 20787, 21403, 22005, 22594,
//   30   23170, 23731, 24279, 24811, 25329, 25832, 26319, 26790,
//   31   27245, 27683, 28105, 28510, 28898, 29268, 29621, 29956,
//   32   30273, 30571, 30852, 31113, 31356, 31580, 31785, 31971,
//   33   32137, 32285, 32412, 32521, 32609, 32678, 32728, 32757,
//   34   32767, 32757
//   35 };
//   36 

        RSEG CODE:CODE:NOROOT(1)
//   37 static int16_t Sine(int32_t phase)
Sine:
        CFI Block cfiBlock0 Using cfiCommon0
        CFI Function Sine
//   38 {
        ST      -Y, R6
        CFI R6 Frame(CFA_Y, -1)
        CFI CFA_Y Y+1
        ST      -Y, R5
        CFI R5 Frame(CFA_Y, -2)
        CFI CFA_Y Y+2
        ST      -Y, R4
        CFI R4 Frame(CFA_Y, -3)
        CFI CFA_Y Y+3
        ST      -Y, R26
        CFI R26 Frame(CFA_Y, -4)
        CFI CFA_Y Y+4
        MOVW    R3:R2, R25:R24
        REQUIRE ?Register_R4_is_cg_reg
        REQUIRE ?Register_R5_is_cg_reg
        REQUIRE ?Register_R6_is_cg_reg
//   39         int16_t s0;
//   40         uint16_t tmp_phase, tmp_phase_hi;
//   41 
//   42         tmp_phase = phase & 0x7fff;
        MOVW    R21:R20, R17:R16
        ANDI    R21, 0x7F
//   43 
//   44         if (tmp_phase & 0x4000)
        BST     R21, 6
        BRTC    ??Sine_0
//   45                 tmp_phase = 0x8000 - tmp_phase;
        LDI     R22, 0
        LDI     R23, 128
        SUB     R22, R16
        SBC     R23, R21
        MOVW    R21:R20, R23:R22
//   46 
//   47         tmp_phase_hi = tmp_phase >> 8; // 0...64
??Sine_0:
        MOV     R22, R21
        LDI     R23, 0
//   48 
//   49         s0 = PW(sin_table[tmp_phase_hi]);
        LSL     R22
        ROL     R23
        LDI     R30, LOW(sin_table)
        LDI     R31, (sin_table) >> 8
        ADD     R30, R22
        ADC     R31, R23
        LPM     R22, Z+
        LPM     R23, Z+
//   50 
//   51         s0 += ((int16_t)((((int32_t)(PW(sin_table[tmp_phase_hi+1]) - s0))*
//   52                                     (tmp_phase&0xff))>>8));
        LPM     R4, Z+
        LPM     R5, Z
        SUB     R4, R22
        SBC     R5, R23
        MOV     R6, R5
        LSL     R6
        SBC     R6, R6
        LDI     R21, 0
        MOV     R24, R20
        MUL     R24, R6
        MOV     R26, R0
        MUL     R24, R5
        MOV     R25, R0
        ADD     R26, R1
        MUL     R24, R4
        ADD     R25, R1
        ADC     R26, R21
        ADD     R22, R25
        ADC     R23, R26
//   53 
//   54         if (phase & 0x8000) {
        SBRS    R17, 7
        RJMP    ??Sine_1
//   55                 s0 = -s0;
        NEG     R23
        NEG     R22
        SBCI    R23, 0
//   56         }
//   57 
//   58         return s0;
??Sine_1:
        MOVW    R17:R16, R23:R22
        MOVW    R25:R24, R3:R2
        LD      R26, Y+
        CFI R2 R24
        CFI R24 R2
        CFI R26 SameValue
        CFI CFA_Y Y+3
        LD      R4, Y+
        CFI R4 SameValue
        CFI CFA_Y Y+2
        LD      R5, Y+
        CFI R5 SameValue
        CFI CFA_Y Y+1
        LD      R6, Y+
        CFI R6 SameValue
        CFI CFA_Y Y+0
        RET
        CFI EndBlock cfiBlock0
//   59 }
//   60 
//   61 static int16_t Cosi(int32_t phase)
//   62 {
//   63     return Sine(phase + 0x4000);
//   64 }
//   65 
//   66 /* by Jim Ulery  http://www.azillionmonkeys.com/qed/ulerysqroot.pdf  */

        RSEG CODE:CODE:NOROOT(1)
//   67 static uint32_t isqrt(uint32_t val) {
isqrt:
        CFI Block cfiBlock1 Using cfiCommon0
        CFI Function isqrt
        ST      -Y, R11
        CFI R11 Frame(CFA_Y, -1)
        CFI CFA_Y Y+1
        ST      -Y, R10
        CFI R10 Frame(CFA_Y, -2)
        CFI CFA_Y Y+2
        ST      -Y, R9
        CFI R9 Frame(CFA_Y, -3)
        CFI CFA_Y Y+3
        MOV     R31, R8
        MOV     R3, R7
        MOV     R23, R6
        MOV     R21, R5
        MOV     R30, R4
        MOV     R22, R24
        REQUIRE ?Register_R4_is_cg_reg
        REQUIRE ?Register_R5_is_cg_reg
        REQUIRE ?Register_R6_is_cg_reg
        REQUIRE ?Register_R7_is_cg_reg
        REQUIRE ?Register_R8_is_cg_reg
        REQUIRE ?Register_R9_is_cg_reg
        REQUIRE ?Register_R10_is_cg_reg
        REQUIRE ?Register_R11_is_cg_reg
        MOVW    R5:R4, R17:R16
        MOVW    R7:R6, R19:R18
//   68     uint32_t temp, g = 0, b = 0x8000, bshft = 15;
        CLR     R8
        CLR     R9
        CLR     R10
        CLR     R11
        CLR     R0
        LDI     R16, 128
        MOV     R1, R16
        CLR     R2
        LDI     R24, 15
//   69     do {
//   70         if (val >= (temp = (((g << 1) + b)<<bshft--))) {
??isqrt_0:
        MOVW    R17:R16, R9:R8
        MOVW    R19:R18, R11:R10
        LSL     R16
        ROL     R17
        ROL     R18
        ROL     R19
        ADD     R16, R0
        ADC     R17, R1
        ADC     R18, R2
        ADC     R19, R2
        MOV     R20, R24
        CALL    ?L_SHL_L03
        DEC     R24
        CP      R4, R16
        CPC     R5, R17
        CPC     R6, R18
        CPC     R7, R19
        BRCS    ??isqrt_1
//   71             g += b;
        ADD     R8, R0
        ADC     R9, R1
        ADC     R10, R2
        ADC     R11, R2
//   72             val -= temp;
        SUB     R4, R16
        SBC     R5, R17
        SBC     R6, R18
        SBC     R7, R19
//   73         }
//   74     } while (b >>= 1);
??isqrt_1:
        LSR     R1
        ROR     R0
        MOV     R16, R0
        OR      R16, R1
        BRNE    ??isqrt_0
//   75     return g;
        MOVW    R17:R16, R9:R8
        MOVW    R19:R18, R11:R10
        MOV     R24, R22
        MOV     R4, R30
        MOV     R5, R21
        MOV     R6, R23
        MOV     R7, R3
        MOV     R8, R31
        LD      R9, Y+
        CFI R31 R8
        CFI R3 R7
        CFI R23 R6
        CFI R21 R5
        CFI R30 R4
        CFI R22 R24
        CFI R24 R22
        CFI R4 R30
        CFI R5 R21
        CFI R6 R23
        CFI R7 R3
        CFI R8 R31
        CFI R9 SameValue
        CFI CFA_Y Y+2
        LD      R10, Y+
        CFI R10 SameValue
        CFI CFA_Y Y+1
        LD      R11, Y+
        CFI R11 SameValue
        CFI CFA_Y Y+0
        RET
        CFI EndBlock cfiBlock1
//   76 }
//   77 

        RSEG CODE:CODE:NOROOT(1)
//   78 static uint16_t isqrt_c16(uint16_t val) {
isqrt_c16:
        CFI Block cfiBlock2 Using cfiCommon0
        CFI Function isqrt_c16
        MOV     R21, R25
        MOV     R2, R24
        MOVW    R23:R22, R17:R16
//   79     uint16_t temp, g = 0, b = 0x80, bshft = 7;
        CLR     R0
        CLR     R1
        LDI     R18, 128
        LDI     R19, 0
        LDI     R24, 7
        LDI     R25, 0
//   80     do {
//   81         if (val >= (temp = (((g << 1) + b)<<bshft--))) {
??isqrt_c16_0:
        MOVW    R17:R16, R1:R0
        LSL     R16
        ROL     R17
        ADD     R16, R18
        ADC     R17, R19
        MOV     R20, R24
        CALL    ?S_SHL_L02
        SBIW    R25:R24, 1
        CP      R22, R16
        CPC     R23, R17
        BRCS    ??isqrt_c16_1
//   82             g += b;
        ADD     R0, R18
        ADC     R1, R19
//   83             val -= temp;
        SUB     R22, R16
        SBC     R23, R17
//   84         }
//   85     } while (b >>= 1);
??isqrt_c16_1:
        LSR     R18
        BRNE    ??isqrt_c16_0
//   86     return g;
        MOVW    R17:R16, R1:R0
        MOV     R24, R2
        MOV     R25, R21
        RET
        CFI EndBlock cfiBlock2
//   87 }

        RSEG NEAR_I:DATA:NOROOT(0)
        REQUIRE `?<Segment init: NEAR_I>`
`?<Constant "float_convert_to_float">`:
        DS8 23
        REQUIRE `?<Initializer for <Constant "float_convert_to_`
        DS8 21
        REQUIRE `?<Initializer for <Constant "float_convert_to__1`
        DS8 16
        REQUIRE `?<Initializer for <Constant "float_add_const">`
        DS8 10
        REQUIRE `?<Initializer for <Constant "float_add">>`
        DS8 16
        REQUIRE `?<Initializer for <Constant "float_mul_const">`
        DS8 10
        REQUIRE `?<Initializer for <Constant "float_mul">>`
        DS8 16
        REQUIRE `?<Initializer for <Constant "float_div_const">`
        DS8 10
        REQUIRE `?<Initializer for <Constant "float_div">>`
        DS8 12
        REQUIRE `?<Initializer for <Constant "int16_div10">>`
        DS8 17
        REQUIRE `?<Initializer for <Constant "int16_div10_fast"`
        DS8 12
        REQUIRE `?<Initializer for <Constant "int16_div16">>`
        DS8 10
        REQUIRE `?<Initializer for <Constant "int16_div">>`
        DS8 17
        REQUIRE `?<Initializer for <Constant "int16_mult_const"`
        DS8 11
        REQUIRE `?<Initializer for <Constant "int16_mult">>`
        DS8 12
        REQUIRE `?<Initializer for <Constant "int32_div10">>`
        DS8 12
        REQUIRE `?<Initializer for <Constant "int32_div16">>`
        DS8 10
        REQUIRE `?<Initializer for <Constant "int32_div">>`
        DS8 17
        REQUIRE `?<Initializer for <Constant "int32_mult_const"`
        DS8 11
        REQUIRE `?<Initializer for <Constant "float_sqrt">>`
        DS8 11
        REQUIRE `?<Initializer for <Constant "int16_sqrt">>`
        DS8 15
        REQUIRE `?<Initializer for <Constant "int16_sqrt_asm">>`
        DS8 11
        REQUIRE `?<Initializer for <Constant "int32_sqrt">>`
        DS8 15
        REQUIRE `?<Initializer for <Constant "int32_sqrt_asm">>`
        DS8 10
        REQUIRE `?<Initializer for <Constant "float_sin">>`
        DS8 10
        REQUIRE `?<Initializer for <Constant "int16_sin">>`
        DS8 11
        REQUIRE `?<Initializer for <Constant "test_loop1">>`
        DS8 11
        REQUIRE `?<Initializer for <Constant "test_loop2">>`
        DS8 11
        REQUIRE `?<Initializer for <Constant "test_loop3">>`
        DS8 11
        REQUIRE `?<Initializer for <Constant "test_loop4">>`
        DS8 16
        REQUIRE `?<Initializer for <Constant "int16_pi_regler">`
        DS8 11
        REQUIRE `?<Initializer for <Constant "empty_func">>`
        DS8 12
        REQUIRE `?<Initializer for <Constant "print_int16">>`
        DS8 17
        REQUIRE `?<Initializer for <Constant "print_int16_itoa"`
//   88 
//   89 #include "asmlib.h"
//   90 
//   91 typedef void (*test_func_t)(void);
//   92 

        RSEG NEAR_I:DATA:NOROOT(0)
        REQUIRE `?<Segment init: NEAR_I>`
//   93 float a = 3454.345334, b = 12232.45345, c = 0.0;
a:
        DS8 4
        REQUIRE `?<Initializer for a>`
b:
        DS8 4
        REQUIRE `?<Initializer for b>`
c:
        DS8 4
        REQUIRE `?<Initializer for c>`
//   94 short d = 23442;
d:
        DS8 2
        REQUIRE `?<Initializer for d>`
//   95 

        RSEG CODE:CODE:NOROOT(1)
//   96 void float_convert_to_float() {
float_convert_to_float:
        CFI Block cfiBlock3 Using cfiCommon0
        CFI Function float_convert_to_float
        MOVW    R21:R20, R27:R26
//   97 	c = d;
        LDI     R26, LOW((a + 12))
        LDI     R27, HIGH((a + 12))
        LD      R16, X+
        LD      R17, X
        SBIW    R27:R26, 5
        MOV     R18, R17
        LSL     R18
        SBC     R18, R18
        MOV     R19, R18
        CALL    ?SL2F_L04
        ST      X+, R16
        ST      X+, R17
        ST      X+, R18
        ST      X, R19
//   98 }
        MOVW    R27:R26, R21:R20
        RET
        CFI EndBlock cfiBlock3
//   99 

        RSEG CODE:CODE:NOROOT(1)
//  100 void float_convert_to_int() {
float_convert_to_int:
        CFI Block cfiBlock4 Using cfiCommon0
        CFI Function float_convert_to_int
        MOV     R21, R27
        MOV     R22, R26
//  101 	d = (short) c;
        LDI     R26, LOW((a + 8))
        LDI     R27, HIGH((a + 8))
        LD      R16, X+
        LD      R17, X+
        LD      R18, X+
        LD      R19, X+
        CALL    ?F2SL_L04
        ST      X+, R16
        ST      X, R17
//  102 }
        MOV     R26, R22
        MOV     R27, R21
        RET
        CFI EndBlock cfiBlock4
//  103 

        RSEG CODE:CODE:NOROOT(1)
//  104 void float_add_const(void) {
float_add_const:
        CFI Block cfiBlock5 Using cfiCommon0
        CFI Function float_add_const
        ST      -Y, R27
        CFI R27 Frame(CFA_Y, -1)
        CFI CFA_Y Y+1
        ST      -Y, R26
        CFI R26 Frame(CFA_Y, -2)
        CFI CFA_Y Y+2
//  105 	c = a + 4.0;
        LDI     R26, LOW(a)
        LDI     R27, (a) >> 8
        LDI     R20, 0
        LDI     R21, 0
        LDI     R22, 128
        LDI     R23, 64
        LD      R16, X+
        LD      R17, X+
        LD      R18, X+
        LD      R19, X
        ADIW    R27:R26, 5
        CALL    ?F_ADD_L04
        RJMP    ??Subroutine6_0
        CFI EndBlock cfiBlock5
//  106 }
//  107 

        RSEG CODE:CODE:NOROOT(1)
//  108 void float_add(void) {
float_add:
        CFI Block cfiBlock6 Using cfiCommon0
        CFI Function float_add
        ST      -Y, R27
        CFI R27 Frame(CFA_Y, -1)
        CFI CFA_Y Y+1
        ST      -Y, R26
        CFI R26 Frame(CFA_Y, -2)
        CFI CFA_Y Y+2
//  109 	c = a + b;
        LDI     R26, LOW((a + 4))
        LDI     R27, HIGH((a + 4))
        LD      R16, X+
        LD      R17, X+
        LD      R18, X+
        LD      R19, X
        SBIW    R27:R26, 7
        LD      R20, X+
        LD      R21, X+
        LD      R22, X+
        LD      R23, X
        ADIW    R27:R26, 5
        CALL    ?F_ADD_L04
        RJMP    ??Subroutine6_0
        CFI EndBlock cfiBlock6
//  110 }  
//  111 

        RSEG CODE:CODE:NOROOT(1)
//  112 void float_mul_const(void) {
float_mul_const:
        CFI Block cfiBlock7 Using cfiCommon0
        CFI Function float_mul_const
        ST      -Y, R27
        CFI R27 Frame(CFA_Y, -1)
        CFI CFA_Y Y+1
        ST      -Y, R26
        CFI R26 Frame(CFA_Y, -2)
        CFI CFA_Y Y+2
//  113 	c = a * 4.0;
        LDI     R26, LOW(a)
        LDI     R27, (a) >> 8
        LDI     R20, 0
        LDI     R21, 0
        LDI     R22, 128
        LDI     R23, 64
        LD      R16, X+
        LD      R17, X+
        LD      R18, X+
        LD      R19, X
        ADIW    R27:R26, 5
        CALL    ?F_MUL_L04
        RJMP    ??Subroutine6_0
        CFI EndBlock cfiBlock7
//  114 } 

        RSEG CODE:CODE:NOROOT(1)
?Subroutine0:
        CFI Block cfiBlock8 Using cfiCommon0
        CFI NoFunction
        CFI CFA_Y Y+2
        CFI R26 Frame(CFA_Y, -2)
        CFI R27 Frame(CFA_Y, -1)
        LD      R16, X+
        LD      R17, X+
        LD      R18, X+
        LD      R19, X
        ADIW    R27:R26, 5
        CALL    ?F_DIV_L04
        CFI EndBlock cfiBlock8
        REQUIRE ??Subroutine6_0
        ;               // Fall through to label ??Subroutine6_0

        RSEG CODE:CODE:NOROOT(1)
??Subroutine6_0:
        CFI Block cfiBlock9 Using cfiCommon0
        CFI NoFunction
        CFI CFA_Y Y+2
        CFI R26 Frame(CFA_Y, -2)
        CFI R27 Frame(CFA_Y, -1)
        ST      X+, R16
        ST      X+, R17
        ST      X+, R18
        ST      X, R19
        LD      R26, Y+
        CFI CFA_Y Y+1
        CFI R26 SameValue
        LD      R27, Y+
        CFI CFA_Y Y+0
        CFI R27 SameValue
        RET
        CFI EndBlock cfiBlock9
//  115 

        RSEG CODE:CODE:NOROOT(1)
//  116 void float_mul(void) {
float_mul:
        CFI Block cfiBlock10 Using cfiCommon0
        CFI Function float_mul
        ST      -Y, R27
        CFI R27 Frame(CFA_Y, -1)
        CFI CFA_Y Y+1
        ST      -Y, R26
        CFI R26 Frame(CFA_Y, -2)
        CFI CFA_Y Y+2
//  117 	c = a * b;
        LDI     R26, LOW((a + 4))
        LDI     R27, HIGH((a + 4))
        LD      R16, X+
        LD      R17, X+
        LD      R18, X+
        LD      R19, X
        SBIW    R27:R26, 7
        LD      R20, X+
        LD      R21, X+
        LD      R22, X+
        LD      R23, X
        ADIW    R27:R26, 5
        CALL    ?F_MUL_L04
        RJMP    ??Subroutine6_0
        CFI EndBlock cfiBlock10
//  118 } 
//  119 

        RSEG CODE:CODE:NOROOT(1)
//  120 void float_div_const(void) {
float_div_const:
        CFI Block cfiBlock11 Using cfiCommon0
        CFI Function float_div_const
        ST      -Y, R27
        CFI R27 Frame(CFA_Y, -1)
        CFI CFA_Y Y+1
        ST      -Y, R26
        CFI R26 Frame(CFA_Y, -2)
        CFI CFA_Y Y+2
//  121 	c = a / 2.4;
        LDI     R26, LOW(a)
        LDI     R27, (a) >> 8
        LDI     R20, 154
        LDI     R21, 153
        LDI     R22, 25
        LDI     R23, 64
        RJMP    ?Subroutine0
        CFI EndBlock cfiBlock11
//  122 } 
//  123 

        RSEG CODE:CODE:NOROOT(1)
//  124 void float_div(void) {
float_div:
        CFI Block cfiBlock12 Using cfiCommon0
        CFI Function float_div
        ST      -Y, R27
        CFI R27 Frame(CFA_Y, -1)
        CFI CFA_Y Y+1
        ST      -Y, R26
        CFI R26 Frame(CFA_Y, -2)
        CFI CFA_Y Y+2
//  125 	c = a / b;
        LDI     R26, LOW((a + 4))
        LDI     R27, HIGH((a + 4))
        LD      R20, X+
        LD      R21, X+
        LD      R22, X+
        LD      R23, X
        SBIW    R27:R26, 7
        RJMP    ?Subroutine0
        CFI EndBlock cfiBlock12
//  126 }
//  127 

        RSEG CODE:CODE:NOROOT(1)
//  128 void float_sqrt() {
float_sqrt:
        CFI Block cfiBlock13 Using cfiCommon0
        CFI Function float_sqrt
        FUNCALL float_sqrt, sqrt
        LOCFRAME CSTACK, 2, STACK
        LOCFRAME RSTACK, 2, STACK
        ARGFRAME RSTACK, 0, STACK
        ST      -Y, R27
        CFI R27 Frame(CFA_Y, -1)
        CFI CFA_Y Y+1
        ST      -Y, R26
        CFI R26 Frame(CFA_Y, -2)
        CFI CFA_Y Y+2
//  129 	c = sqrt(a);
        LDI     R26, LOW(a)
        LDI     R27, (a) >> 8
        LD      R16, X+
        LD      R17, X+
        LD      R18, X+
        LD      R19, X
        ADIW    R27:R26, 5
        CALL    sqrt
        RJMP    ??Subroutine6_0
        CFI EndBlock cfiBlock13
//  130 }
//  131 

        RSEG CODE:CODE:NOROOT(1)
//  132 void float_sin() {
float_sin:
        CFI Block cfiBlock14 Using cfiCommon0
        CFI Function float_sin
        FUNCALL float_sin, sin
        LOCFRAME CSTACK, 2, STACK
        LOCFRAME RSTACK, 2, STACK
        ARGFRAME RSTACK, 0, STACK
        ST      -Y, R27
        CFI R27 Frame(CFA_Y, -1)
        CFI CFA_Y Y+1
        ST      -Y, R26
        CFI R26 Frame(CFA_Y, -2)
        CFI CFA_Y Y+2
//  133 	c = sin(a);	
        LDI     R26, LOW(a)
        LDI     R27, (a) >> 8
        LD      R16, X+
        LD      R17, X+
        LD      R18, X+
        LD      R19, X
        ADIW    R27:R26, 5
        CALL    sin
        RJMP    ??Subroutine6_0
        CFI EndBlock cfiBlock14
//  134 }
//  135 

        RSEG NEAR_I:DATA:NOROOT(0)
        REQUIRE `?<Segment init: NEAR_I>`
//  136 unsigned short i_a = 2344, i_b = 23, i_c;
i_a:
        DS8 2
        REQUIRE `?<Initializer for i_a>`
i_b:
        DS8 2
        REQUIRE `?<Initializer for i_b>`
i_c:
        DS8 2
        REQUIRE `?<Initializer for i_c>`
//  137 
//  138 static inline unsigned short div10(unsigned short in) { 
//  139     return (((unsigned long) in * 52429L)) >> 19;
//  140 }
//  141 

        RSEG CODE:CODE:NOROOT(1)
//  142 void int16_div10() {
int16_div10:
        CFI Block cfiBlock15 Using cfiCommon0
        CFI Function int16_div10
        MOVW    R19:R18, R27:R26
//  143 	i_c = i_a / 10;
        LDI     R26, LOW(i_a)
        LDI     R27, (i_a) >> 8
        LDI     R20, 10
        LDI     R21, 0
        CFI EndBlock cfiBlock15
        REQUIRE ?Subroutine4
        ;               // Fall through to label ?Subroutine4
//  144 }

        RSEG CODE:CODE:NOROOT(1)
?Subroutine4:
        CFI Block cfiBlock16 Using cfiCommon0
        CFI NoFunction
        LD      R16, X+
        LD      R17, X
        ADIW    R27:R26, 3
        CALL    ?US_DIVMOD_L02
        ST      X+, R16
        ST      X, R17
        MOVW    R27:R26, R19:R18
        RET
        CFI EndBlock cfiBlock16
//  145 

        RSEG CODE:CODE:NOROOT(1)
//  146 void int16_div10_fast() {
int16_div10_fast:
        CFI Block cfiBlock17 Using cfiCommon0
        CFI Function int16_div10_fast
//  147 	i_c = div10(i_a);
        LDI     R30, LOW(i_a)
        LDI     R31, (i_a) >> 8
        LD      R20, Z
        LDD     R21, Z+1
        LDI     R16, 205
        LDI     R17, 204
        CLR     R2
        MUL     R17, R21
        MOVW    R19:R18, R1:R0
        MUL     R17, R20
        MOV     R17, R0
        ADD     R18, R1
        ADC     R19, R2
        MUL     R16, R21
        ADD     R17, R0
        ADC     R18, R1
        ADC     R19, R2
        MUL     R16, R20
        ADD     R17, R1
        ADC     R18, R2
        ADC     R19, R2
        MOVW    R17:R16, R19:R18
        CFI EndBlock cfiBlock17
        REQUIRE ?Subroutine2
        ;               // Fall through to label ?Subroutine2
//  148 }

        RSEG CODE:CODE:NOROOT(1)
?Subroutine2:
        CFI Block cfiBlock18 Using cfiCommon0
        CFI NoFunction
        LSR     R17
        ROR     R16
        LSR     R17
        ROR     R16
        LSR     R17
        ROR     R16
        STD     Z+4, R16
        STD     Z+5, R17
        RET
        CFI EndBlock cfiBlock18
//  149 

        RSEG CODE:CODE:NOROOT(1)
//  150 void int16_div16() {
int16_div16:
        CFI Block cfiBlock19 Using cfiCommon0
        CFI Function int16_div16
//  151 	i_c = i_a / 16;
        LDI     R30, LOW(i_a)
        LDI     R31, (i_a) >> 8
        LD      R16, Z
        LDD     R17, Z+1
        LSR     R17
        ROR     R16
        RJMP    ?Subroutine2
        CFI EndBlock cfiBlock19
//  152 }
//  153 

        RSEG CODE:CODE:NOROOT(1)
//  154 void int16_div() {
int16_div:
        CFI Block cfiBlock20 Using cfiCommon0
        CFI Function int16_div
        MOVW    R19:R18, R27:R26
//  155     i_c = i_a / i_b;
        LDI     R26, LOW((i_a + 2))
        LDI     R27, HIGH((i_a + 2))
        LD      R20, X+
        LD      R21, X
        SBIW    R27:R26, 3
        RJMP    ?Subroutine4
        CFI EndBlock cfiBlock20
//  156 } 
//  157 

        RSEG CODE:CODE:NOROOT(1)
//  158 void int16_mult_const() {
int16_mult_const:
        CFI Block cfiBlock21 Using cfiCommon0
        CFI Function int16_mult_const
//  159     i_c = i_a * 23;
        LDI     R30, LOW(i_a)
        LDI     R31, (i_a) >> 8
        LD      R18, Z
        LDD     R19, Z+1
        LDI     R16, 23
        MUL     R16, R19
        MOV     R17, R0
        MUL     R16, R18
        ADD     R17, R1
        STD     Z+4, R0
        STD     Z+5, R17
//  160 } 
        RET
        CFI EndBlock cfiBlock21
//  161 

        RSEG CODE:CODE:NOROOT(1)
//  162 void int16_mult() {
int16_mult:
        CFI Block cfiBlock22 Using cfiCommon0
        CFI Function int16_mult
//  163     i_c = i_a * i_b;
        LDI     R30, LOW(i_a)
        LDI     R31, (i_a) >> 8
        LD      R16, Z
        LDD     R17, Z+1
        LDD     R18, Z+2
        LDD     R19, Z+3
        MUL     R19, R16
        MOV     R19, R0
        MUL     R18, R17
        ADD     R19, R0
        MUL     R18, R16
        ADD     R19, R1
        STD     Z+4, R0
        STD     Z+5, R19
//  164 } 
        RET
        CFI EndBlock cfiBlock22
//  165 

        RSEG NEAR_I:DATA:NOROOT(0)
        REQUIRE `?<Segment init: NEAR_I>`
//  166 unsigned long l_a = 23444, l_b = 23, l_c;
l_a:
        DS8 4
        REQUIRE `?<Initializer for l_a>`
l_b:
        DS8 4
        REQUIRE `?<Initializer for l_b>`
l_c:
        DS8 4
        REQUIRE `?<Initializer for l_c>`
//  167 

        RSEG CODE:CODE:NOROOT(1)
//  168 void int32_div10() {
int32_div10:
        CFI Block cfiBlock23 Using cfiCommon0
        CFI Function int32_div10
        ST      -Y, R27
        CFI R27 Frame(CFA_Y, -1)
        CFI CFA_Y Y+1
        MOV     R31, R26
//  169 	l_c = l_a / 10;
        LDI     R26, LOW(l_a)
        LDI     R27, (l_a) >> 8
        LDI     R20, 10
        LDI     R21, 0
        LDI     R22, 0
        LDI     R23, 0
        CFI EndBlock cfiBlock23
        REQUIRE ?Subroutine1
        ;               // Fall through to label ?Subroutine1
//  170 }

        RSEG CODE:CODE:NOROOT(1)
?Subroutine1:
        CFI Block cfiBlock24 Using cfiCommon0
        CFI NoFunction
        CFI CFA_Y Y+1
        CFI R27 Frame(CFA_Y, -1)
        LD      R16, X+
        LD      R17, X+
        LD      R18, X+
        LD      R19, X
        ADIW    R27:R26, 5
        CALL    ?UL_DIVMOD_L03
        ST      X+, R16
        ST      X+, R17
        ST      X+, R18
        ST      X, R19
        MOV     R26, R31
        LD      R27, Y+
        CFI CFA_Y Y+0
        CFI R26 R31
        CFI R27 SameValue
        CFI R31 R26
        RET
        CFI EndBlock cfiBlock24
//  171 

        RSEG CODE:CODE:NOROOT(1)
//  172 void int32_div16() {
int32_div16:
        CFI Block cfiBlock25 Using cfiCommon0
        CFI Function int32_div16
//  173 	l_c = l_a / 16;
        LDI     R30, LOW(l_a)
        LDI     R31, (l_a) >> 8
        LDI     R20, 4
        LD      R16, Z
        LDD     R17, Z+1
        LDD     R18, Z+2
        LDD     R19, Z+3
        CALL    ?UL_SHR_L03
        CFI EndBlock cfiBlock25
        REQUIRE ?Subroutine5
        ;               // Fall through to label ?Subroutine5
//  174 }

        RSEG CODE:CODE:NOROOT(1)
?Subroutine5:
        CFI Block cfiBlock26 Using cfiCommon0
        CFI NoFunction
        STD     Z+8, R16
        CFI EndBlock cfiBlock26
        REQUIRE ??Subroutine7_0
        ;               // Fall through to label ??Subroutine7_0

        RSEG CODE:CODE:NOROOT(1)
??Subroutine7_0:
        CFI Block cfiBlock27 Using cfiCommon0
        CFI NoFunction
        STD     Z+9, R17
        STD     Z+10, R18
        STD     Z+11, R19
        RET
        CFI EndBlock cfiBlock27
//  175 

        RSEG CODE:CODE:NOROOT(1)
//  176 void int32_div() {
int32_div:
        CFI Block cfiBlock28 Using cfiCommon0
        CFI Function int32_div
        ST      -Y, R27
        CFI R27 Frame(CFA_Y, -1)
        CFI CFA_Y Y+1
        MOV     R31, R26
//  177     l_c = l_a / l_b;
        LDI     R26, LOW((l_a + 4))
        LDI     R27, HIGH((l_a + 4))
        LD      R20, X+
        LD      R21, X+
        LD      R22, X+
        LD      R23, X
        SBIW    R27:R26, 7
        RJMP    ?Subroutine1
        CFI EndBlock cfiBlock28
//  178 } 
//  179 

        RSEG CODE:CODE:NOROOT(1)
//  180 void int32_mult_const() {
int32_mult_const:
        CFI Block cfiBlock29 Using cfiCommon0
        CFI Function int32_mult_const
//  181     l_c = l_a * 234;
        LDI     R30, LOW(l_a)
        LDI     R31, (l_a) >> 8
        LD      R20, Z
        LDD     R21, Z+1
        LDD     R22, Z+2
        LDD     R23, Z+3
        LDI     R16, 234
        CLR     R2
        MUL     R16, R23
        MOV     R19, R0
        MUL     R16, R22
        MOV     R18, R0
        ADD     R19, R1
        MUL     R16, R21
        MOV     R17, R0
        ADD     R18, R1
        ADC     R19, R2
        MUL     R16, R20
        ADD     R17, R1
        ADC     R18, R2
        ADC     R19, R2
        STD     Z+8, R0
        RJMP    ??Subroutine7_0
        CFI EndBlock cfiBlock29
//  182 } 
//  183 

        RSEG CODE:CODE:NOROOT(1)
//  184 void int32_mult() {
int32_mult:
        CFI Block cfiBlock30 Using cfiCommon0
        CFI Function int32_mult
//  185     l_c = l_a * l_b;
        LDI     R30, LOW(l_a)
        LDI     R31, (l_a) >> 8
        LD      R16, Z
        LDD     R17, Z+1
        LDD     R18, Z+2
        LDD     R19, Z+3
        LDD     R20, Z+4
        LDD     R21, Z+5
        LDD     R22, Z+6
        LDD     R23, Z+7
        CLR     R2
        MUL     R23, R16
        MOV     R23, R0
        MUL     R22, R17
        ADD     R23, R0
        MUL     R21, R18
        ADD     R23, R0
        MUL     R20, R19
        ADD     R23, R0
        MUL     R22, R16
        MOV     R22, R0
        ADD     R23, R1
        MUL     R21, R17
        ADD     R22, R0
        ADC     R23, R1
        MUL     R20, R18
        ADD     R22, R0
        ADC     R23, R1
        MUL     R21, R16
        MOV     R21, R0
        ADD     R22, R1
        ADC     R23, R2
        MUL     R20, R17
        ADD     R21, R0
        ADC     R22, R1
        ADC     R23, R2
        MUL     R20, R16
        ADD     R21, R1
        ADC     R22, R2
        ADC     R23, R2
        STD     Z+8, R0
        STD     Z+9, R21
        STD     Z+10, R22
        STD     Z+11, R23
//  186 }
        RET
        CFI EndBlock cfiBlock30
//  187 

        RSEG CODE:CODE:NOROOT(1)
//  188 void int32_sqrt() {
int32_sqrt:
        CFI Block cfiBlock31 Using cfiCommon0
        CFI Function int32_sqrt
//  189 	l_c = isqrt(23442342);
        FUNCALL int32_sqrt, isqrt
        LOCFRAME CSTACK, 0, STACK
        LOCFRAME RSTACK, 2, STACK
        ARGFRAME RSTACK, 0, STACK
        LDI     R16, 166
        LDI     R17, 179
        LDI     R18, 101
        LDI     R19, 1
        RCALL   isqrt
        LDI     R30, LOW(l_a)
        LDI     R31, (l_a) >> 8
        RJMP    ?Subroutine5
        CFI EndBlock cfiBlock31
//  190 }
//  191 

        RSEG CODE:CODE:NOROOT(1)
//  192 void int32_sqrt_asm() {
int32_sqrt_asm:
        CFI Block cfiBlock32 Using cfiCommon0
        CFI Function int32_sqrt_asm
//  193 #ifndef  __IAR_SYSTEMS_ICC__     
//  194 	l_c = isqrt32(23442342);
//  195 #endif
//  196 }
        RET
        CFI EndBlock cfiBlock32
//  197 

        RSEG CODE:CODE:NOROOT(1)
//  198 void int16_sqrt_asm() {
int16_sqrt_asm:
        CFI Block cfiBlock33 Using cfiCommon0
        CFI Function int16_sqrt_asm
//  199 #ifndef  __IAR_SYSTEMS_ICC__       
//  200 	i_c = isqrt16(23442);
//  201 #endif        
//  202 }
        RET
        CFI EndBlock cfiBlock33
//  203 

        RSEG CODE:CODE:NOROOT(1)
//  204 void int16_sqrt() {
int16_sqrt:
        CFI Block cfiBlock34 Using cfiCommon0
        CFI Function int16_sqrt
//  205 	i_c = isqrt_c16(23442);
        FUNCALL int16_sqrt, isqrt_c16
        LOCFRAME CSTACK, 0, STACK
        LOCFRAME RSTACK, 2, STACK
        ARGFRAME RSTACK, 0, STACK
        LDI     R16, 146
        LDI     R17, 91
        RCALL   isqrt_c16
        STS     (i_a + 4), R16
        STS     (i_a + 5), R17
//  206 }
        RET
        CFI EndBlock cfiBlock34
//  207 

        RSEG CODE:CODE:NOROOT(1)
//  208 void int16_sin() {
int16_sin:
        CFI Block cfiBlock35 Using cfiCommon0
        CFI Function int16_sin
//  209 	l_c = Sine(0x7FFF/6);
        FUNCALL int16_sin, Sine
        LOCFRAME CSTACK, 0, STACK
        LOCFRAME RSTACK, 2, STACK
        ARGFRAME RSTACK, 0, STACK
        LDI     R16, 85
        LDI     R17, 21
        LDI     R18, 0
        LDI     R19, 0
        RCALL   Sine
        MOV     R18, R17
        LSL     R18
        SBC     R18, R18
        LDI     R30, LOW(l_a)
        LDI     R31, (l_a) >> 8
        STD     Z+8, R16
        STD     Z+9, R17
        STD     Z+10, R18
        STD     Z+11, R18
//  210 }
        RET
        CFI EndBlock cfiBlock35
//  211 
//  212 

        RSEG CODE:CODE:NOROOT(1)
//  213 void empty_func() {
empty_func:
        CFI Block cfiBlock36 Using cfiCommon0
        CFI Function empty_func
//  214 }
        RET
        CFI EndBlock cfiBlock36
//  215 
//  216 #define MAX_U_STELL 1000L
//  217 int16_t v_soll = 100, v_ist = 80, u_stell;
//  218 

        RSEG CODE:CODE:NOROOT(1)
//  219 void int16_pi_regler() {
int16_pi_regler:
        CFI Block cfiBlock37 Using cfiCommon0
        CFI Function int16_pi_regler
//  220 	static int32_t u_stell_l = 0;
//  221 	static int16_t reg_abw, reg_abw_old;
//  222         static uint8_t kp = 50, ki = 15;
//  223         reg_abw = (v_soll - v_ist);
        LDI     R30, LOW(??u_stell_l)
        LDI     R31, (??u_stell_l) >> 8
        LDD     R22, Z+4
        LDD     R23, Z+5
        LDD     R16, Z+6
        LDD     R17, Z+7
        SUB     R22, R16
        SBC     R23, R17
        STD     Z+10, R22
        STD     Z+11, R23
//  224 	// PI-Regeler Geschwindigkeitsalgorithmus 
//  225 	u_stell_l  += reg_abw*kp + ((reg_abw*ki + 16) >> 5) - reg_abw_old*kp;
        LDD     R16, Z+14
        LDD     R18, Z+12
        LDD     R19, Z+13
        MOVW    R3:R2, R23:R22
        SUB     R2, R18
        SBC     R3, R19
        MUL     R3, R16
        MOV     R3, R0
        MUL     R2, R16
        MOV     R2, R0
        ADD     R3, R1
        LDD     R16, Z+15
        MUL     R16, R23
        MOV     R17, R0
        MUL     R16, R22
        MOV     R16, R0
        ADD     R17, R1
        SUBI    R16, 240
        SBCI    R17, 255
        LDI     R20, 5
        CALL    ?SS_SHR_L02
        ADD     R16, R2
        ADC     R17, R3
        MOV     R18, R17
        LSL     R18
        SBC     R18, R18
        LD      R0, Z
        LDD     R1, Z+1
        LDD     R2, Z+2
        LDD     R3, Z+3
        ADD     R0, R16
        ADC     R1, R17
        ADC     R2, R18
        ADC     R3, R18
        ST      Z, R0
        STD     Z+1, R1
        STD     Z+2, R2
        STD     Z+3, R3
//  226 	if (u_stell_l > (MAX_U_STELL << 5))
        MOVW    R17:R16, R1:R0
        MOVW    R19:R18, R3:R2
        CPI     R16, 1
        LDI     R20, 125
        CPC     R17, R20
        LDI     R20, 0
        CPC     R18, R20
        CPC     R19, R20
        BRLT    ??int16_pi_regler_0
//  227             u_stell_l = MAX_U_STELL << 5;
        LDI     R17, 125
        ST      Z, R20
        RJMP    ??int16_pi_regler_1
//  228         else if (u_stell_l < -(MAX_U_STELL << 5))
??int16_pi_regler_0:
        CPI     R16, 0
        SBCI    R17, 131
        LDI     R20, 255
        SBCI    R18, 255
        SBCI    R19, 255
        BRGE    ??int16_pi_regler_2
//  229             u_stell_l = -(MAX_U_STELL << 5); 
        LDI     R16, 0
        LDI     R17, 131
        ST      Z, R16
??int16_pi_regler_1:
        STD     Z+1, R17
        STD     Z+2, R20
        STD     Z+3, R20
//  230         u_stell     = u_stell_l >> 5;
??int16_pi_regler_2:
        LDI     R20, 5
        LD      R16, Z
        LDD     R17, Z+1
        LDD     R18, Z+2
        LDD     R19, Z+3
        CALL    ?SL_SHR_L03
        STD     Z+8, R16
        STD     Z+9, R17
//  231 	reg_abw_old = reg_abw; 
        STD     Z+12, R22
        STD     Z+13, R23
//  232 }
        RET
        CFI EndBlock cfiBlock37

        RSEG NEAR_I:DATA:NOROOT(0)
        REQUIRE `?<Segment init: NEAR_I>`
??u_stell_l:
        DS8 4
        REQUIRE `?<Initializer for u_stell_l>`
v_soll:
        DS8 2
        REQUIRE `?<Initializer for v_soll>`
v_ist:
        DS8 2
        REQUIRE `?<Initializer for v_ist>`
u_stell:
        DS8 2
        REQUIRE `?<Initializer for u_stell>`
        DS8 2
        REQUIRE `?<Initializer for reg_abw>`
        DS8 2
        REQUIRE `?<Initializer for reg_abw_old>`
        DS8 1
        REQUIRE `?<Initializer for kp>`
        DS8 1
        REQUIRE `?<Initializer for ki>`
//  233 
//  234 #ifdef  __IAR_SYSTEMS_ICC__
//  235 /* This port correponds to the "-W 0x20,-" command line option. */
//  236 #define special_output_port (*((__io *) SIM_WIO))
//  237 /* This port correponds to the "-R 0x22,-" command line option. */
//  238 #define special_input_port  (*((__io *) SIM_RIO))
//  239 #else
//  240 /* This port correponds to the "-W 0x20,-" command line option. */
//  241 #define special_output_port (*((volatile char *) SIM_WIO))
//  242 /* This port correponds to the "-R 0x22,-" command line option. */
//  243 #define special_input_port  (*((volatile char *) SIM_RIO))
//  244 #endif
//  245 
//  246 static void PrintString(const char* str) {
//  247 	const char *c;
//  248 #ifndef  __IAR_SYSTEMS_ICC__
//  249 	for(c = str; *c; c++)
//  250 	  special_output_port = *c;
//  251 #endif
//  252 }
//  253 

        RSEG CODE:CODE:NOROOT(1)
//  254 static void PrintSignedShortFormated(signed short value) {
PrintSignedShortFormated:
        CFI Block cfiBlock38 Using cfiCommon0
        CFI Function PrintSignedShortFormated
        MOV     R22, R24
        SBIW    R29:R28, 7
        CFI R22 R24
        CFI CFA_Y Y+7
        MOVW    R19:R18, R17:R16
//  255     unsigned char sBuf0[7];
//  256     unsigned char *sBuf = &sBuf0[6];
        MOVW    R31:R30, R29:R28
        ADIW    R31:R30, 6
//  257     unsigned char  minus;
//  258     unsigned short valueAlt;   // Alte Wert fr schneller % 10 Berechnung
//  259     unsigned short valueCalc;  // muss unsigned weil signed short kann kein 32768
//  260     
//  261     *sBuf = 0;       // String Terminierung
//  262     if (value < 0) { // Vorzeichen behandeln
        TST     R17
        BRPL    ??PrintSignedShortFormated_0
//  263       minus = '-';
        LDI     R24, 45
//  264       valueCalc = -value;
        NEG     R19
        NEG     R18
        SBCI    R19, 0
        MOVW    R17:R16, R19:R18
        RJMP    ??PrintSignedShortFormated_1
//  265     } else {
//  266       minus = ' ';
??PrintSignedShortFormated_0:
        LDI     R24, 32
//  267       valueCalc = value;
//  268     }
//  269     if (!valueCalc) 
??PrintSignedShortFormated_1:
        MOV     R18, R16
        OR      R18, R17
        BRNE    ??PrintSignedShortFormated_2
//  270       *--sBuf = '0';
        MOVW    R31:R30, R29:R28
        ADIW    R31:R30, 5
        RJMP    ??PrintSignedShortFormated_3
//  271     else while (valueCalc) {
//  272       valueAlt = valueCalc;
//  273       //  schneller als valueCalc /= 10;
//  274       valueCalc = div10(valueCalc); 
??PrintSignedShortFormated_2:
        MOVW    R21:R20, R17:R16
        LDI     R16, 205
        LDI     R17, 204
        CLR     R2
        MUL     R17, R21
        MOVW    R19:R18, R1:R0
        MUL     R17, R20
        MOV     R17, R0
        ADD     R18, R1
        ADC     R19, R2
        MUL     R16, R21
        ADD     R17, R0
        ADC     R18, R1
        ADC     R19, R2
        MUL     R16, R20
        ADD     R17, R1
        ADC     R18, R2
        ADC     R19, R2
        MOVW    R17:R16, R19:R18
        LSR     R17
        ROR     R16
        LSR     R17
        ROR     R16
        LSR     R17
        ROR     R16
//  275       // schneller als  *--sBuf = '0' + (valueAlt % 10)
//  276       *--sBuf = '0' + valueAlt - (valueCalc * 10); 
        MOV     R18, R20
        SUBI    R18, 208
        MOV     R20, R16
        LDI     R19, 10
        MUL     R20, R19
        SUB     R18, R0
        ST      -Z, R18
//  277     } 
        MOV     R18, R16
        OR      R18, R17
        BRNE    ??PrintSignedShortFormated_2
//  278     *--sBuf = minus;                  // Minuszeichen vor die hchstwertigste Stelle setzen
??PrintSignedShortFormated_3:
        ST      -Z, R24
        MOVW    R17:R16, R29:R28
//  279     while (sBuf > sBuf0)              // mit Leerzeichen auffllen (fr Formatierung)  
        CP      R16, R30
        CPC     R17, R31
        BRCC    ??PrintSignedShortFormated_4
//  280       *--sBuf = ' ';
??PrintSignedShortFormated_5:
        LDI     R18, 32
        ST      -Z, R18
        CP      R16, R30
        CPC     R17, R31
        BRCS    ??PrintSignedShortFormated_5
//  281     PrintString((const char*) sBuf0); // String ausgeben
//  282 }
??PrintSignedShortFormated_4:
        ADIW    R29:R28, 7
        CFI CFA_Y Y+0
        MOV     R24, R22
        RET
        CFI EndBlock cfiBlock38
//  283 
//  284 

        RSEG CODE:CODE:NOROOT(1)
//  285 void print_int16(void) {
print_int16:
        CFI Block cfiBlock39 Using cfiCommon0
        CFI Function print_int16
//  286 	PrintSignedShortFormated(-32421);
        FUNCALL print_int16, PrintSignedShortFormated
        LOCFRAME CSTACK, 0, STACK
        LOCFRAME RSTACK, 2, STACK
        ARGFRAME RSTACK, 0, STACK
        LDI     R16, 91
        LDI     R17, 129
        RJMP    PrintSignedShortFormated
        CFI EndBlock cfiBlock39
//  287 }
//  288 

        RSEG CODE:CODE:NOROOT(1)
//  289 void print_int16_itoa(void) {
print_int16_itoa:
        CFI Block cfiBlock40 Using cfiCommon0
        CFI Function print_int16_itoa
//  290 	unsigned char sbuf[7];
//  291 #ifndef  __IAR_SYSTEMS_ICC__    
//  292 	itoa(-32421, sbuf, 10);
//  293 #endif
//  294 	PrintString((const char*) sbuf);
//  295 }
        RET
        CFI EndBlock cfiBlock40
//  296 

        RSEG NEAR_Z:DATA:NOROOT(0)
        REQUIRE `?<Segment init: NEAR_Z>`
//  297 uint16_t buffer[10][10];
buffer:
        DS8 200
//  298 

        RSEG CODE:CODE:NOROOT(1)
//  299 void testData() {
testData:
        CFI Block cfiBlock41 Using cfiCommon0
        CFI Function testData
        MOVW    R21:R20, R27:R26
        MOVW    R19:R18, R25:R24
//  300   	uint8_t x, y;
//  301   	for (x = 0; x < 10; x++) {
        LDI     R16, 0
        LDI     R24, LOW(buffer)
        LDI     R25, (buffer) >> 8
//  302             for (y = 0; y < 10; y++) {
??testData_0:
        MOVW    R31:R30, R25:R24
        MOV     R26, R16
        LDI     R27, 0
        LDI     R17, 10
//  303                 buffer[x][y] = x + y*10;
??testData_1:
        ST      Z+, R26
        ST      Z+, R27
//  304             }
        ADIW    R27:R26, 10
        DEC     R17
        BRNE    ??testData_1
//  305   	}	
        INC     R16
        ADIW    R25:R24, 20
        CPI     R16, 10
        BRCS    ??testData_0
//  306 }
        MOVW    R25:R24, R19:R18
        MOVW    R27:R26, R21:R20
        RET
        CFI EndBlock cfiBlock41
//  307 

        RSEG CODE:CODE:NOROOT(1)
//  308 void test_loop1() {
test_loop1:
        CFI Block cfiBlock42 Using cfiCommon0
        CFI Function test_loop1
        MOV     R17, R25
        MOV     R20, R24
//  309   	uint8_t x, y;
//  310   	for (x = 0; x < 10; x++) {
        LDI     R24, LOW(buffer)
        LDI     R25, (buffer) >> 8
        LDI     R19, 10
//  311             for (y = 0; y < 10; y++) {
??test_loop1_0:
        MOVW    R31:R30, R25:R24
        LDI     R18, 10
        LDI     R16, 0
//  312                 buffer[x][y] = 0;
??test_loop1_1:
        ST      Z+, R16
        ST      Z+, R16
//  313             }
        DEC     R18
        BRNE    ??test_loop1_1
//  314   	}	
        ADIW    R25:R24, 20
        DEC     R19
        BRNE    ??test_loop1_0
//  315 }
        MOV     R24, R20
        MOV     R25, R17
        RET
        CFI EndBlock cfiBlock42
//  316 

        RSEG CODE:CODE:NOROOT(1)
//  317 void test_loop2() {
test_loop2:
//  318   	uint16_t *ptr = (uint16_t *) buffer; 
        REQUIRE ?Subroutine3
        ;               // Fall through to label ?Subroutine3

        RSEG CODE:CODE:NOROOT(1)
?Subroutine3:
        CFI Block cfiBlock43 Using cfiCommon0
        CFI NoFunction
        LDI     R30, LOW(buffer)
        LDI     R31, (buffer) >> 8
//  319   	uint8_t x;
//  320   	for (x = 0; x < 10*10; x++) {
        LDI     R18, 100
        LDI     R16, 0
//  321      	    *ptr++ = 0;
??Subroutine3_0:
        ST      Z+, R16
        ST      Z+, R16
        DEC     R18
        BRNE    ??Subroutine3_0
//  322   	}
//  323 }
        RET
        CFI EndBlock cfiBlock43
//  324 

        RSEG CODE:CODE:NOROOT(1)
//  325 void test_loop3() {
test_loop3:
        CFI Block cfiBlock44 Using cfiCommon0
        CFI Function test_loop3
//  326   	uint16_t *ptr = (uint16_t *) buffer; 
        RJMP    ?Subroutine3
        CFI EndBlock cfiBlock44
//  327   	uint8_t x = 10*10;
//  328   	while (x--) {
//  329      	    *ptr++ = 0;
//  330   	}
//  331 }
//  332 

        RSEG CODE:CODE:NOROOT(1)
//  333 void test_loop4() {
test_loop4:
        CFI Block cfiBlock45 Using cfiCommon0
        CFI Function test_loop4
//  334   	uint8_t x = 10;
//  335   	uint16_t *ptr = (uint16_t *) buffer; 
        LDI     R30, LOW(buffer)
        LDI     R31, (buffer) >> 8
        LDI     R18, 10
        LDI     R16, 0
//  336    	do {
//  337    		*ptr++ = 0;
??test_loop4_0:
        ST      Z+, R16
        ST      Z+, R16
//  338    		*ptr++ = 0;
        ST      Z+, R16
        ST      Z+, R16
//  339    		*ptr++ = 0; 
        ST      Z+, R16
        ST      Z+, R16
//  340    		*ptr++ = 0; 
        ST      Z+, R16
        ST      Z+, R16
//  341    		*ptr++ = 0; 
        ST      Z+, R16
        ST      Z+, R16
//  342    		*ptr++ = 0; 
        ST      Z+, R16
        ST      Z+, R16
//  343    		*ptr++ = 0; 
        ST      Z+, R16
        ST      Z+, R16
//  344    		*ptr++ = 0; 
        ST      Z+, R16
        ST      Z+, R16
//  345    		*ptr++ = 0; 
        ST      Z+, R16
        ST      Z+, R16
//  346    		*ptr++ = 0; 		
        ST      Z+, R16
        ST      Z+, R16
//  347    	} while (--x);
        DEC     R18
        BRNE    ??test_loop4_0
//  348 }
        RET
        CFI EndBlock cfiBlock45
//  349 
//  350 /*
//  351 static void PrintSignedShort(signed short value) {
//  352     unsigned char sBuf0[7];
//  353     unsigned char *sBuf = &sBuf0[6];
//  354     unsigned char x = 6, minus;
//  355     unsigned short valueAlt;   // Alte Wert fr schneller % 10 Berechnung
//  356     unsigned short valueCalc;  // muss unsigned weil signed short kann kein 32768
//  357     
//  358     *sBuf = 0;
//  359     if (value < 0) { // Vorzeichen behandeln
//  360       minus = 1;
//  361       valueCalc = -value;
//  362     } else {
//  363       minus = 0;
//  364       valueCalc = value;
//  365     }
//  366     do {
//  367       valueAlt = valueCalc;
//  368       valueCalc = div10(valueCalc); //  schneller als valueCalc /= 10;
//  369       *--sBuf = '0' + valueAlt - (valueCalc * 10); // schneller als  *--sBuf = '0' + (valueAlt % 10)
//  370     } while (valueCalc);
//  371     if (minus)
//  372 		*--sBuf = '-';                // Minuszeichen vor die hchstwertigste Stelle setzen
//  373     PrintString((const char*) sBuf0); // String ausgeben
//  374 }
//  375 */
//  376 
//  377 // typedef void (*test_func_t)(void);
//  378 #define TIME_FUNC(func) print_execute_time(func, "" # func) 
//  379 

        RSEG CODE:CODE:NOROOT(1)
//  380 unsigned short print_execute_time(test_func_t function, char name[]) {
print_execute_time:
        CFI Block cfiBlock46 Using cfiCommon0
        CFI Function print_execute_time
//  381 	// Timer anhalten und initialisieren
//  382 	TCCR1A = 0;
        FUNCALL print_execute_time
        LOCFRAME CSTACK, 0, STACK
        LOCFRAME RSTACK, 2, STACK
        ARGFRAME RSTACK, 0, STACK
        FUNCALL print_execute_time, PrintSignedShortFormated
        LOCFRAME CSTACK, 0, STACK
        LOCFRAME RSTACK, 2, STACK
        ARGFRAME RSTACK, 0, STACK
        LDI     R18, 0
        OUT     0x2F, R18
//  383 	TCCR1B = 0;
        OUT     0x2E, R18
//  384 	TCNT1  = 0;
        OUT     0x2D, R18
        OUT     0x2C, R18
//  385 	TIFR   = 0;
        OUT     0x36, R18
//  386 	TCCR1B = 1; // prescaler 1 Timer starten
        LDI     R18, 1
        OUT     0x2E, R18
//  387 	function();
        MOVW    R31:R30, R17:R16
        ICALL
//  388 	TCCR1B = 0; // Timer stoppen
        LDI     R16, 0
        OUT     0x2E, R16
//  389 	PrintSignedShortFormated(TCNT1);
        IN      R16, 0x2C
        IN      R17, 0x2D
        RCALL   PrintSignedShortFormated
//  390 	PrintString(" : ");
//  391 	PrintString(name);
//  392 	if (TIFR & (1 << 2))
        IN      R16, 0x36
//  393 		PrintString(" (Timeroverflow!)");	
//  394 	PrintString("\n");
//  395 	return TCNT1;
        IN      R16, 0x2C
        IN      R17, 0x2D
        RET
        CFI EndBlock cfiBlock46
        REQUIRE _A_TCCR1A
        REQUIRE _A_TCCR1B
        REQUIRE _A_TCNT1
        REQUIRE _A_TIFR
//  396 }
//  397 
//  398 static void assert_(uint8_t compareTrue, uint16_t line) {
//  399     if (!compareTrue) {
//  400       PrintString("Assert Error in Line ");
//  401       PrintSignedShortFormated(line);
//  402       PrintString("\n");
//  403     }
//  404 }
//  405 

        RSEG CODE:CODE:NOROOT(1)
//  406 int main() {
main:
        CFI Block cfiBlock47 Using cfiCommon0
        CFI Function main
//  407 	PrintString("\nZeitmessung Rechenoperationen\n");
//  408 	PrintString("\n Takte   Funktionsname\n");
//  409 	TIME_FUNC(float_convert_to_float);
        FUNCALL main, print_execute_time
        LOCFRAME CSTACK, 0, STACK
        LOCFRAME RSTACK, 2, STACK
        ARGFRAME RSTACK, 0, STACK
        FUNCALL main, print_execute_time
        LOCFRAME CSTACK, 0, STACK
        LOCFRAME RSTACK, 2, STACK
        ARGFRAME RSTACK, 0, STACK
        FUNCALL main, print_execute_time
        LOCFRAME CSTACK, 0, STACK
        LOCFRAME RSTACK, 2, STACK
        ARGFRAME RSTACK, 0, STACK
        FUNCALL main, print_execute_time
        LOCFRAME CSTACK, 0, STACK
        LOCFRAME RSTACK, 2, STACK
        ARGFRAME RSTACK, 0, STACK
        FUNCALL main, print_execute_time
        LOCFRAME CSTACK, 0, STACK
        LOCFRAME RSTACK, 2, STACK
        ARGFRAME RSTACK, 0, STACK
        FUNCALL main, print_execute_time
        LOCFRAME CSTACK, 0, STACK
        LOCFRAME RSTACK, 2, STACK
        ARGFRAME RSTACK, 0, STACK
        FUNCALL main, print_execute_time
        LOCFRAME CSTACK, 0, STACK
        LOCFRAME RSTACK, 2, STACK
        ARGFRAME RSTACK, 0, STACK
        FUNCALL main, print_execute_time
        LOCFRAME CSTACK, 0, STACK
        LOCFRAME RSTACK, 2, STACK
        ARGFRAME RSTACK, 0, STACK
        FUNCALL main, print_execute_time
        LOCFRAME CSTACK, 0, STACK
        LOCFRAME RSTACK, 2, STACK
        ARGFRAME RSTACK, 0, STACK
        FUNCALL main, print_execute_time
        LOCFRAME CSTACK, 0, STACK
        LOCFRAME RSTACK, 2, STACK
        ARGFRAME RSTACK, 0, STACK
        FUNCALL main, print_execute_time
        LOCFRAME CSTACK, 0, STACK
        LOCFRAME RSTACK, 2, STACK
        ARGFRAME RSTACK, 0, STACK
        FUNCALL main, print_execute_time
        LOCFRAME CSTACK, 0, STACK
        LOCFRAME RSTACK, 2, STACK
        ARGFRAME RSTACK, 0, STACK
        FUNCALL main, print_execute_time
        LOCFRAME CSTACK, 0, STACK
        LOCFRAME RSTACK, 2, STACK
        ARGFRAME RSTACK, 0, STACK
        FUNCALL main, print_execute_time
        LOCFRAME CSTACK, 0, STACK
        LOCFRAME RSTACK, 2, STACK
        ARGFRAME RSTACK, 0, STACK
        FUNCALL main, print_execute_time
        LOCFRAME CSTACK, 0, STACK
        LOCFRAME RSTACK, 2, STACK
        ARGFRAME RSTACK, 0, STACK
        FUNCALL main, print_execute_time
        LOCFRAME CSTACK, 0, STACK
        LOCFRAME RSTACK, 2, STACK
        ARGFRAME RSTACK, 0, STACK
        FUNCALL main, print_execute_time
        LOCFRAME CSTACK, 0, STACK
        LOCFRAME RSTACK, 2, STACK
        ARGFRAME RSTACK, 0, STACK
        FUNCALL main, print_execute_time
        LOCFRAME CSTACK, 0, STACK
        LOCFRAME RSTACK, 2, STACK
        ARGFRAME RSTACK, 0, STACK
        FUNCALL main, print_execute_time
        LOCFRAME CSTACK, 0, STACK
        LOCFRAME RSTACK, 2, STACK
        ARGFRAME RSTACK, 0, STACK
        FUNCALL main, print_execute_time
        LOCFRAME CSTACK, 0, STACK
        LOCFRAME RSTACK, 2, STACK
        ARGFRAME RSTACK, 0, STACK
        FUNCALL main, print_execute_time
        LOCFRAME CSTACK, 0, STACK
        LOCFRAME RSTACK, 2, STACK
        ARGFRAME RSTACK, 0, STACK
        FUNCALL main, print_execute_time
        LOCFRAME CSTACK, 0, STACK
        LOCFRAME RSTACK, 2, STACK
        ARGFRAME RSTACK, 0, STACK
        FUNCALL main, print_execute_time
        LOCFRAME CSTACK, 0, STACK
        LOCFRAME RSTACK, 2, STACK
        ARGFRAME RSTACK, 0, STACK
        FUNCALL main, print_execute_time
        LOCFRAME CSTACK, 0, STACK
        LOCFRAME RSTACK, 2, STACK
        ARGFRAME RSTACK, 0, STACK
        FUNCALL main, print_execute_time
        LOCFRAME CSTACK, 0, STACK
        LOCFRAME RSTACK, 2, STACK
        ARGFRAME RSTACK, 0, STACK
        FUNCALL main, testData
        LOCFRAME CSTACK, 0, STACK
        LOCFRAME RSTACK, 2, STACK
        ARGFRAME RSTACK, 0, STACK
        FUNCALL main, print_execute_time
        LOCFRAME CSTACK, 0, STACK
        LOCFRAME RSTACK, 2, STACK
        ARGFRAME RSTACK, 0, STACK
        FUNCALL main, testData
        LOCFRAME CSTACK, 0, STACK
        LOCFRAME RSTACK, 2, STACK
        ARGFRAME RSTACK, 0, STACK
        FUNCALL main, print_execute_time
        LOCFRAME CSTACK, 0, STACK
        LOCFRAME RSTACK, 2, STACK
        ARGFRAME RSTACK, 0, STACK
        FUNCALL main, testData
        LOCFRAME CSTACK, 0, STACK
        LOCFRAME RSTACK, 2, STACK
        ARGFRAME RSTACK, 0, STACK
        FUNCALL main, print_execute_time
        LOCFRAME CSTACK, 0, STACK
        LOCFRAME RSTACK, 2, STACK
        ARGFRAME RSTACK, 0, STACK
        FUNCALL main, testData
        LOCFRAME CSTACK, 0, STACK
        LOCFRAME RSTACK, 2, STACK
        ARGFRAME RSTACK, 0, STACK
        FUNCALL main, print_execute_time
        LOCFRAME CSTACK, 0, STACK
        LOCFRAME RSTACK, 2, STACK
        ARGFRAME RSTACK, 0, STACK
        FUNCALL main, PrintSignedShortFormated
        LOCFRAME CSTACK, 0, STACK
        LOCFRAME RSTACK, 2, STACK
        ARGFRAME RSTACK, 0, STACK
        FUNCALL main, print_execute_time
        LOCFRAME CSTACK, 0, STACK
        LOCFRAME RSTACK, 2, STACK
        ARGFRAME RSTACK, 0, STACK
        FUNCALL main, print_execute_time
        LOCFRAME CSTACK, 0, STACK
        LOCFRAME RSTACK, 2, STACK
        ARGFRAME RSTACK, 0, STACK
        FUNCALL main, print_execute_time
        LOCFRAME CSTACK, 0, STACK
        LOCFRAME RSTACK, 2, STACK
        ARGFRAME RSTACK, 0, STACK
        FUNCALL main, print_execute_time
        LOCFRAME CSTACK, 0, STACK
        LOCFRAME RSTACK, 2, STACK
        ARGFRAME RSTACK, 0, STACK
        LDI     R18, LOW(`?<Constant "float_convert_to_float">`)
        LDI     R19, (`?<Constant "float_convert_to_float">`) >> 8
        LDI     R16, LOW(float_convert_to_float/2)
        LDI     R17, (float_convert_to_float/2) >> 8
        RCALL   print_execute_time
//  410 	TIME_FUNC(float_convert_to_int);
        LDI     R18, LOW((`?<Constant "float_convert_to_float">` + 23))
        LDI     R19, HIGH((`?<Constant "float_convert_to_float">` + 23))
        LDI     R16, LOW(float_convert_to_int/2)
        LDI     R17, (float_convert_to_int/2) >> 8
        RCALL   print_execute_time
//  411 	TIME_FUNC(float_add_const);
        LDI     R18, LOW((`?<Constant "float_convert_to_float">` + 44))
        LDI     R19, HIGH((`?<Constant "float_convert_to_float">` + 44))
        LDI     R16, LOW(float_add_const/2)
        LDI     R17, (float_add_const/2) >> 8
        RCALL   print_execute_time
//  412 	TIME_FUNC(float_add);
        LDI     R18, LOW((`?<Constant "float_convert_to_float">` + 60))
        LDI     R19, HIGH((`?<Constant "float_convert_to_float">` + 60))
        LDI     R16, LOW(float_add/2)
        LDI     R17, (float_add/2) >> 8
        RCALL   print_execute_time
//  413 	TIME_FUNC(float_mul_const);
        LDI     R18, LOW((`?<Constant "float_convert_to_float">` + 70))
        LDI     R19, HIGH((`?<Constant "float_convert_to_float">` + 70))
        LDI     R16, LOW(float_mul_const/2)
        LDI     R17, (float_mul_const/2) >> 8
        RCALL   print_execute_time
//  414 	TIME_FUNC(float_mul);
        LDI     R18, LOW((`?<Constant "float_convert_to_float">` + 86))
        LDI     R19, HIGH((`?<Constant "float_convert_to_float">` + 86))
        LDI     R16, LOW(float_mul/2)
        LDI     R17, (float_mul/2) >> 8
        RCALL   print_execute_time
//  415 	TIME_FUNC(float_div_const);
        LDI     R18, LOW((`?<Constant "float_convert_to_float">` + 96))
        LDI     R19, HIGH((`?<Constant "float_convert_to_float">` + 96))
        LDI     R16, LOW(float_div_const/2)
        LDI     R17, (float_div_const/2) >> 8
        RCALL   print_execute_time
//  416 	TIME_FUNC(float_div);
        LDI     R18, LOW((`?<Constant "float_convert_to_float">` + 112))
        LDI     R19, HIGH((`?<Constant "float_convert_to_float">` + 112))
        LDI     R16, LOW(float_div/2)
        LDI     R17, (float_div/2) >> 8
        RCALL   print_execute_time
//  417 	TIME_FUNC(int16_div10);
        LDI     R18, LOW((`?<Constant "float_convert_to_float">` + 122))
        LDI     R19, HIGH((`?<Constant "float_convert_to_float">` + 122))
        LDI     R16, LOW(int16_div10/2)
        LDI     R17, (int16_div10/2) >> 8
        RCALL   print_execute_time
//  418     //assert_(i_c == 234, __LINE__);
//  419 	TIME_FUNC(int16_div10_fast);
        LDI     R18, LOW((`?<Constant "float_convert_to_float">` + 134))
        LDI     R19, HIGH((`?<Constant "float_convert_to_float">` + 134))
        LDI     R16, LOW(int16_div10_fast/2)
        LDI     R17, (int16_div10_fast/2) >> 8
        RCALL   print_execute_time
//  420     //assert_(i_c == 234, __LINE__);
//  421 	TIME_FUNC(int16_div16);
        LDI     R18, LOW((`?<Constant "float_convert_to_float">` + 151))
        LDI     R19, HIGH((`?<Constant "float_convert_to_float">` + 151))
        LDI     R16, LOW(int16_div16/2)
        LDI     R17, (int16_div16/2) >> 8
        RCALL   print_execute_time
//  422 	TIME_FUNC(int16_div);
        LDI     R18, LOW((`?<Constant "float_convert_to_float">` + 163))
        LDI     R19, HIGH((`?<Constant "float_convert_to_float">` + 163))
        LDI     R16, LOW(int16_div/2)
        LDI     R17, (int16_div/2) >> 8
        RCALL   print_execute_time
//  423 	TIME_FUNC(int16_mult_const);
        LDI     R18, LOW((`?<Constant "float_convert_to_float">` + 173))
        LDI     R19, HIGH((`?<Constant "float_convert_to_float">` + 173))
        LDI     R16, LOW(int16_mult_const/2)
        LDI     R17, (int16_mult_const/2) >> 8
        RCALL   print_execute_time
//  424     //assert_(i_c == 53912, __LINE__);
//  425 	TIME_FUNC(int16_mult);
        LDI     R18, LOW((`?<Constant "float_convert_to_float">` + 190))
        LDI     R19, HIGH((`?<Constant "float_convert_to_float">` + 190))
        LDI     R16, LOW(int16_mult/2)
        LDI     R17, (int16_mult/2) >> 8
        RCALL   print_execute_time
//  426     //assert_(i_c == 53912, __LINE__);	
//  427 	TIME_FUNC(int32_div10);
        LDI     R18, LOW((`?<Constant "float_convert_to_float">` + 201))
        LDI     R19, HIGH((`?<Constant "float_convert_to_float">` + 201))
        LDI     R16, LOW(int32_div10/2)
        LDI     R17, (int32_div10/2) >> 8
        RCALL   print_execute_time
//  428     //assert_(l_c == 2344, __LINE__);
//  429 	TIME_FUNC(int32_div16);
        LDI     R18, LOW((`?<Constant "float_convert_to_float">` + 213))
        LDI     R19, HIGH((`?<Constant "float_convert_to_float">` + 213))
        LDI     R16, LOW(int32_div16/2)
        LDI     R17, (int32_div16/2) >> 8
        RCALL   print_execute_time
//  430 	TIME_FUNC(int32_div);
        LDI     R18, LOW((`?<Constant "float_convert_to_float">` + 225))
        LDI     R19, HIGH((`?<Constant "float_convert_to_float">` + 225))
        LDI     R16, LOW(int32_div/2)
        LDI     R17, (int32_div/2) >> 8
        RCALL   print_execute_time
//  431 	TIME_FUNC(int32_mult_const);
        LDI     R18, LOW((`?<Constant "float_convert_to_float">` + 235))
        LDI     R19, HIGH((`?<Constant "float_convert_to_float">` + 235))
        LDI     R16, LOW(int32_mult_const/2)
        LDI     R17, (int32_mult_const/2) >> 8
        RCALL   print_execute_time
//  432 	TIME_FUNC(float_sqrt);
        LDI     R18, LOW((`?<Constant "float_convert_to_float">` + 252))
        LDI     R19, HIGH((`?<Constant "float_convert_to_float">` + 252))
        LDI     R16, LOW(float_sqrt/2)
        LDI     R17, (float_sqrt/2) >> 8
        RCALL   print_execute_time
//  433 	TIME_FUNC(int16_sqrt);
        LDI     R18, LOW((`?<Constant "float_convert_to_float">` + 263))
        LDI     R19, HIGH((`?<Constant "float_convert_to_float">` + 263))
        LDI     R16, LOW(int16_sqrt/2)
        LDI     R17, (int16_sqrt/2) >> 8
        RCALL   print_execute_time
//  434     //assert_(i_c == 153, __LINE__);
//  435 	TIME_FUNC(int16_sqrt_asm);
        LDI     R18, LOW((`?<Constant "float_convert_to_float">` + 274))
        LDI     R19, HIGH((`?<Constant "float_convert_to_float">` + 274))
        LDI     R16, LOW(int16_sqrt_asm/2)
        LDI     R17, (int16_sqrt_asm/2) >> 8
        RCALL   print_execute_time
//  436     //assert_(i_c == 153, __LINE__);	
//  437 	TIME_FUNC(int32_sqrt);
        LDI     R18, LOW((`?<Constant "float_convert_to_float">` + 289))
        LDI     R19, HIGH((`?<Constant "float_convert_to_float">` + 289))
        LDI     R16, LOW(int32_sqrt/2)
        LDI     R17, (int32_sqrt/2) >> 8
        RCALL   print_execute_time
//  438     //assert_(l_c == 4841, __LINE__);
//  439 	TIME_FUNC(int32_sqrt_asm);
        LDI     R18, LOW((`?<Constant "float_convert_to_float">` + 300))
        LDI     R19, HIGH((`?<Constant "float_convert_to_float">` + 300))
        LDI     R16, LOW(int32_sqrt_asm/2)
        LDI     R17, (int32_sqrt_asm/2) >> 8
        RCALL   print_execute_time
//  440     //assert_(l_c == 4841, __LINE__);
//  441 	TIME_FUNC(float_sin);
        LDI     R18, LOW((`?<Constant "float_convert_to_float">` + 315))
        LDI     R19, HIGH((`?<Constant "float_convert_to_float">` + 315))
        LDI     R16, LOW(float_sin/2)
        LDI     R17, (float_sin/2) >> 8
        RCALL   print_execute_time
//  442 	TIME_FUNC(int16_sin);
        LDI     R18, LOW((`?<Constant "float_convert_to_float">` + 325))
        LDI     R19, HIGH((`?<Constant "float_convert_to_float">` + 325))
        LDI     R16, LOW(int16_sin/2)
        LDI     R17, (int16_sin/2) >> 8
        RCALL   print_execute_time
//  443     testData();
        RCALL   testData
//  444 	TIME_FUNC(test_loop1);
        LDI     R18, LOW((`?<Constant "float_convert_to_float">` + 335))
        LDI     R19, HIGH((`?<Constant "float_convert_to_float">` + 335))
        LDI     R16, LOW(test_loop1/2)
        LDI     R17, (test_loop1/2) >> 8
        RCALL   print_execute_time
//  445     //assert_(buffer[9][9] == 0, __LINE__);
//  446 	testData();
        RCALL   testData
//  447     TIME_FUNC(test_loop2);
        LDI     R18, LOW((`?<Constant "float_convert_to_float">` + 346))
        LDI     R19, HIGH((`?<Constant "float_convert_to_float">` + 346))
        LDI     R16, LOW(test_loop2/2)
        LDI     R17, (test_loop2/2) >> 8
        RCALL   print_execute_time
//  448     //assert_(buffer[9][9] == 0, __LINE__);
//  449 	testData();
        RCALL   testData
//  450     TIME_FUNC(test_loop3);
        LDI     R18, LOW((`?<Constant "float_convert_to_float">` + 357))
        LDI     R19, HIGH((`?<Constant "float_convert_to_float">` + 357))
        LDI     R16, LOW(test_loop3/2)
        LDI     R17, (test_loop3/2) >> 8
        RCALL   print_execute_time
//  451     //assert_(buffer[9][9] == 0, __LINE__);
//  452 	testData();
        RCALL   testData
//  453     TIME_FUNC(test_loop4);
        LDI     R18, LOW((`?<Constant "float_convert_to_float">` + 368))
        LDI     R19, HIGH((`?<Constant "float_convert_to_float">` + 368))
        LDI     R16, LOW(test_loop4/2)
        LDI     R17, (test_loop4/2) >> 8
        RCALL   print_execute_time
//  454     assert_(buffer[9][9] == 0, __LINE__);
        LDS     R16, (buffer + 198)
        LDS     R17, (buffer + 199)
        OR      R16, R17
        BREQ    ??main_0
        LDI     R16, 198
        LDI     R17, 1
        RCALL   PrintSignedShortFormated
//  455     TIME_FUNC(int16_pi_regler);    
??main_0:
        LDI     R18, LOW((`?<Constant "float_convert_to_float">` + 379))
        LDI     R19, HIGH((`?<Constant "float_convert_to_float">` + 379))
        LDI     R16, LOW(int16_pi_regler/2)
        LDI     R17, (int16_pi_regler/2) >> 8
        RCALL   print_execute_time
//  456 	TIME_FUNC(empty_func);  
        LDI     R18, LOW((`?<Constant "float_convert_to_float">` + 395))
        LDI     R19, HIGH((`?<Constant "float_convert_to_float">` + 395))
        LDI     R16, LOW(empty_func/2)
        LDI     R17, (empty_func/2) >> 8
        RCALL   print_execute_time
//  457 	TIME_FUNC(print_int16);
        LDI     R18, LOW((`?<Constant "float_convert_to_float">` + 406))
        LDI     R19, HIGH((`?<Constant "float_convert_to_float">` + 406))
        LDI     R16, LOW(print_int16/2)
        LDI     R17, (print_int16/2) >> 8
        RCALL   print_execute_time
//  458 	TIME_FUNC(print_int16_itoa);
        LDI     R18, LOW((`?<Constant "float_convert_to_float">` + 418))
        LDI     R19, HIGH((`?<Constant "float_convert_to_float">` + 418))
        LDI     R16, LOW(print_int16_itoa/2)
        LDI     R17, (print_int16_itoa/2) >> 8
        RCALL   print_execute_time
//  459 	//PrintString(" - sqrt(23442.0)  = ");
//  460 	//PrintSignedShortFormated(sqrt(23442.0));	
//  461 	//PrintString("\n - isqrt16(23442) = ");
//  462 	//PrintSignedShortFormated(isqrt_c16(23442));
//  463 	//PrintString("\n");	
//  464 	return 0;	
        LDI     R16, 0
        LDI     R17, 0
        RET
        CFI EndBlock cfiBlock47
//  465 }

        ASEGN ABSOLUTE:DATA:NOROOT,01cH
__?EECR:

        ASEGN ABSOLUTE:DATA:NOROOT,01dH
__?EEDR:

        ASEGN ABSOLUTE:DATA:NOROOT,01eH
__?EEARL:

        ASEGN ABSOLUTE:DATA:NOROOT,01fH
__?EEARH:

        RSEG NEAR_ID:CODE:NOROOT(0)
`?<Initializer for <Constant "float_convert_to_`:
        DC8 "float_convert_to_float"
`?<Initializer for <Constant "float_convert_to__1`:
        DC8 "float_convert_to_int"
`?<Initializer for <Constant "float_add_const">`:
        DC8 "float_add_const"
`?<Initializer for <Constant "float_add">>`:
        DC8 "float_add"
`?<Initializer for <Constant "float_mul_const">`:
        DC8 "float_mul_const"
`?<Initializer for <Constant "float_mul">>`:
        DC8 "float_mul"
`?<Initializer for <Constant "float_div_const">`:
        DC8 "float_div_const"
`?<Initializer for <Constant "float_div">>`:
        DC8 "float_div"
`?<Initializer for <Constant "int16_div10">>`:
        DC8 "int16_div10"
`?<Initializer for <Constant "int16_div10_fast"`:
        DC8 "int16_div10_fast"
`?<Initializer for <Constant "int16_div16">>`:
        DC8 "int16_div16"
`?<Initializer for <Constant "int16_div">>`:
        DC8 "int16_div"
`?<Initializer for <Constant "int16_mult_const"`:
        DC8 "int16_mult_const"
`?<Initializer for <Constant "int16_mult">>`:
        DC8 "int16_mult"
`?<Initializer for <Constant "int32_div10">>`:
        DC8 "int32_div10"
`?<Initializer for <Constant "int32_div16">>`:
        DC8 "int32_div16"
`?<Initializer for <Constant "int32_div">>`:
        DC8 "int32_div"
`?<Initializer for <Constant "int32_mult_const"`:
        DC8 "int32_mult_const"
`?<Initializer for <Constant "float_sqrt">>`:
        DC8 "float_sqrt"
`?<Initializer for <Constant "int16_sqrt">>`:
        DC8 "int16_sqrt"
`?<Initializer for <Constant "int16_sqrt_asm">>`:
        DC8 "int16_sqrt_asm"
`?<Initializer for <Constant "int32_sqrt">>`:
        DC8 "int32_sqrt"
`?<Initializer for <Constant "int32_sqrt_asm">>`:
        DC8 "int32_sqrt_asm"
`?<Initializer for <Constant "float_sin">>`:
        DC8 "float_sin"
`?<Initializer for <Constant "int16_sin">>`:
        DC8 "int16_sin"
`?<Initializer for <Constant "test_loop1">>`:
        DC8 "test_loop1"
`?<Initializer for <Constant "test_loop2">>`:
        DC8 "test_loop2"
`?<Initializer for <Constant "test_loop3">>`:
        DC8 "test_loop3"
`?<Initializer for <Constant "test_loop4">>`:
        DC8 "test_loop4"
`?<Initializer for <Constant "int16_pi_regler">`:
        DC8 "int16_pi_regler"
`?<Initializer for <Constant "empty_func">>`:
        DC8 "empty_func"
`?<Initializer for <Constant "print_int16">>`:
        DC8 "print_int16"
`?<Initializer for <Constant "print_int16_itoa"`:
        DC8 "print_int16_itoa"

        RSEG INITTAB:CODE:NOROOT(0)
`?<Segment init: NEAR_I>`:
        DC16    SFE(NEAR_I) - SFB(NEAR_I)
        DC16    SFB(NEAR_I)
        DP      SFB(NEAR_ID)
        REQUIRE ?need_segment_init

        RSEG NEAR_ID:CODE:NOROOT(0)
`?<Initializer for a>`:
        DD 4557E586H
`?<Initializer for b>`:
        DD 463F21D0H
`?<Initializer for c>`:
        DD 0H
`?<Initializer for d>`:
        DC16 23442

        RSEG NEAR_ID:CODE:NOROOT(0)
`?<Initializer for i_a>`:
        DC16 2344
`?<Initializer for i_b>`:
        DC16 23
`?<Initializer for i_c>`:
        DC8 0, 0

        RSEG NEAR_ID:CODE:NOROOT(0)
`?<Initializer for l_a>`:
        DD 23444
`?<Initializer for l_b>`:
        DD 23
`?<Initializer for l_c>`:
        DC8 0, 0, 0, 0

        RSEG NEAR_ID:CODE:NOROOT(0)
`?<Initializer for u_stell_l>`:
        DD 0
`?<Initializer for v_soll>`:
        DC16 100
`?<Initializer for v_ist>`:
        DC16 80
`?<Initializer for u_stell>`:
        DC8 0, 0
`?<Initializer for reg_abw>`:
        DC8 0, 0
`?<Initializer for reg_abw_old>`:
        DC8 0, 0
`?<Initializer for kp>`:
        DC8 50
`?<Initializer for ki>`:
        DC8 15

        RSEG INITTAB:CODE:NOROOT(0)
`?<Segment init: NEAR_Z>`:
        DC16    SFE(NEAR_Z) - SFB(NEAR_Z)
        DC16    SFB(NEAR_Z)
        DP      0
        REQUIRE ?need_segment_init

        END
// 
//     5 bytes in segment ABSOLUTE
// 1 946 bytes in segment CODE
//    14 bytes in segment INITTAB
//   132 bytes in segment NEAR_F
//   483 bytes in segment NEAR_I
//   483 bytes in segment NEAR_ID
//   200 bytes in segment NEAR_Z
// 
// 2 561 bytes of CODE memory (+ 14 bytes shared)
//   683 bytes of DATA memory (+  5 bytes shared)
//
//Errors: none
//Warnings: 8
