
test_sim.elf:     file format elf32-avr

Sections:
Idx Name          Size      VMA       LMA       File off  Algn
  0 .data         00000332  00800100  00001c68  00001cfc  2**0
                  CONTENTS, ALLOC, LOAD, DATA
  1 .text         00001c68  00000000  00000000  00000094  2**1
                  CONTENTS, ALLOC, LOAD, READONLY, CODE
  2 .bss          0000020a  00800432  00800432  0000202e  2**0
                  ALLOC
  3 .stab         000023e8  00000000  00000000  00002030  2**2
                  CONTENTS, READONLY, DEBUGGING
  4 .stabstr      0000075f  00000000  00000000  00004418  2**0
                  CONTENTS, READONLY, DEBUGGING
  5 .debug_aranges 00000120  00000000  00000000  00004b77  2**0
                  CONTENTS, READONLY, DEBUGGING
  6 .debug_pubnames 00000403  00000000  00000000  00004c97  2**0
                  CONTENTS, READONLY, DEBUGGING
  7 .debug_info   00002429  00000000  00000000  0000509a  2**0
                  CONTENTS, READONLY, DEBUGGING
  8 .debug_abbrev 0000104c  00000000  00000000  000074c3  2**0
                  CONTENTS, READONLY, DEBUGGING
  9 .debug_line   00001497  00000000  00000000  0000850f  2**0
                  CONTENTS, READONLY, DEBUGGING
 10 .debug_frame  00000360  00000000  00000000  000099a8  2**2
                  CONTENTS, READONLY, DEBUGGING
 11 .debug_str    000005f1  00000000  00000000  00009d08  2**0
                  CONTENTS, READONLY, DEBUGGING
 12 .debug_loc    00000cd5  00000000  00000000  0000a2f9  2**0
                  CONTENTS, READONLY, DEBUGGING
 13 .debug_ranges 00000050  00000000  00000000  0000afce  2**0
                  CONTENTS, READONLY, DEBUGGING

Disassembly of section .text:

00000000 <__vectors>:
       0:	0c 94 97 00 	jmp	0x12e	; 0x12e <__ctors_end>
       4:	0c 94 b6 00 	jmp	0x16c	; 0x16c <__bad_interrupt>
       8:	0c 94 b6 00 	jmp	0x16c	; 0x16c <__bad_interrupt>
       c:	0c 94 b6 00 	jmp	0x16c	; 0x16c <__bad_interrupt>
      10:	0c 94 b6 00 	jmp	0x16c	; 0x16c <__bad_interrupt>
      14:	0c 94 b6 00 	jmp	0x16c	; 0x16c <__bad_interrupt>
      18:	0c 94 b6 00 	jmp	0x16c	; 0x16c <__bad_interrupt>
      1c:	0c 94 b6 00 	jmp	0x16c	; 0x16c <__bad_interrupt>
      20:	0c 94 b6 00 	jmp	0x16c	; 0x16c <__bad_interrupt>
      24:	0c 94 b6 00 	jmp	0x16c	; 0x16c <__bad_interrupt>
      28:	0c 94 b6 00 	jmp	0x16c	; 0x16c <__bad_interrupt>
      2c:	0c 94 b6 00 	jmp	0x16c	; 0x16c <__bad_interrupt>
      30:	0c 94 b6 00 	jmp	0x16c	; 0x16c <__bad_interrupt>
      34:	0c 94 b6 00 	jmp	0x16c	; 0x16c <__bad_interrupt>
      38:	0c 94 b6 00 	jmp	0x16c	; 0x16c <__bad_interrupt>
      3c:	0c 94 b6 00 	jmp	0x16c	; 0x16c <__bad_interrupt>
      40:	0c 94 b6 00 	jmp	0x16c	; 0x16c <__bad_interrupt>
      44:	0c 94 b6 00 	jmp	0x16c	; 0x16c <__bad_interrupt>
      48:	0c 94 b6 00 	jmp	0x16c	; 0x16c <__bad_interrupt>
      4c:	0c 94 b6 00 	jmp	0x16c	; 0x16c <__bad_interrupt>
      50:	0c 94 b6 00 	jmp	0x16c	; 0x16c <__bad_interrupt>
      54:	0c 94 b6 00 	jmp	0x16c	; 0x16c <__bad_interrupt>
      58:	0c 94 b6 00 	jmp	0x16c	; 0x16c <__bad_interrupt>
      5c:	0c 94 b6 00 	jmp	0x16c	; 0x16c <__bad_interrupt>
      60:	0c 94 b6 00 	jmp	0x16c	; 0x16c <__bad_interrupt>
      64:	0c 94 b6 00 	jmp	0x16c	; 0x16c <__bad_interrupt>
      68:	0c 94 b6 00 	jmp	0x16c	; 0x16c <__bad_interrupt>
      6c:	0c 94 b6 00 	jmp	0x16c	; 0x16c <__bad_interrupt>
      70:	0c 94 b6 00 	jmp	0x16c	; 0x16c <__bad_interrupt>
      74:	0c 94 b6 00 	jmp	0x16c	; 0x16c <__bad_interrupt>
      78:	0c 94 b6 00 	jmp	0x16c	; 0x16c <__bad_interrupt>
      7c:	0c 94 b6 00 	jmp	0x16c	; 0x16c <__bad_interrupt>
      80:	0c 94 b6 00 	jmp	0x16c	; 0x16c <__bad_interrupt>
      84:	0c 94 b6 00 	jmp	0x16c	; 0x16c <__bad_interrupt>
      88:	0c 94 b6 00 	jmp	0x16c	; 0x16c <__bad_interrupt>
      8c:	05 a8       	ldd	r0, Z+53	; 0x35
      8e:	4c cd       	rjmp	.-1384   	; 0xfffffb28 <__eeprom_end+0xff7efb28>
      90:	b2 d4       	rcall	.+2404   	; 0x9f6 <main+0x200>
      92:	4e b9       	out	0x0e, r20	; 14
      94:	38 36       	cpi	r19, 0x68	; 104
      96:	a9 02       	muls	r26, r25
      98:	0c 50       	subi	r16, 0x0C	; 12
      9a:	b9 91       	ld	r27, Y+
      9c:	86 88       	ldd	r8, Z+22	; 0x16
      9e:	08 3c       	cpi	r16, 0xC8	; 200
      a0:	a6 aa       	std	Z+54, r10	; 0x36
      a2:	aa 2a       	or	r10, r26
      a4:	be 00       	.word	0x00be	; ????
      a6:	00 00       	nop
      a8:	80 3f       	cpi	r24, 0xF0	; 240

000000aa <sin_table>:
      aa:	00 00 24 03 48 06 6a 09 8c 0c ab 0f c8 12 e2 15     ..$.H.j.........
      ba:	f9 18 0b 1c 1a 1f 23 22 28 25 26 28 1f 2b 11 2e     ......#"(%&(.+..
      ca:	fb 30 df 33 ba 36 8c 39 56 3c 17 3f ce 41 7a 44     .0.3.6.9V<.?.AzD
      da:	1c 47 b4 49 3f 4c bf 4e 33 51 9b 53 f5 55 42 58     .G.I?L.N3Q.S.UBX
      ea:	82 5a b3 5c d7 5e eb 60 f1 62 e8 64 cf 66 a6 68     .Z.\.^.`.b.d.f.h
      fa:	6d 6a 23 6c c9 6d 5e 6f e2 70 54 72 b5 73 04 75     mj#l.m^o.pTr.s.u
     10a:	41 76 6b 77 84 78 89 79 7c 7a 5c 7b 29 7c e3 7c     Avkw.x.y|z\{)|.|
     11a:	89 7d 1d 7e 9c 7e 09 7f 61 7f a6 7f d8 7f f5 7f     .}.~.~..a.......
     12a:	ff 7f f5 7f                                         ....

0000012e <__ctors_end>:
     12e:	11 24       	eor	r1, r1
     130:	1f be       	out	0x3f, r1	; 63
     132:	cf ef       	ldi	r28, 0xFF	; 255
     134:	d0 e1       	ldi	r29, 0x10	; 16
     136:	de bf       	out	0x3e, r29	; 62
     138:	cd bf       	out	0x3d, r28	; 61

0000013a <__do_copy_data>:
     13a:	14 e0       	ldi	r17, 0x04	; 4
     13c:	a0 e0       	ldi	r26, 0x00	; 0
     13e:	b1 e0       	ldi	r27, 0x01	; 1
     140:	e8 e6       	ldi	r30, 0x68	; 104
     142:	fc e1       	ldi	r31, 0x1C	; 28
     144:	00 e0       	ldi	r16, 0x00	; 0
     146:	0b bf       	out	0x3b, r16	; 59
     148:	02 c0       	rjmp	.+4      	; 0x14e <__do_copy_data+0x14>
     14a:	07 90       	elpm	r0, Z+
     14c:	0d 92       	st	X+, r0
     14e:	a2 33       	cpi	r26, 0x32	; 50
     150:	b1 07       	cpc	r27, r17
     152:	d9 f7       	brne	.-10     	; 0x14a <__do_copy_data+0x10>

00000154 <__do_clear_bss>:
     154:	16 e0       	ldi	r17, 0x06	; 6
     156:	a2 e3       	ldi	r26, 0x32	; 50
     158:	b4 e0       	ldi	r27, 0x04	; 4
     15a:	01 c0       	rjmp	.+2      	; 0x15e <.do_clear_bss_start>

0000015c <.do_clear_bss_loop>:
     15c:	1d 92       	st	X+, r1

0000015e <.do_clear_bss_start>:
     15e:	ac 33       	cpi	r26, 0x3C	; 60
     160:	b1 07       	cpc	r27, r17
     162:	e1 f7       	brne	.-8      	; 0x15c <.do_clear_bss_loop>
     164:	0e 94 fb 03 	call	0x7f6	; 0x7f6 <main>
     168:	0c 94 32 0e 	jmp	0x1c64	; 0x1c64 <_exit>

0000016c <__bad_interrupt>:
     16c:	0c 94 00 00 	jmp	0	; 0x0 <__vectors>

00000170 <float_convert_to_float>:

float a = 3454.345334, b = 12232.45345, c = 0.0;
short d = 23442;

void float_convert_to_float() {
	c = d;
     170:	60 91 1c 03 	lds	r22, 0x031C
     174:	70 91 1d 03 	lds	r23, 0x031D
     178:	88 27       	eor	r24, r24
     17a:	77 fd       	sbrc	r23, 7
     17c:	80 95       	com	r24
     17e:	98 2f       	mov	r25, r24
     180:	0e 94 49 09 	call	0x1292	; 0x1292 <__floatsisf>
     184:	60 93 32 04 	sts	0x0432, r22
     188:	70 93 33 04 	sts	0x0433, r23
     18c:	80 93 34 04 	sts	0x0434, r24
     190:	90 93 35 04 	sts	0x0435, r25
}
     194:	08 95       	ret

00000196 <float_convert_to_int>:

void float_convert_to_int() {
	d = c;
     196:	60 91 32 04 	lds	r22, 0x0432
     19a:	70 91 33 04 	lds	r23, 0x0433
     19e:	80 91 34 04 	lds	r24, 0x0434
     1a2:	90 91 35 04 	lds	r25, 0x0435
     1a6:	0e 94 a7 09 	call	0x134e	; 0x134e <__fixsfsi>
     1aa:	70 93 1d 03 	sts	0x031D, r23
     1ae:	60 93 1c 03 	sts	0x031C, r22
}
     1b2:	08 95       	ret

000001b4 <float_add_const>:

void float_add_const(void) {
	c = a + 4.0;
     1b4:	60 91 14 03 	lds	r22, 0x0314
     1b8:	70 91 15 03 	lds	r23, 0x0315
     1bc:	80 91 16 03 	lds	r24, 0x0316
     1c0:	90 91 17 03 	lds	r25, 0x0317
     1c4:	20 e0       	ldi	r18, 0x00	; 0
     1c6:	30 e0       	ldi	r19, 0x00	; 0
     1c8:	40 e8       	ldi	r20, 0x80	; 128
     1ca:	50 e4       	ldi	r21, 0x40	; 64
     1cc:	0e 94 76 07 	call	0xeec	; 0xeec <__addsf3>
     1d0:	60 93 32 04 	sts	0x0432, r22
     1d4:	70 93 33 04 	sts	0x0433, r23
     1d8:	80 93 34 04 	sts	0x0434, r24
     1dc:	90 93 35 04 	sts	0x0435, r25
}
     1e0:	08 95       	ret

000001e2 <float_add>:

void float_add(void) {
	c = a + b;
     1e2:	60 91 14 03 	lds	r22, 0x0314
     1e6:	70 91 15 03 	lds	r23, 0x0315
     1ea:	80 91 16 03 	lds	r24, 0x0316
     1ee:	90 91 17 03 	lds	r25, 0x0317
     1f2:	20 91 18 03 	lds	r18, 0x0318
     1f6:	30 91 19 03 	lds	r19, 0x0319
     1fa:	40 91 1a 03 	lds	r20, 0x031A
     1fe:	50 91 1b 03 	lds	r21, 0x031B
     202:	0e 94 76 07 	call	0xeec	; 0xeec <__addsf3>
     206:	60 93 32 04 	sts	0x0432, r22
     20a:	70 93 33 04 	sts	0x0433, r23
     20e:	80 93 34 04 	sts	0x0434, r24
     212:	90 93 35 04 	sts	0x0435, r25
}  
     216:	08 95       	ret

00000218 <float_mul_const>:

void float_mul_const(void) {
	c = a * 4.0;
     218:	60 91 14 03 	lds	r22, 0x0314
     21c:	70 91 15 03 	lds	r23, 0x0315
     220:	80 91 16 03 	lds	r24, 0x0316
     224:	90 91 17 03 	lds	r25, 0x0317
     228:	20 e0       	ldi	r18, 0x00	; 0
     22a:	30 e0       	ldi	r19, 0x00	; 0
     22c:	40 e8       	ldi	r20, 0x80	; 128
     22e:	50 e4       	ldi	r21, 0x40	; 64
     230:	0e 94 a3 07 	call	0xf46	; 0xf46 <__mulsf3>
     234:	60 93 32 04 	sts	0x0432, r22
     238:	70 93 33 04 	sts	0x0433, r23
     23c:	80 93 34 04 	sts	0x0434, r24
     240:	90 93 35 04 	sts	0x0435, r25
} 
     244:	08 95       	ret

00000246 <float_mul>:

void float_mul(void) {
	c = a * b;
     246:	60 91 14 03 	lds	r22, 0x0314
     24a:	70 91 15 03 	lds	r23, 0x0315
     24e:	80 91 16 03 	lds	r24, 0x0316
     252:	90 91 17 03 	lds	r25, 0x0317
     256:	20 91 18 03 	lds	r18, 0x0318
     25a:	30 91 19 03 	lds	r19, 0x0319
     25e:	40 91 1a 03 	lds	r20, 0x031A
     262:	50 91 1b 03 	lds	r21, 0x031B
     266:	0e 94 a3 07 	call	0xf46	; 0xf46 <__mulsf3>
     26a:	60 93 32 04 	sts	0x0432, r22
     26e:	70 93 33 04 	sts	0x0433, r23
     272:	80 93 34 04 	sts	0x0434, r24
     276:	90 93 35 04 	sts	0x0435, r25
} 
     27a:	08 95       	ret

0000027c <float_div_const>:

void float_div_const(void) {
	c = a / 2.4;
     27c:	60 91 14 03 	lds	r22, 0x0314
     280:	70 91 15 03 	lds	r23, 0x0315
     284:	80 91 16 03 	lds	r24, 0x0316
     288:	90 91 17 03 	lds	r25, 0x0317
     28c:	2a e9       	ldi	r18, 0x9A	; 154
     28e:	39 e9       	ldi	r19, 0x99	; 153
     290:	49 e1       	ldi	r20, 0x19	; 25
     292:	50 e4       	ldi	r21, 0x40	; 64
     294:	0e 94 9d 08 	call	0x113a	; 0x113a <__divsf3>
     298:	60 93 32 04 	sts	0x0432, r22
     29c:	70 93 33 04 	sts	0x0433, r23
     2a0:	80 93 34 04 	sts	0x0434, r24
     2a4:	90 93 35 04 	sts	0x0435, r25
} 
     2a8:	08 95       	ret

000002aa <float_div>:

void float_div(void) {
	c = a / b;
     2aa:	60 91 14 03 	lds	r22, 0x0314
     2ae:	70 91 15 03 	lds	r23, 0x0315
     2b2:	80 91 16 03 	lds	r24, 0x0316
     2b6:	90 91 17 03 	lds	r25, 0x0317
     2ba:	20 91 18 03 	lds	r18, 0x0318
     2be:	30 91 19 03 	lds	r19, 0x0319
     2c2:	40 91 1a 03 	lds	r20, 0x031A
     2c6:	50 91 1b 03 	lds	r21, 0x031B
     2ca:	0e 94 9d 08 	call	0x113a	; 0x113a <__divsf3>
     2ce:	60 93 32 04 	sts	0x0432, r22
     2d2:	70 93 33 04 	sts	0x0433, r23
     2d6:	80 93 34 04 	sts	0x0434, r24
     2da:	90 93 35 04 	sts	0x0435, r25
}
     2de:	08 95       	ret

000002e0 <int16_div10>:
static inline unsigned short div10(unsigned short in) { 
    return (((unsigned long) in * 52429L)) >> 19;
}

void int16_div10() {
	i_c = i_a / 10;
     2e0:	80 91 1e 03 	lds	r24, 0x031E
     2e4:	90 91 1f 03 	lds	r25, 0x031F
     2e8:	6a e0       	ldi	r22, 0x0A	; 10
     2ea:	70 e0       	ldi	r23, 0x00	; 0
     2ec:	0e 94 b6 0b 	call	0x176c	; 0x176c <__udivmodhi4>
     2f0:	70 93 3b 04 	sts	0x043B, r23
     2f4:	60 93 3a 04 	sts	0x043A, r22
}
     2f8:	08 95       	ret

000002fa <int16_div10_fast>:

void int16_div10_fast() {
	i_c = div10(i_a);
     2fa:	60 91 1e 03 	lds	r22, 0x031E
     2fe:	70 91 1f 03 	lds	r23, 0x031F
     302:	80 e0       	ldi	r24, 0x00	; 0
     304:	90 e0       	ldi	r25, 0x00	; 0
     306:	2d ec       	ldi	r18, 0xCD	; 205
     308:	3c ec       	ldi	r19, 0xCC	; 204
     30a:	40 e0       	ldi	r20, 0x00	; 0
     30c:	50 e0       	ldi	r21, 0x00	; 0
     30e:	0e 94 97 0b 	call	0x172e	; 0x172e <__mulsi3>
     312:	23 e1       	ldi	r18, 0x13	; 19
     314:	96 95       	lsr	r25
     316:	87 95       	ror	r24
     318:	77 95       	ror	r23
     31a:	67 95       	ror	r22
     31c:	2a 95       	dec	r18
     31e:	d1 f7       	brne	.-12     	; 0x314 <int16_div10_fast+0x1a>
     320:	70 93 3b 04 	sts	0x043B, r23
     324:	60 93 3a 04 	sts	0x043A, r22
}
     328:	08 95       	ret

0000032a <int16_div16>:

void int16_div16() {
	i_c = i_a / 16;
     32a:	80 91 1e 03 	lds	r24, 0x031E
     32e:	90 91 1f 03 	lds	r25, 0x031F
     332:	92 95       	swap	r25
     334:	82 95       	swap	r24
     336:	8f 70       	andi	r24, 0x0F	; 15
     338:	89 27       	eor	r24, r25
     33a:	9f 70       	andi	r25, 0x0F	; 15
     33c:	89 27       	eor	r24, r25
     33e:	90 93 3b 04 	sts	0x043B, r25
     342:	80 93 3a 04 	sts	0x043A, r24
}
     346:	08 95       	ret

00000348 <int16_div>:

void int16_div() {
    i_c = i_a / i_b;
     348:	60 91 20 03 	lds	r22, 0x0320
     34c:	70 91 21 03 	lds	r23, 0x0321
     350:	80 91 1e 03 	lds	r24, 0x031E
     354:	90 91 1f 03 	lds	r25, 0x031F
     358:	0e 94 b6 0b 	call	0x176c	; 0x176c <__udivmodhi4>
     35c:	70 93 3b 04 	sts	0x043B, r23
     360:	60 93 3a 04 	sts	0x043A, r22
} 
     364:	08 95       	ret

00000366 <int16_mult_const>:

void int16_mult_const() {
    i_c = i_a * 234;
     366:	80 91 1e 03 	lds	r24, 0x031E
     36a:	90 91 1f 03 	lds	r25, 0x031F
     36e:	2a ee       	ldi	r18, 0xEA	; 234
     370:	30 e0       	ldi	r19, 0x00	; 0
     372:	ac 01       	movw	r20, r24
     374:	42 9f       	mul	r20, r18
     376:	c0 01       	movw	r24, r0
     378:	43 9f       	mul	r20, r19
     37a:	90 0d       	add	r25, r0
     37c:	52 9f       	mul	r21, r18
     37e:	90 0d       	add	r25, r0
     380:	11 24       	eor	r1, r1
     382:	90 93 3b 04 	sts	0x043B, r25
     386:	80 93 3a 04 	sts	0x043A, r24
} 
     38a:	08 95       	ret

0000038c <int16_mult>:

void int16_mult() {
    i_c = i_a * i_b;
     38c:	80 91 20 03 	lds	r24, 0x0320
     390:	90 91 21 03 	lds	r25, 0x0321
     394:	20 91 1e 03 	lds	r18, 0x031E
     398:	30 91 1f 03 	lds	r19, 0x031F
     39c:	ac 01       	movw	r20, r24
     39e:	42 9f       	mul	r20, r18
     3a0:	c0 01       	movw	r24, r0
     3a2:	43 9f       	mul	r20, r19
     3a4:	90 0d       	add	r25, r0
     3a6:	52 9f       	mul	r21, r18
     3a8:	90 0d       	add	r25, r0
     3aa:	11 24       	eor	r1, r1
     3ac:	90 93 3b 04 	sts	0x043B, r25
     3b0:	80 93 3a 04 	sts	0x043A, r24
} 
     3b4:	08 95       	ret

000003b6 <int32_div10>:

unsigned long l_a = 23444, l_b = 23, l_c;

void int32_div10() {
	l_c = l_a / 10;
     3b6:	60 91 22 03 	lds	r22, 0x0322
     3ba:	70 91 23 03 	lds	r23, 0x0323
     3be:	80 91 24 03 	lds	r24, 0x0324
     3c2:	90 91 25 03 	lds	r25, 0x0325
     3c6:	2a e0       	ldi	r18, 0x0A	; 10
     3c8:	30 e0       	ldi	r19, 0x00	; 0
     3ca:	40 e0       	ldi	r20, 0x00	; 0
     3cc:	50 e0       	ldi	r21, 0x00	; 0
     3ce:	0e 94 ca 0b 	call	0x1794	; 0x1794 <__udivmodsi4>
     3d2:	20 93 36 04 	sts	0x0436, r18
     3d6:	30 93 37 04 	sts	0x0437, r19
     3da:	40 93 38 04 	sts	0x0438, r20
     3de:	50 93 39 04 	sts	0x0439, r21
}
     3e2:	08 95       	ret

000003e4 <int32_div16>:

void int32_div16() {
	l_c = l_a / 16;
     3e4:	80 91 22 03 	lds	r24, 0x0322
     3e8:	90 91 23 03 	lds	r25, 0x0323
     3ec:	a0 91 24 03 	lds	r26, 0x0324
     3f0:	b0 91 25 03 	lds	r27, 0x0325
     3f4:	44 e0       	ldi	r20, 0x04	; 4
     3f6:	b6 95       	lsr	r27
     3f8:	a7 95       	ror	r26
     3fa:	97 95       	ror	r25
     3fc:	87 95       	ror	r24
     3fe:	4a 95       	dec	r20
     400:	d1 f7       	brne	.-12     	; 0x3f6 <int32_div16+0x12>
     402:	80 93 36 04 	sts	0x0436, r24
     406:	90 93 37 04 	sts	0x0437, r25
     40a:	a0 93 38 04 	sts	0x0438, r26
     40e:	b0 93 39 04 	sts	0x0439, r27
}
     412:	08 95       	ret

00000414 <int32_div>:

void int32_div() {
    l_c = l_a / l_b;
     414:	60 91 22 03 	lds	r22, 0x0322
     418:	70 91 23 03 	lds	r23, 0x0323
     41c:	80 91 24 03 	lds	r24, 0x0324
     420:	90 91 25 03 	lds	r25, 0x0325
     424:	20 91 26 03 	lds	r18, 0x0326
     428:	30 91 27 03 	lds	r19, 0x0327
     42c:	40 91 28 03 	lds	r20, 0x0328
     430:	50 91 29 03 	lds	r21, 0x0329
     434:	0e 94 ca 0b 	call	0x1794	; 0x1794 <__udivmodsi4>
     438:	20 93 36 04 	sts	0x0436, r18
     43c:	30 93 37 04 	sts	0x0437, r19
     440:	40 93 38 04 	sts	0x0438, r20
     444:	50 93 39 04 	sts	0x0439, r21
} 
     448:	08 95       	ret

0000044a <int32_mult_const>:

void int32_mult_const() {
    l_c = l_a * 234;
     44a:	60 91 22 03 	lds	r22, 0x0322
     44e:	70 91 23 03 	lds	r23, 0x0323
     452:	80 91 24 03 	lds	r24, 0x0324
     456:	90 91 25 03 	lds	r25, 0x0325
     45a:	2a ee       	ldi	r18, 0xEA	; 234
     45c:	30 e0       	ldi	r19, 0x00	; 0
     45e:	40 e0       	ldi	r20, 0x00	; 0
     460:	50 e0       	ldi	r21, 0x00	; 0
     462:	0e 94 97 0b 	call	0x172e	; 0x172e <__mulsi3>
     466:	60 93 36 04 	sts	0x0436, r22
     46a:	70 93 37 04 	sts	0x0437, r23
     46e:	80 93 38 04 	sts	0x0438, r24
     472:	90 93 39 04 	sts	0x0439, r25
} 
     476:	08 95       	ret

00000478 <int32_mult>:

void int32_mult() {
    l_c = l_a * l_b;
     478:	60 91 26 03 	lds	r22, 0x0326
     47c:	70 91 27 03 	lds	r23, 0x0327
     480:	80 91 28 03 	lds	r24, 0x0328
     484:	90 91 29 03 	lds	r25, 0x0329
     488:	20 91 22 03 	lds	r18, 0x0322
     48c:	30 91 23 03 	lds	r19, 0x0323
     490:	40 91 24 03 	lds	r20, 0x0324
     494:	50 91 25 03 	lds	r21, 0x0325
     498:	0e 94 97 0b 	call	0x172e	; 0x172e <__mulsi3>
     49c:	60 93 36 04 	sts	0x0436, r22
     4a0:	70 93 37 04 	sts	0x0437, r23
     4a4:	80 93 38 04 	sts	0x0438, r24
     4a8:	90 93 39 04 	sts	0x0439, r25
}
     4ac:	08 95       	ret

000004ae <int32_sqrt>:

void int32_sqrt() {
     4ae:	af 92       	push	r10
     4b0:	bf 92       	push	r11
     4b2:	cf 92       	push	r12
     4b4:	df 92       	push	r13
     4b6:	ef 92       	push	r14
     4b8:	ff 92       	push	r15
     4ba:	0f 93       	push	r16
     4bc:	1f 93       	push	r17
     4be:	aa 24       	eor	r10, r10
     4c0:	bb 24       	eor	r11, r11
     4c2:	65 01       	movw	r12, r10
     4c4:	a6 ea       	ldi	r26, 0xA6	; 166
     4c6:	ea 2e       	mov	r14, r26
     4c8:	a3 eb       	ldi	r26, 0xB3	; 179
     4ca:	fa 2e       	mov	r15, r26
     4cc:	a5 e6       	ldi	r26, 0x65	; 101
     4ce:	0a 2f       	mov	r16, r26
     4d0:	a1 e0       	ldi	r26, 0x01	; 1
     4d2:	1a 2f       	mov	r17, r26
     4d4:	20 e0       	ldi	r18, 0x00	; 0
     4d6:	30 e8       	ldi	r19, 0x80	; 128
     4d8:	40 e0       	ldi	r20, 0x00	; 0
     4da:	50 e0       	ldi	r21, 0x00	; 0
     4dc:	6e e0       	ldi	r22, 0x0E	; 14
     4de:	70 e0       	ldi	r23, 0x00	; 0
     4e0:	21 c0       	rjmp	.+66     	; 0x524 <int32_sqrt+0x76>

/* by Jim Ulery  http://www.azillionmonkeys.com/qed/ulerysqroot.pdf  */
static uint32_t isqrt(uint32_t val) {
    uint32_t temp, g = 0, b = 0x8000, bshft = 15;
    do {
        if (val >= (temp = (((g << 1) + b)<<bshft--))) {
     4e2:	d6 01       	movw	r26, r12
     4e4:	c5 01       	movw	r24, r10
     4e6:	88 0f       	add	r24, r24
     4e8:	99 1f       	adc	r25, r25
     4ea:	aa 1f       	adc	r26, r26
     4ec:	bb 1f       	adc	r27, r27
     4ee:	82 0f       	add	r24, r18
     4f0:	93 1f       	adc	r25, r19
     4f2:	a4 1f       	adc	r26, r20
     4f4:	b5 1f       	adc	r27, r21
     4f6:	06 2e       	mov	r0, r22
     4f8:	04 c0       	rjmp	.+8      	; 0x502 <int32_sqrt+0x54>
     4fa:	88 0f       	add	r24, r24
     4fc:	99 1f       	adc	r25, r25
     4fe:	aa 1f       	adc	r26, r26
     500:	bb 1f       	adc	r27, r27
     502:	0a 94       	dec	r0
     504:	d2 f7       	brpl	.-12     	; 0x4fa <int32_sqrt+0x4c>
     506:	e8 16       	cp	r14, r24
     508:	f9 06       	cpc	r15, r25
     50a:	0a 07       	cpc	r16, r26
     50c:	1b 07       	cpc	r17, r27
     50e:	40 f0       	brcs	.+16     	; 0x520 <int32_sqrt+0x72>
            g += b;
     510:	a2 0e       	add	r10, r18
     512:	b3 1e       	adc	r11, r19
     514:	c4 1e       	adc	r12, r20
     516:	d5 1e       	adc	r13, r21
            val -= temp;
     518:	e8 1a       	sub	r14, r24
     51a:	f9 0a       	sbc	r15, r25
     51c:	0a 0b       	sbc	r16, r26
     51e:	1b 0b       	sbc	r17, r27
     520:	61 50       	subi	r22, 0x01	; 1
     522:	70 40       	sbci	r23, 0x00	; 0
        }
    } while (b >>= 1);
     524:	56 95       	lsr	r21
     526:	47 95       	ror	r20
     528:	37 95       	ror	r19
     52a:	27 95       	ror	r18
     52c:	8f ef       	ldi	r24, 0xFF	; 255
     52e:	6f 3f       	cpi	r22, 0xFF	; 255
     530:	78 07       	cpc	r23, r24
     532:	b9 f6       	brne	.-82     	; 0x4e2 <int32_sqrt+0x34>
void int32_mult() {
    l_c = l_a * l_b;
}

void int32_sqrt() {
	l_c = isqrt(23442342);
     534:	a0 92 36 04 	sts	0x0436, r10
     538:	b0 92 37 04 	sts	0x0437, r11
     53c:	c0 92 38 04 	sts	0x0438, r12
     540:	d0 92 39 04 	sts	0x0439, r13
}
     544:	1f 91       	pop	r17
     546:	0f 91       	pop	r16
     548:	ff 90       	pop	r15
     54a:	ef 90       	pop	r14
     54c:	df 90       	pop	r13
     54e:	cf 90       	pop	r12
     550:	bf 90       	pop	r11
     552:	af 90       	pop	r10
     554:	08 95       	ret

00000556 <int16_sqrt>:

void int16_sqrt_asm() {
	l_c = isqrt16(23442);
}

void int16_sqrt() {
     556:	e2 e9       	ldi	r30, 0x92	; 146
     558:	fb e5       	ldi	r31, 0x5B	; 91
     55a:	47 e0       	ldi	r20, 0x07	; 7
     55c:	50 e0       	ldi	r21, 0x00	; 0
     55e:	60 e8       	ldi	r22, 0x80	; 128
     560:	70 e0       	ldi	r23, 0x00	; 0
     562:	80 e0       	ldi	r24, 0x00	; 0
     564:	90 e0       	ldi	r25, 0x00	; 0
}

static uint16_t isqrt_c16(uint16_t val) {
    uint16_t temp, g = 0, b = 0x80, bshft = 7;
    do {
        if (val >= (temp = (((g << 1) + b)<<bshft--))) {
     566:	9c 01       	movw	r18, r24
     568:	22 0f       	add	r18, r18
     56a:	33 1f       	adc	r19, r19
     56c:	26 0f       	add	r18, r22
     56e:	37 1f       	adc	r19, r23
     570:	04 2e       	mov	r0, r20
     572:	02 c0       	rjmp	.+4      	; 0x578 <int16_sqrt+0x22>
     574:	22 0f       	add	r18, r18
     576:	33 1f       	adc	r19, r19
     578:	0a 94       	dec	r0
     57a:	e2 f7       	brpl	.-8      	; 0x574 <int16_sqrt+0x1e>
     57c:	41 50       	subi	r20, 0x01	; 1
     57e:	50 40       	sbci	r21, 0x00	; 0
     580:	e2 17       	cp	r30, r18
     582:	f3 07       	cpc	r31, r19
     584:	20 f0       	brcs	.+8      	; 0x58e <int16_sqrt+0x38>
            g += b;
     586:	86 0f       	add	r24, r22
     588:	97 1f       	adc	r25, r23
            val -= temp;
     58a:	e2 1b       	sub	r30, r18
     58c:	f3 0b       	sbc	r31, r19
        }
    } while (b >>= 1);
     58e:	76 95       	lsr	r23
     590:	67 95       	ror	r22
     592:	2f ef       	ldi	r18, 0xFF	; 255
     594:	4f 3f       	cpi	r20, 0xFF	; 255
     596:	52 07       	cpc	r21, r18
     598:	31 f7       	brne	.-52     	; 0x566 <int16_sqrt+0x10>
void int16_sqrt_asm() {
	l_c = isqrt16(23442);
}

void int16_sqrt() {
	l_c = isqrt_c16(23442);
     59a:	a0 e0       	ldi	r26, 0x00	; 0
     59c:	b0 e0       	ldi	r27, 0x00	; 0
     59e:	80 93 36 04 	sts	0x0436, r24
     5a2:	90 93 37 04 	sts	0x0437, r25
     5a6:	a0 93 38 04 	sts	0x0438, r26
     5aa:	b0 93 39 04 	sts	0x0439, r27
}
     5ae:	08 95       	ret

000005b0 <int16_sin>:

void int16_sin() {
     5b0:	ef 92       	push	r14
     5b2:	ff 92       	push	r15
     5b4:	0f 93       	push	r16
     5b6:	1f 93       	push	r17
        if (tmp_phase & 0x4000)
                tmp_phase = 0x8000 - tmp_phase;

        tmp_phase_hi = tmp_phase >> 8; // 0...64

        s0 = PW(sin_table[tmp_phase_hi]);
     5b8:	e4 ed       	ldi	r30, 0xD4	; 212
     5ba:	f0 e0       	ldi	r31, 0x00	; 0
     5bc:	e5 90       	lpm	r14, Z+
     5be:	f4 90       	lpm	r15, Z+

        s0 += ((int16_t)((((int32_t)(PW(sin_table[tmp_phase_hi+1]) - s0))*
     5c0:	e6 ed       	ldi	r30, 0xD6	; 214
     5c2:	f0 e0       	ldi	r31, 0x00	; 0
     5c4:	65 91       	lpm	r22, Z+
     5c6:	74 91       	lpm	r23, Z+
void int16_sqrt() {
	l_c = isqrt_c16(23442);
}

void int16_sin() {
	l_c = Sine(0x7FFF/6);
     5c8:	6e 19       	sub	r22, r14
     5ca:	7f 09       	sbc	r23, r15
     5cc:	80 e0       	ldi	r24, 0x00	; 0
     5ce:	90 e0       	ldi	r25, 0x00	; 0
     5d0:	25 e5       	ldi	r18, 0x55	; 85
     5d2:	30 e0       	ldi	r19, 0x00	; 0
     5d4:	40 e0       	ldi	r20, 0x00	; 0
     5d6:	50 e0       	ldi	r21, 0x00	; 0
     5d8:	0e 94 97 0b 	call	0x172e	; 0x172e <__mulsi3>
     5dc:	67 2f       	mov	r22, r23
     5de:	78 2f       	mov	r23, r24
     5e0:	89 2f       	mov	r24, r25
     5e2:	99 27       	eor	r25, r25
     5e4:	87 fd       	sbrc	r24, 7
     5e6:	9a 95       	dec	r25
     5e8:	e6 0e       	add	r14, r22
     5ea:	f7 1e       	adc	r15, r23
     5ec:	00 27       	eor	r16, r16
     5ee:	f7 fc       	sbrc	r15, 7
     5f0:	00 95       	com	r16
     5f2:	10 2f       	mov	r17, r16
     5f4:	e0 92 36 04 	sts	0x0436, r14
     5f8:	f0 92 37 04 	sts	0x0437, r15
     5fc:	00 93 38 04 	sts	0x0438, r16
     600:	10 93 39 04 	sts	0x0439, r17
}
     604:	1f 91       	pop	r17
     606:	0f 91       	pop	r16
     608:	ff 90       	pop	r15
     60a:	ef 90       	pop	r14
     60c:	08 95       	ret

0000060e <PrintSignedShortFormated>:
	const char *c;
	for(c = str; *c; c++)
	  special_output_port = *c;
}

static void PrintSignedShortFormated(signed short value) {
     60e:	9f 92       	push	r9
     610:	af 92       	push	r10
     612:	bf 92       	push	r11
     614:	cf 92       	push	r12
     616:	df 92       	push	r13
     618:	ef 92       	push	r14
     61a:	ff 92       	push	r15
     61c:	0f 93       	push	r16
     61e:	1f 93       	push	r17
     620:	df 93       	push	r29
     622:	cf 93       	push	r28
     624:	cd b7       	in	r28, 0x3d	; 61
     626:	de b7       	in	r29, 0x3e	; 62
     628:	27 97       	sbiw	r28, 0x07	; 7
     62a:	0f b6       	in	r0, 0x3f	; 63
     62c:	f8 94       	cli
     62e:	de bf       	out	0x3e, r29	; 62
     630:	0f be       	out	0x3f, r0	; 63
     632:	cd bf       	out	0x3d, r28	; 61
    unsigned char *sBuf = &sBuf0[6];
    unsigned char  minus;
    unsigned short valueAlt;   // Alte Wert für schneller % 10 Berechnung
    unsigned short valueCalc;  // muss unsigned weil signed short kann kein 32768
    
    *sBuf = 0;       // String Terminierung
     634:	1f 82       	std	Y+7, r1	; 0x07
    if (value < 0) { // Vorzeichen behandeln
     636:	97 fd       	sbrc	r25, 7
     638:	63 c0       	rjmp	.+198    	; 0x700 <PrintSignedShortFormated+0xf2>
      minus = '-';
      valueCalc = -value;
    } else {
      minus = ' ';
      valueCalc = value;
     63a:	6c 01       	movw	r12, r24
     63c:	20 e2       	ldi	r18, 0x20	; 32
     63e:	92 2e       	mov	r9, r18
    }
    if (!valueCalc) 
     640:	c1 14       	cp	r12, r1
     642:	d1 04       	cpc	r13, r1
     644:	39 f5       	brne	.+78     	; 0x694 <PrintSignedShortFormated+0x86>
      *--sBuf = '0';
     646:	80 e3       	ldi	r24, 0x30	; 48
     648:	8e 83       	std	Y+6, r24	; 0x06
      //  schneller als valueCalc /= 10;
      valueCalc = div10(valueCalc); 
      // schneller als  *--sBuf = '0' + (valueAlt % 10)
      *--sBuf = '0' + valueAlt - (valueCalc * 10); 
    } 
    *--sBuf = minus;                  // Minuszeichen vor die höchstwertigste Stelle setzen
     64a:	9d 82       	std	Y+5, r9	; 0x05
     64c:	fe 01       	movw	r30, r28
     64e:	35 96       	adiw	r30, 0x05	; 5
     650:	ce 01       	movw	r24, r28
     652:	01 96       	adiw	r24, 0x01	; 1
    while (sBuf > sBuf0)              // mit Leerzeichen auffüllen (für Formatierung)  
      *--sBuf = ' ';
     654:	20 e2       	ldi	r18, 0x20	; 32
     656:	22 93       	st	-Z, r18
      valueCalc = div10(valueCalc); 
      // schneller als  *--sBuf = '0' + (valueAlt % 10)
      *--sBuf = '0' + valueAlt - (valueCalc * 10); 
    } 
    *--sBuf = minus;                  // Minuszeichen vor die höchstwertigste Stelle setzen
    while (sBuf > sBuf0)              // mit Leerzeichen auffüllen (für Formatierung)  
     658:	8e 17       	cp	r24, r30
     65a:	9f 07       	cpc	r25, r31
     65c:	e0 f3       	brcs	.-8      	; 0x656 <PrintSignedShortFormated+0x48>
      *--sBuf = ' ';
    PrintString((const char*) sBuf0); // String ausgeben
     65e:	fc 01       	movw	r30, r24
#define special_input_port  (*((volatile char *) SIM_RIO))
#endif

static PrintString(const char* str) {
	const char *c;
	for(c = str; *c; c++)
     660:	80 81       	ld	r24, Z
     662:	88 23       	and	r24, r24
     664:	29 f0       	breq	.+10     	; 0x670 <PrintSignedShortFormated+0x62>
	  special_output_port = *c;
     666:	80 bb       	out	0x10, r24	; 16
#define special_input_port  (*((volatile char *) SIM_RIO))
#endif

static PrintString(const char* str) {
	const char *c;
	for(c = str; *c; c++)
     668:	31 96       	adiw	r30, 0x01	; 1
     66a:	80 81       	ld	r24, Z
     66c:	88 23       	and	r24, r24
     66e:	d9 f7       	brne	.-10     	; 0x666 <PrintSignedShortFormated+0x58>
    } 
    *--sBuf = minus;                  // Minuszeichen vor die höchstwertigste Stelle setzen
    while (sBuf > sBuf0)              // mit Leerzeichen auffüllen (für Formatierung)  
      *--sBuf = ' ';
    PrintString((const char*) sBuf0); // String ausgeben
}
     670:	27 96       	adiw	r28, 0x07	; 7
     672:	0f b6       	in	r0, 0x3f	; 63
     674:	f8 94       	cli
     676:	de bf       	out	0x3e, r29	; 62
     678:	0f be       	out	0x3f, r0	; 63
     67a:	cd bf       	out	0x3d, r28	; 61
     67c:	cf 91       	pop	r28
     67e:	df 91       	pop	r29
     680:	1f 91       	pop	r17
     682:	0f 91       	pop	r16
     684:	ff 90       	pop	r15
     686:	ef 90       	pop	r14
     688:	df 90       	pop	r13
     68a:	cf 90       	pop	r12
     68c:	bf 90       	pop	r11
     68e:	af 90       	pop	r10
     690:	9f 90       	pop	r9
     692:	08 95       	ret
      //  schneller als valueCalc /= 10;
      valueCalc = div10(valueCalc); 
      // schneller als  *--sBuf = '0' + (valueAlt % 10)
      *--sBuf = '0' + valueAlt - (valueCalc * 10); 
    } 
    *--sBuf = minus;                  // Minuszeichen vor die höchstwertigste Stelle setzen
     694:	97 e0       	ldi	r25, 0x07	; 7
     696:	a9 2e       	mov	r10, r25
     698:	b1 2c       	mov	r11, r1
     69a:	ac 0e       	add	r10, r28
     69c:	bd 1e       	adc	r11, r29
     69e:	01 c0       	rjmp	.+2      	; 0x6a2 <PrintSignedShortFormated+0x94>
      minus = ' ';
      valueCalc = value;
    }
    if (!valueCalc) 
      *--sBuf = '0';
    else while (valueCalc) {
     6a0:	67 01       	movw	r12, r14
}

unsigned short i_a = 23444, i_b = 23, i_c;

static inline unsigned short div10(unsigned short in) { 
    return (((unsigned long) in * 52429L)) >> 19;
     6a2:	b6 01       	movw	r22, r12
     6a4:	80 e0       	ldi	r24, 0x00	; 0
     6a6:	90 e0       	ldi	r25, 0x00	; 0
     6a8:	2d ec       	ldi	r18, 0xCD	; 205
     6aa:	3c ec       	ldi	r19, 0xCC	; 204
     6ac:	40 e0       	ldi	r20, 0x00	; 0
     6ae:	50 e0       	ldi	r21, 0x00	; 0
     6b0:	0e 94 97 0b 	call	0x172e	; 0x172e <__mulsi3>
     6b4:	7b 01       	movw	r14, r22
     6b6:	8c 01       	movw	r16, r24
     6b8:	83 e1       	ldi	r24, 0x13	; 19
     6ba:	16 95       	lsr	r17
     6bc:	07 95       	ror	r16
     6be:	f7 94       	ror	r15
     6c0:	e7 94       	ror	r14
     6c2:	8a 95       	dec	r24
     6c4:	d1 f7       	brne	.-12     	; 0x6ba <PrintSignedShortFormated+0xac>
     6c6:	97 01       	movw	r18, r14
    else while (valueCalc) {
      valueAlt = valueCalc;
      //  schneller als valueCalc /= 10;
      valueCalc = div10(valueCalc); 
      // schneller als  *--sBuf = '0' + (valueAlt % 10)
      *--sBuf = '0' + valueAlt - (valueCalc * 10); 
     6c8:	4c 2d       	mov	r20, r12
     6ca:	40 5d       	subi	r20, 0xD0	; 208
     6cc:	c7 01       	movw	r24, r14
     6ce:	88 0f       	add	r24, r24
     6d0:	99 1f       	adc	r25, r25
     6d2:	88 0f       	add	r24, r24
     6d4:	99 1f       	adc	r25, r25
     6d6:	88 0f       	add	r24, r24
     6d8:	99 1f       	adc	r25, r25
     6da:	22 0f       	add	r18, r18
     6dc:	33 1f       	adc	r19, r19
     6de:	82 0f       	add	r24, r18
     6e0:	93 1f       	adc	r25, r19
     6e2:	48 1b       	sub	r20, r24
     6e4:	f5 01       	movw	r30, r10
     6e6:	42 93       	st	-Z, r20
     6e8:	5f 01       	movw	r10, r30
      minus = ' ';
      valueCalc = value;
    }
    if (!valueCalc) 
      *--sBuf = '0';
    else while (valueCalc) {
     6ea:	e1 14       	cp	r14, r1
     6ec:	f1 04       	cpc	r15, r1
     6ee:	c1 f6       	brne	.-80     	; 0x6a0 <PrintSignedShortFormated+0x92>
      //  schneller als valueCalc /= 10;
      valueCalc = div10(valueCalc); 
      // schneller als  *--sBuf = '0' + (valueAlt % 10)
      *--sBuf = '0' + valueAlt - (valueCalc * 10); 
    } 
    *--sBuf = minus;                  // Minuszeichen vor die höchstwertigste Stelle setzen
     6f0:	92 92       	st	-Z, r9
    while (sBuf > sBuf0)              // mit Leerzeichen auffüllen (für Formatierung)  
     6f2:	ce 01       	movw	r24, r28
     6f4:	01 96       	adiw	r24, 0x01	; 1
     6f6:	8e 17       	cp	r24, r30
     6f8:	9f 07       	cpc	r25, r31
     6fa:	08 f4       	brcc	.+2      	; 0x6fe <PrintSignedShortFormated+0xf0>
     6fc:	ab cf       	rjmp	.-170    	; 0x654 <PrintSignedShortFormated+0x46>
     6fe:	af cf       	rjmp	.-162    	; 0x65e <PrintSignedShortFormated+0x50>
    unsigned short valueCalc;  // muss unsigned weil signed short kann kein 32768
    
    *sBuf = 0;       // String Terminierung
    if (value < 0) { // Vorzeichen behandeln
      minus = '-';
      valueCalc = -value;
     700:	cc 24       	eor	r12, r12
     702:	dd 24       	eor	r13, r13
     704:	c8 1a       	sub	r12, r24
     706:	d9 0a       	sbc	r13, r25
     708:	3d e2       	ldi	r19, 0x2D	; 45
     70a:	93 2e       	mov	r9, r19
     70c:	99 cf       	rjmp	.-206    	; 0x640 <PrintSignedShortFormated+0x32>

0000070e <print_int16>:
    PrintString((const char*) sBuf0); // String ausgeben
}


void print_int16(void) {
	PrintSignedShortFormated(-32421);
     70e:	8b e5       	ldi	r24, 0x5B	; 91
     710:	91 e8       	ldi	r25, 0x81	; 129
     712:	0e 94 07 03 	call	0x60e	; 0x60e <PrintSignedShortFormated>
}
     716:	08 95       	ret

00000718 <test_loop1>:
	PrintString(sbuf);
}

uint16_t buffer[16][16];

void test_loop1() {
     718:	20 e0       	ldi	r18, 0x00	; 0
     71a:	30 e0       	ldi	r19, 0x00	; 0
  	uint8_t x, y;
  	for (x = 0; x < 10; x++) {
     71c:	f9 01       	movw	r30, r18
     71e:	ee 0f       	add	r30, r30
     720:	ff 1f       	adc	r31, r31
     722:	e2 95       	swap	r30
     724:	f2 95       	swap	r31
     726:	f0 7f       	andi	r31, 0xF0	; 240
     728:	fe 27       	eor	r31, r30
     72a:	e0 7f       	andi	r30, 0xF0	; 240
     72c:	fe 27       	eor	r31, r30
     72e:	e4 5c       	subi	r30, 0xC4	; 196
     730:	fb 4f       	sbci	r31, 0xFB	; 251
     732:	80 e0       	ldi	r24, 0x00	; 0
    	for (y = 0; y < 10; y++) {
     		 buffer[x][y] = 0;
     734:	11 92       	st	Z+, r1
     736:	11 92       	st	Z+, r1
uint16_t buffer[16][16];

void test_loop1() {
  	uint8_t x, y;
  	for (x = 0; x < 10; x++) {
    	for (y = 0; y < 10; y++) {
     738:	8f 5f       	subi	r24, 0xFF	; 255
     73a:	8a 30       	cpi	r24, 0x0A	; 10
     73c:	d9 f7       	brne	.-10     	; 0x734 <test_loop1+0x1c>
     73e:	2f 5f       	subi	r18, 0xFF	; 255
     740:	3f 4f       	sbci	r19, 0xFF	; 255

uint16_t buffer[16][16];

void test_loop1() {
  	uint8_t x, y;
  	for (x = 0; x < 10; x++) {
     742:	2a 30       	cpi	r18, 0x0A	; 10
     744:	31 05       	cpc	r19, r1
     746:	51 f7       	brne	.-44     	; 0x71c <test_loop1+0x4>
     748:	08 95       	ret

0000074a <test_loop2>:
    	}
  	}	
}

void test_loop2() {
  	uint16_t *ptr = (uint16_t *) buffer; 
     74a:	ec e3       	ldi	r30, 0x3C	; 60
     74c:	f4 e0       	ldi	r31, 0x04	; 4
  	uint8_t x;
  	for (x = 0; x < 10*10; x++) {
     	*ptr++ = 0;
     74e:	11 92       	st	Z+, r1
     750:	11 92       	st	Z+, r1
}

void test_loop2() {
  	uint16_t *ptr = (uint16_t *) buffer; 
  	uint8_t x;
  	for (x = 0; x < 10*10; x++) {
     752:	85 e0       	ldi	r24, 0x05	; 5
     754:	e4 30       	cpi	r30, 0x04	; 4
     756:	f8 07       	cpc	r31, r24
     758:	d1 f7       	brne	.-12     	; 0x74e <test_loop2+0x4>
     	*ptr++ = 0;
  	}
}
     75a:	08 95       	ret

0000075c <test_loop3>:

void test_loop3() {
  	uint16_t *ptr = (uint16_t *) buffer; 
     75c:	ec e3       	ldi	r30, 0x3C	; 60
     75e:	f4 e0       	ldi	r31, 0x04	; 4
  	uint8_t x = 10*10;
  	while (x--) {
     	*ptr++ = 0;
     760:	11 92       	st	Z+, r1
     762:	11 92       	st	Z+, r1
}

void test_loop3() {
  	uint16_t *ptr = (uint16_t *) buffer; 
  	uint8_t x = 10*10;
  	while (x--) {
     764:	85 e0       	ldi	r24, 0x05	; 5
     766:	e4 30       	cpi	r30, 0x04	; 4
     768:	f8 07       	cpc	r31, r24
     76a:	d1 f7       	brne	.-12     	; 0x760 <test_loop3+0x4>
     	*ptr++ = 0;
  	}
}
     76c:	08 95       	ret

0000076e <test_loop4>:

void test_loop4() {
  	uint8_t x = 10*10-1;
  	uint16_t *ptr = (uint16_t *) buffer; 
     76e:	ec e3       	ldi	r30, 0x3C	; 60
     770:	f4 e0       	ldi	r31, 0x04	; 4
   	do {
   		*ptr++ = 0;
     772:	11 92       	st	Z+, r1
     774:	11 92       	st	Z+, r1
   	} while (--x);
     776:	85 e0       	ldi	r24, 0x05	; 5
     778:	e2 30       	cpi	r30, 0x02	; 2
     77a:	f8 07       	cpc	r31, r24
     77c:	d1 f7       	brne	.-12     	; 0x772 <test_loop4+0x4>
}
     77e:	08 95       	ret

00000780 <print_execute_time>:
}
*/

#define TIME_FUNC(func) print_execute_time(func, "" # func) 

unsigned short print_execute_time(test_func_t function, char name[]) {
     780:	cf 93       	push	r28
     782:	df 93       	push	r29
     784:	eb 01       	movw	r28, r22
	// Timer anhalten und initialisieren
	TCCR1A = 0;
     786:	1f bc       	out	0x2f, r1	; 47
	TCCR1B = 0;
     788:	1e bc       	out	0x2e, r1	; 46
	TCNT1  = 0;
     78a:	1d bc       	out	0x2d, r1	; 45
     78c:	1c bc       	out	0x2c, r1	; 44
	TIFR   = 0;
     78e:	16 be       	out	0x36, r1	; 54
	TCCR1B = 1; // prescaler 1 Timer starten
     790:	21 e0       	ldi	r18, 0x01	; 1
     792:	2e bd       	out	0x2e, r18	; 46
	function();
     794:	fc 01       	movw	r30, r24
     796:	09 95       	icall
	TCCR1B = 0; // Timer stoppen
     798:	1e bc       	out	0x2e, r1	; 46
	// print
	PrintSignedShortFormated(TCNT1);
     79a:	8c b5       	in	r24, 0x2c	; 44
     79c:	9d b5       	in	r25, 0x2d	; 45
     79e:	0e 94 07 03 	call	0x60e	; 0x60e <PrintSignedShortFormated>
     7a2:	e0 e0       	ldi	r30, 0x00	; 0
     7a4:	f1 e0       	ldi	r31, 0x01	; 1
     7a6:	80 e2       	ldi	r24, 0x20	; 32
#endif

static PrintString(const char* str) {
	const char *c;
	for(c = str; *c; c++)
	  special_output_port = *c;
     7a8:	80 bb       	out	0x10, r24	; 16
#define special_input_port  (*((volatile char *) SIM_RIO))
#endif

static PrintString(const char* str) {
	const char *c;
	for(c = str; *c; c++)
     7aa:	31 96       	adiw	r30, 0x01	; 1
     7ac:	80 81       	ld	r24, Z
     7ae:	88 23       	and	r24, r24
     7b0:	d9 f7       	brne	.-10     	; 0x7a8 <print_execute_time+0x28>
	  special_output_port = *c;
     7b2:	88 81       	ld	r24, Y
     7b4:	88 23       	and	r24, r24
     7b6:	31 f0       	breq	.+12     	; 0x7c4 <print_execute_time+0x44>
     7b8:	fe 01       	movw	r30, r28
     7ba:	80 bb       	out	0x10, r24	; 16
#define special_input_port  (*((volatile char *) SIM_RIO))
#endif

static PrintString(const char* str) {
	const char *c;
	for(c = str; *c; c++)
     7bc:	31 96       	adiw	r30, 0x01	; 1
     7be:	80 81       	ld	r24, Z
     7c0:	88 23       	and	r24, r24
     7c2:	d9 f7       	brne	.-10     	; 0x7ba <print_execute_time+0x3a>
	TCCR1B = 0; // Timer stoppen
	// print
	PrintSignedShortFormated(TCNT1);
	PrintString(" : ");
	PrintString(name);
	if (TIFR & (1 << 2))
     7c4:	06 b6       	in	r0, 0x36	; 54
     7c6:	02 fe       	sbrs	r0, 2
     7c8:	08 c0       	rjmp	.+16     	; 0x7da <print_execute_time+0x5a>
     7ca:	e4 e0       	ldi	r30, 0x04	; 4
     7cc:	f1 e0       	ldi	r31, 0x01	; 1
     7ce:	80 e2       	ldi	r24, 0x20	; 32
#endif

static PrintString(const char* str) {
	const char *c;
	for(c = str; *c; c++)
	  special_output_port = *c;
     7d0:	80 bb       	out	0x10, r24	; 16
#define special_input_port  (*((volatile char *) SIM_RIO))
#endif

static PrintString(const char* str) {
	const char *c;
	for(c = str; *c; c++)
     7d2:	31 96       	adiw	r30, 0x01	; 1
     7d4:	80 81       	ld	r24, Z
     7d6:	88 23       	and	r24, r24
     7d8:	d9 f7       	brne	.-10     	; 0x7d0 <print_execute_time+0x50>
     7da:	e6 e1       	ldi	r30, 0x16	; 22
     7dc:	f1 e0       	ldi	r31, 0x01	; 1
     7de:	8a e0       	ldi	r24, 0x0A	; 10
	  special_output_port = *c;
     7e0:	80 bb       	out	0x10, r24	; 16
#define special_input_port  (*((volatile char *) SIM_RIO))
#endif

static PrintString(const char* str) {
	const char *c;
	for(c = str; *c; c++)
     7e2:	31 96       	adiw	r30, 0x01	; 1
     7e4:	80 81       	ld	r24, Z
     7e6:	88 23       	and	r24, r24
     7e8:	d9 f7       	brne	.-10     	; 0x7e0 <print_execute_time+0x60>
	PrintString(" : ");
	PrintString(name);
	if (TIFR & (1 << 2))
		PrintString(" (Timeroverflow!)");	
	PrintString("\n");
	return TCNT1;
     7ea:	2c b5       	in	r18, 0x2c	; 44
     7ec:	3d b5       	in	r19, 0x2d	; 45
}
     7ee:	c9 01       	movw	r24, r18
     7f0:	df 91       	pop	r29
     7f2:	cf 91       	pop	r28
     7f4:	08 95       	ret

000007f6 <main>:

int main() {
     7f6:	e8 e1       	ldi	r30, 0x18	; 24
     7f8:	f1 e0       	ldi	r31, 0x01	; 1
     7fa:	8a e0       	ldi	r24, 0x0A	; 10
#endif

static PrintString(const char* str) {
	const char *c;
	for(c = str; *c; c++)
	  special_output_port = *c;
     7fc:	80 bb       	out	0x10, r24	; 16
#define special_input_port  (*((volatile char *) SIM_RIO))
#endif

static PrintString(const char* str) {
	const char *c;
	for(c = str; *c; c++)
     7fe:	31 96       	adiw	r30, 0x01	; 1
     800:	80 81       	ld	r24, Z
     802:	88 23       	and	r24, r24
     804:	d9 f7       	brne	.-10     	; 0x7fc <main+0x6>
     806:	e8 e3       	ldi	r30, 0x38	; 56
     808:	f1 e0       	ldi	r31, 0x01	; 1
     80a:	8a e0       	ldi	r24, 0x0A	; 10
	  special_output_port = *c;
     80c:	80 bb       	out	0x10, r24	; 16
#define special_input_port  (*((volatile char *) SIM_RIO))
#endif

static PrintString(const char* str) {
	const char *c;
	for(c = str; *c; c++)
     80e:	31 96       	adiw	r30, 0x01	; 1
     810:	80 81       	ld	r24, Z
     812:	88 23       	and	r24, r24
     814:	d9 f7       	brne	.-10     	; 0x80c <main+0x16>
}

int main() {
	PrintString("\nZeitmessung Rechenoperationen\n");
	PrintString("\n Takte   Funktionsname\n");
	TIME_FUNC(float_convert_to_float);
     816:	88 eb       	ldi	r24, 0xB8	; 184
     818:	90 e0       	ldi	r25, 0x00	; 0
     81a:	61 e5       	ldi	r22, 0x51	; 81
     81c:	71 e0       	ldi	r23, 0x01	; 1
     81e:	0e 94 c0 03 	call	0x780	; 0x780 <print_execute_time>
	TIME_FUNC(float_convert_to_int);
     822:	8b ec       	ldi	r24, 0xCB	; 203
     824:	90 e0       	ldi	r25, 0x00	; 0
     826:	68 e6       	ldi	r22, 0x68	; 104
     828:	71 e0       	ldi	r23, 0x01	; 1
     82a:	0e 94 c0 03 	call	0x780	; 0x780 <print_execute_time>
	TIME_FUNC(float_add_const);
     82e:	8a ed       	ldi	r24, 0xDA	; 218
     830:	90 e0       	ldi	r25, 0x00	; 0
     832:	6d e7       	ldi	r22, 0x7D	; 125
     834:	71 e0       	ldi	r23, 0x01	; 1
     836:	0e 94 c0 03 	call	0x780	; 0x780 <print_execute_time>
	TIME_FUNC(float_add);
     83a:	81 ef       	ldi	r24, 0xF1	; 241
     83c:	90 e0       	ldi	r25, 0x00	; 0
     83e:	6d e8       	ldi	r22, 0x8D	; 141
     840:	71 e0       	ldi	r23, 0x01	; 1
     842:	0e 94 c0 03 	call	0x780	; 0x780 <print_execute_time>
	TIME_FUNC(float_mul_const);
     846:	8c e0       	ldi	r24, 0x0C	; 12
     848:	91 e0       	ldi	r25, 0x01	; 1
     84a:	67 e9       	ldi	r22, 0x97	; 151
     84c:	71 e0       	ldi	r23, 0x01	; 1
     84e:	0e 94 c0 03 	call	0x780	; 0x780 <print_execute_time>
	TIME_FUNC(float_mul);
     852:	83 e2       	ldi	r24, 0x23	; 35
     854:	91 e0       	ldi	r25, 0x01	; 1
     856:	67 ea       	ldi	r22, 0xA7	; 167
     858:	71 e0       	ldi	r23, 0x01	; 1
     85a:	0e 94 c0 03 	call	0x780	; 0x780 <print_execute_time>
	TIME_FUNC(float_div_const);
     85e:	8e e3       	ldi	r24, 0x3E	; 62
     860:	91 e0       	ldi	r25, 0x01	; 1
     862:	61 eb       	ldi	r22, 0xB1	; 177
     864:	71 e0       	ldi	r23, 0x01	; 1
     866:	0e 94 c0 03 	call	0x780	; 0x780 <print_execute_time>
	TIME_FUNC(float_div);
     86a:	85 e5       	ldi	r24, 0x55	; 85
     86c:	91 e0       	ldi	r25, 0x01	; 1
     86e:	61 ec       	ldi	r22, 0xC1	; 193
     870:	71 e0       	ldi	r23, 0x01	; 1
     872:	0e 94 c0 03 	call	0x780	; 0x780 <print_execute_time>
	TIME_FUNC(int16_div10);
     876:	80 e7       	ldi	r24, 0x70	; 112
     878:	91 e0       	ldi	r25, 0x01	; 1
     87a:	6b ec       	ldi	r22, 0xCB	; 203
     87c:	71 e0       	ldi	r23, 0x01	; 1
     87e:	0e 94 c0 03 	call	0x780	; 0x780 <print_execute_time>
	TIME_FUNC(int16_div10_fast);
     882:	8d e7       	ldi	r24, 0x7D	; 125
     884:	91 e0       	ldi	r25, 0x01	; 1
     886:	67 ed       	ldi	r22, 0xD7	; 215
     888:	71 e0       	ldi	r23, 0x01	; 1
     88a:	0e 94 c0 03 	call	0x780	; 0x780 <print_execute_time>
	TIME_FUNC(int16_div16);
     88e:	85 e9       	ldi	r24, 0x95	; 149
     890:	91 e0       	ldi	r25, 0x01	; 1
     892:	68 ee       	ldi	r22, 0xE8	; 232
     894:	71 e0       	ldi	r23, 0x01	; 1
     896:	0e 94 c0 03 	call	0x780	; 0x780 <print_execute_time>
	TIME_FUNC(int16_div);
     89a:	84 ea       	ldi	r24, 0xA4	; 164
     89c:	91 e0       	ldi	r25, 0x01	; 1
     89e:	64 ef       	ldi	r22, 0xF4	; 244
     8a0:	71 e0       	ldi	r23, 0x01	; 1
     8a2:	0e 94 c0 03 	call	0x780	; 0x780 <print_execute_time>
	TIME_FUNC(int16_mult_const);
     8a6:	83 eb       	ldi	r24, 0xB3	; 179
     8a8:	91 e0       	ldi	r25, 0x01	; 1
     8aa:	6e ef       	ldi	r22, 0xFE	; 254
     8ac:	71 e0       	ldi	r23, 0x01	; 1
     8ae:	0e 94 c0 03 	call	0x780	; 0x780 <print_execute_time>
	TIME_FUNC(int16_mult);	
     8b2:	86 ec       	ldi	r24, 0xC6	; 198
     8b4:	91 e0       	ldi	r25, 0x01	; 1
     8b6:	6f e0       	ldi	r22, 0x0F	; 15
     8b8:	72 e0       	ldi	r23, 0x02	; 2
     8ba:	0e 94 c0 03 	call	0x780	; 0x780 <print_execute_time>
	TIME_FUNC(int32_div10);
     8be:	8b ed       	ldi	r24, 0xDB	; 219
     8c0:	91 e0       	ldi	r25, 0x01	; 1
     8c2:	6a e1       	ldi	r22, 0x1A	; 26
     8c4:	72 e0       	ldi	r23, 0x02	; 2
     8c6:	0e 94 c0 03 	call	0x780	; 0x780 <print_execute_time>
	TIME_FUNC(int32_div16);
     8ca:	82 ef       	ldi	r24, 0xF2	; 242
     8cc:	91 e0       	ldi	r25, 0x01	; 1
     8ce:	66 e2       	ldi	r22, 0x26	; 38
     8d0:	72 e0       	ldi	r23, 0x02	; 2
     8d2:	0e 94 c0 03 	call	0x780	; 0x780 <print_execute_time>
	TIME_FUNC(int32_div);
     8d6:	8a e0       	ldi	r24, 0x0A	; 10
     8d8:	92 e0       	ldi	r25, 0x02	; 2
     8da:	62 e3       	ldi	r22, 0x32	; 50
     8dc:	72 e0       	ldi	r23, 0x02	; 2
     8de:	0e 94 c0 03 	call	0x780	; 0x780 <print_execute_time>
	TIME_FUNC(int32_mult_const);
     8e2:	85 e2       	ldi	r24, 0x25	; 37
     8e4:	92 e0       	ldi	r25, 0x02	; 2
     8e6:	6c e3       	ldi	r22, 0x3C	; 60
     8e8:	72 e0       	ldi	r23, 0x02	; 2
     8ea:	0e 94 c0 03 	call	0x780	; 0x780 <print_execute_time>
	TIME_FUNC(float_sqrt);
     8ee:	86 e6       	ldi	r24, 0x66	; 102
     8f0:	95 e0       	ldi	r25, 0x05	; 5
     8f2:	6d e4       	ldi	r22, 0x4D	; 77
     8f4:	72 e0       	ldi	r23, 0x02	; 2
     8f6:	0e 94 c0 03 	call	0x780	; 0x780 <print_execute_time>
	TIME_FUNC(int16_sqrt);
     8fa:	8b ea       	ldi	r24, 0xAB	; 171
     8fc:	92 e0       	ldi	r25, 0x02	; 2
     8fe:	68 e5       	ldi	r22, 0x58	; 88
     900:	72 e0       	ldi	r23, 0x02	; 2
     902:	0e 94 c0 03 	call	0x780	; 0x780 <print_execute_time>
	TIME_FUNC(int16_sqrt_asm);	
     906:	82 e3       	ldi	r24, 0x32	; 50
     908:	95 e0       	ldi	r25, 0x05	; 5
     90a:	63 e6       	ldi	r22, 0x63	; 99
     90c:	72 e0       	ldi	r23, 0x02	; 2
     90e:	0e 94 c0 03 	call	0x780	; 0x780 <print_execute_time>
	TIME_FUNC(int32_sqrt);
     912:	87 e5       	ldi	r24, 0x57	; 87
     914:	92 e0       	ldi	r25, 0x02	; 2
     916:	62 e7       	ldi	r22, 0x72	; 114
     918:	72 e0       	ldi	r23, 0x02	; 2
     91a:	0e 94 c0 03 	call	0x780	; 0x780 <print_execute_time>
	TIME_FUNC(int32_sqrt_asm);
     91e:	82 e4       	ldi	r24, 0x42	; 66
     920:	95 e0       	ldi	r25, 0x05	; 5
     922:	6d e7       	ldi	r22, 0x7D	; 125
     924:	72 e0       	ldi	r23, 0x02	; 2
     926:	0e 94 c0 03 	call	0x780	; 0x780 <print_execute_time>
	TIME_FUNC(float_sin);
     92a:	83 e5       	ldi	r24, 0x53	; 83
     92c:	95 e0       	ldi	r25, 0x05	; 5
     92e:	6c e8       	ldi	r22, 0x8C	; 140
     930:	72 e0       	ldi	r23, 0x02	; 2
     932:	0e 94 c0 03 	call	0x780	; 0x780 <print_execute_time>
	TIME_FUNC(int16_sin);
     936:	88 ed       	ldi	r24, 0xD8	; 216
     938:	92 e0       	ldi	r25, 0x02	; 2
     93a:	66 e9       	ldi	r22, 0x96	; 150
     93c:	72 e0       	ldi	r23, 0x02	; 2
     93e:	0e 94 c0 03 	call	0x780	; 0x780 <print_execute_time>
	TIME_FUNC(test_loop1);
     942:	8c e8       	ldi	r24, 0x8C	; 140
     944:	93 e0       	ldi	r25, 0x03	; 3
     946:	60 ea       	ldi	r22, 0xA0	; 160
     948:	72 e0       	ldi	r23, 0x02	; 2
     94a:	0e 94 c0 03 	call	0x780	; 0x780 <print_execute_time>
	TIME_FUNC(test_loop2);
     94e:	85 ea       	ldi	r24, 0xA5	; 165
     950:	93 e0       	ldi	r25, 0x03	; 3
     952:	6b ea       	ldi	r22, 0xAB	; 171
     954:	72 e0       	ldi	r23, 0x02	; 2
     956:	0e 94 c0 03 	call	0x780	; 0x780 <print_execute_time>
	TIME_FUNC(test_loop3);
     95a:	8e ea       	ldi	r24, 0xAE	; 174
     95c:	93 e0       	ldi	r25, 0x03	; 3
     95e:	66 eb       	ldi	r22, 0xB6	; 182
     960:	72 e0       	ldi	r23, 0x02	; 2
     962:	0e 94 c0 03 	call	0x780	; 0x780 <print_execute_time>
	TIME_FUNC(test_loop4);
     966:	87 eb       	ldi	r24, 0xB7	; 183
     968:	93 e0       	ldi	r25, 0x03	; 3
     96a:	61 ec       	ldi	r22, 0xC1	; 193
     96c:	72 e0       	ldi	r23, 0x02	; 2
     96e:	0e 94 c0 03 	call	0x780	; 0x780 <print_execute_time>
	
	TIME_FUNC(print_int16);
     972:	87 e8       	ldi	r24, 0x87	; 135
     974:	93 e0       	ldi	r25, 0x03	; 3
     976:	6c ec       	ldi	r22, 0xCC	; 204
     978:	72 e0       	ldi	r23, 0x02	; 2
     97a:	0e 94 c0 03 	call	0x780	; 0x780 <print_execute_time>
	TIME_FUNC(print_int16_itoa);
     97e:	88 e0       	ldi	r24, 0x08	; 8
     980:	95 e0       	ldi	r25, 0x05	; 5
     982:	68 ed       	ldi	r22, 0xD8	; 216
     984:	72 e0       	ldi	r23, 0x02	; 2
     986:	0e 94 c0 03 	call	0x780	; 0x780 <print_execute_time>
     98a:	e9 ee       	ldi	r30, 0xE9	; 233
     98c:	f2 e0       	ldi	r31, 0x02	; 2
     98e:	80 e2       	ldi	r24, 0x20	; 32
#endif

static PrintString(const char* str) {
	const char *c;
	for(c = str; *c; c++)
	  special_output_port = *c;
     990:	80 bb       	out	0x10, r24	; 16
#define special_input_port  (*((volatile char *) SIM_RIO))
#endif

static PrintString(const char* str) {
	const char *c;
	for(c = str; *c; c++)
     992:	31 96       	adiw	r30, 0x01	; 1
     994:	80 81       	ld	r24, Z
     996:	88 23       	and	r24, r24
     998:	d9 f7       	brne	.-10     	; 0x990 <main+0x19a>
	TIME_FUNC(test_loop4);
	
	TIME_FUNC(print_int16);
	TIME_FUNC(print_int16_itoa);
	PrintString(" - sqrt(23442.0)  = ");
	PrintSignedShortFormated(sqrt(23442.0));	
     99a:	89 e9       	ldi	r24, 0x99	; 153
     99c:	90 e0       	ldi	r25, 0x00	; 0
     99e:	0e 94 07 03 	call	0x60e	; 0x60e <PrintSignedShortFormated>
     9a2:	ee ef       	ldi	r30, 0xFE	; 254
     9a4:	f2 e0       	ldi	r31, 0x02	; 2
     9a6:	8a e0       	ldi	r24, 0x0A	; 10
#endif

static PrintString(const char* str) {
	const char *c;
	for(c = str; *c; c++)
	  special_output_port = *c;
     9a8:	80 bb       	out	0x10, r24	; 16
#define special_input_port  (*((volatile char *) SIM_RIO))
#endif

static PrintString(const char* str) {
	const char *c;
	for(c = str; *c; c++)
     9aa:	31 96       	adiw	r30, 0x01	; 1
     9ac:	80 81       	ld	r24, Z
     9ae:	88 23       	and	r24, r24
     9b0:	d9 f7       	brne	.-10     	; 0x9a8 <main+0x1b2>
     9b2:	e2 e9       	ldi	r30, 0x92	; 146
     9b4:	fb e5       	ldi	r31, 0x5B	; 91
     9b6:	47 e0       	ldi	r20, 0x07	; 7
     9b8:	50 e0       	ldi	r21, 0x00	; 0
     9ba:	60 e8       	ldi	r22, 0x80	; 128
     9bc:	70 e0       	ldi	r23, 0x00	; 0
     9be:	80 e0       	ldi	r24, 0x00	; 0
     9c0:	90 e0       	ldi	r25, 0x00	; 0
}

static uint16_t isqrt_c16(uint16_t val) {
    uint16_t temp, g = 0, b = 0x80, bshft = 7;
    do {
        if (val >= (temp = (((g << 1) + b)<<bshft--))) {
     9c2:	9c 01       	movw	r18, r24
     9c4:	22 0f       	add	r18, r18
     9c6:	33 1f       	adc	r19, r19
     9c8:	26 0f       	add	r18, r22
     9ca:	37 1f       	adc	r19, r23
     9cc:	04 2e       	mov	r0, r20
     9ce:	02 c0       	rjmp	.+4      	; 0x9d4 <main+0x1de>
     9d0:	22 0f       	add	r18, r18
     9d2:	33 1f       	adc	r19, r19
     9d4:	0a 94       	dec	r0
     9d6:	e2 f7       	brpl	.-8      	; 0x9d0 <main+0x1da>
     9d8:	41 50       	subi	r20, 0x01	; 1
     9da:	50 40       	sbci	r21, 0x00	; 0
     9dc:	e2 17       	cp	r30, r18
     9de:	f3 07       	cpc	r31, r19
     9e0:	20 f0       	brcs	.+8      	; 0x9ea <main+0x1f4>
            g += b;
     9e2:	86 0f       	add	r24, r22
     9e4:	97 1f       	adc	r25, r23
            val -= temp;
     9e6:	e2 1b       	sub	r30, r18
     9e8:	f3 0b       	sbc	r31, r19
        }
    } while (b >>= 1);
     9ea:	76 95       	lsr	r23
     9ec:	67 95       	ror	r22
     9ee:	2f ef       	ldi	r18, 0xFF	; 255
     9f0:	4f 3f       	cpi	r20, 0xFF	; 255
     9f2:	52 07       	cpc	r21, r18
     9f4:	31 f7       	brne	.-52     	; 0x9c2 <main+0x1cc>
	TIME_FUNC(print_int16);
	TIME_FUNC(print_int16_itoa);
	PrintString(" - sqrt(23442.0)  = ");
	PrintSignedShortFormated(sqrt(23442.0));	
	PrintString("\n - isqrt16(23442) = ");
	PrintSignedShortFormated(isqrt_c16(23442));
     9f6:	0e 94 07 03 	call	0x60e	; 0x60e <PrintSignedShortFormated>
     9fa:	e6 e1       	ldi	r30, 0x16	; 22
     9fc:	f1 e0       	ldi	r31, 0x01	; 1
     9fe:	8a e0       	ldi	r24, 0x0A	; 10
#endif

static PrintString(const char* str) {
	const char *c;
	for(c = str; *c; c++)
	  special_output_port = *c;
     a00:	80 bb       	out	0x10, r24	; 16
#define special_input_port  (*((volatile char *) SIM_RIO))
#endif

static PrintString(const char* str) {
	const char *c;
	for(c = str; *c; c++)
     a02:	31 96       	adiw	r30, 0x01	; 1
     a04:	80 81       	ld	r24, Z
     a06:	88 23       	and	r24, r24
     a08:	d9 f7       	brne	.-10     	; 0xa00 <main+0x20a>
	PrintSignedShortFormated(sqrt(23442.0));	
	PrintString("\n - isqrt16(23442) = ");
	PrintSignedShortFormated(isqrt_c16(23442));
	PrintString("\n");	
	return 0;	
}
     a0a:	80 e0       	ldi	r24, 0x00	; 0
     a0c:	90 e0       	ldi	r25, 0x00	; 0
     a0e:	08 95       	ret

00000a10 <print_int16_itoa>:

void print_int16(void) {
	PrintSignedShortFormated(-32421);
}

void print_int16_itoa(void) {
     a10:	0f 93       	push	r16
     a12:	1f 93       	push	r17
     a14:	df 93       	push	r29
     a16:	cf 93       	push	r28
     a18:	cd b7       	in	r28, 0x3d	; 61
     a1a:	de b7       	in	r29, 0x3e	; 62
     a1c:	27 97       	sbiw	r28, 0x07	; 7
     a1e:	0f b6       	in	r0, 0x3f	; 63
     a20:	f8 94       	cli
     a22:	de bf       	out	0x3e, r29	; 62
     a24:	0f be       	out	0x3f, r0	; 63
     a26:	cd bf       	out	0x3d, r28	; 61
	unsigned char sbuf[7];
	itoa(-32421, sbuf, 10);
     a28:	8b e5       	ldi	r24, 0x5B	; 91
     a2a:	91 e8       	ldi	r25, 0x81	; 129
     a2c:	8e 01       	movw	r16, r28
     a2e:	0f 5f       	subi	r16, 0xFF	; 255
     a30:	1f 4f       	sbci	r17, 0xFF	; 255
     a32:	b8 01       	movw	r22, r16
     a34:	4a e0       	ldi	r20, 0x0A	; 10
     a36:	50 e0       	ldi	r21, 0x00	; 0
     a38:	0e 94 23 0c 	call	0x1846	; 0x1846 <itoa>
	PrintString(sbuf);
     a3c:	f8 01       	movw	r30, r16
#define special_input_port  (*((volatile char *) SIM_RIO))
#endif

static PrintString(const char* str) {
	const char *c;
	for(c = str; *c; c++)
     a3e:	89 81       	ldd	r24, Y+1	; 0x01
     a40:	88 23       	and	r24, r24
     a42:	29 f0       	breq	.+10     	; 0xa4e <print_int16_itoa+0x3e>
	  special_output_port = *c;
     a44:	80 bb       	out	0x10, r24	; 16
#define special_input_port  (*((volatile char *) SIM_RIO))
#endif

static PrintString(const char* str) {
	const char *c;
	for(c = str; *c; c++)
     a46:	31 96       	adiw	r30, 0x01	; 1
     a48:	80 81       	ld	r24, Z
     a4a:	88 23       	and	r24, r24
     a4c:	d9 f7       	brne	.-10     	; 0xa44 <print_int16_itoa+0x34>

void print_int16_itoa(void) {
	unsigned char sbuf[7];
	itoa(-32421, sbuf, 10);
	PrintString(sbuf);
}
     a4e:	27 96       	adiw	r28, 0x07	; 7
     a50:	0f b6       	in	r0, 0x3f	; 63
     a52:	f8 94       	cli
     a54:	de bf       	out	0x3e, r29	; 62
     a56:	0f be       	out	0x3f, r0	; 63
     a58:	cd bf       	out	0x3d, r28	; 61
     a5a:	cf 91       	pop	r28
     a5c:	df 91       	pop	r29
     a5e:	1f 91       	pop	r17
     a60:	0f 91       	pop	r16
     a62:	08 95       	ret

00000a64 <int16_sqrt_asm>:
void int32_sqrt_asm() {
	l_c = isqrt32(23442342);
}

void int16_sqrt_asm() {
	l_c = isqrt16(23442);
     a64:	82 e9       	ldi	r24, 0x92	; 146
     a66:	9b e5       	ldi	r25, 0x5B	; 91
     a68:	0e 94 ae 05 	call	0xb5c	; 0xb5c <isqrt16>
     a6c:	90 e0       	ldi	r25, 0x00	; 0
     a6e:	a0 e0       	ldi	r26, 0x00	; 0
     a70:	b0 e0       	ldi	r27, 0x00	; 0
     a72:	80 93 36 04 	sts	0x0436, r24
     a76:	90 93 37 04 	sts	0x0437, r25
     a7a:	a0 93 38 04 	sts	0x0438, r26
     a7e:	b0 93 39 04 	sts	0x0439, r27
}
     a82:	08 95       	ret

00000a84 <int32_sqrt_asm>:
void int32_sqrt() {
	l_c = isqrt(23442342);
}

void int32_sqrt_asm() {
	l_c = isqrt32(23442342);
     a84:	66 ea       	ldi	r22, 0xA6	; 166
     a86:	73 eb       	ldi	r23, 0xB3	; 179
     a88:	85 e6       	ldi	r24, 0x65	; 101
     a8a:	91 e0       	ldi	r25, 0x01	; 1
     a8c:	0e 94 79 05 	call	0xaf2	; 0xaf2 <isqrt32>
     a90:	a0 e0       	ldi	r26, 0x00	; 0
     a92:	b0 e0       	ldi	r27, 0x00	; 0
     a94:	80 93 36 04 	sts	0x0436, r24
     a98:	90 93 37 04 	sts	0x0437, r25
     a9c:	a0 93 38 04 	sts	0x0438, r26
     aa0:	b0 93 39 04 	sts	0x0439, r27
}
     aa4:	08 95       	ret

00000aa6 <float_sin>:
void float_sqrt() {
	c = sqrt(a);
}

void float_sin() {
	c = sin(a);	
     aa6:	60 91 14 03 	lds	r22, 0x0314
     aaa:	70 91 15 03 	lds	r23, 0x0315
     aae:	80 91 16 03 	lds	r24, 0x0316
     ab2:	90 91 17 03 	lds	r25, 0x0317
     ab6:	0e 94 44 0c 	call	0x1888	; 0x1888 <sin>
     aba:	60 93 32 04 	sts	0x0432, r22
     abe:	70 93 33 04 	sts	0x0433, r23
     ac2:	80 93 34 04 	sts	0x0434, r24
     ac6:	90 93 35 04 	sts	0x0435, r25
}
     aca:	08 95       	ret

00000acc <float_sqrt>:
void float_div(void) {
	c = a / b;
}

void float_sqrt() {
	c = sqrt(a);
     acc:	60 91 14 03 	lds	r22, 0x0314
     ad0:	70 91 15 03 	lds	r23, 0x0315
     ad4:	80 91 16 03 	lds	r24, 0x0316
     ad8:	90 91 17 03 	lds	r25, 0x0317
     adc:	0e 94 4e 0c 	call	0x189c	; 0x189c <sqrt>
     ae0:	60 93 32 04 	sts	0x0432, r22
     ae4:	70 93 33 04 	sts	0x0433, r23
     ae8:	80 93 34 04 	sts	0x0434, r24
     aec:	90 93 35 04 	sts	0x0435, r25
}
     af0:	08 95       	ret

00000af2 <isqrt32>:
     af2:	00 24       	eor	r0, r0
     af4:	22 27       	eor	r18, r18
     af6:	33 27       	eor	r19, r19
     af8:	44 27       	eor	r20, r20
     afa:	51 e0       	ldi	r21, 0x01	; 1
     afc:	bb 27       	eor	r27, r27
     afe:	ee 27       	eor	r30, r30
     b00:	ff 27       	eor	r31, r31
     b02:	a0 e1       	ldi	r26, 0x10	; 16
     b04:	66 0f       	add	r22, r22
     b06:	77 1f       	adc	r23, r23
     b08:	88 1f       	adc	r24, r24
     b0a:	99 1f       	adc	r25, r25
     b0c:	00 1c       	adc	r0, r0
     b0e:	22 1f       	adc	r18, r18
     b10:	33 1f       	adc	r19, r19
     b12:	44 1f       	adc	r20, r20
     b14:	66 0f       	add	r22, r22
     b16:	77 1f       	adc	r23, r23
     b18:	88 1f       	adc	r24, r24
     b1a:	99 1f       	adc	r25, r25
     b1c:	00 1c       	adc	r0, r0
     b1e:	22 1f       	adc	r18, r18
     b20:	33 1f       	adc	r19, r19
     b22:	44 1f       	adc	r20, r20
     b24:	2a f4       	brpl	.+10     	; 0xb30 <isqrt32+0x3e>
     b26:	05 0e       	add	r0, r21
     b28:	2b 1f       	adc	r18, r27
     b2a:	3e 1f       	adc	r19, r30
     b2c:	4f 1f       	adc	r20, r31
     b2e:	04 c0       	rjmp	.+8      	; 0xb38 <isqrt32+0x46>
     b30:	05 1a       	sub	r0, r21
     b32:	2b 0b       	sbc	r18, r27
     b34:	3e 0b       	sbc	r19, r30
     b36:	4f 0b       	sbc	r20, r31
     b38:	55 0f       	add	r21, r21
     b3a:	bb 1f       	adc	r27, r27
     b3c:	ee 1f       	adc	r30, r30
     b3e:	58 7f       	andi	r21, 0xF8	; 248
     b40:	55 60       	ori	r21, 0x05	; 5
     b42:	47 fd       	sbrc	r20, 7
     b44:	52 50       	subi	r21, 0x02	; 2
     b46:	aa 95       	dec	r26
     b48:	e9 f6       	brne	.-70     	; 0xb04 <isqrt32+0x12>
     b4a:	e6 95       	lsr	r30
     b4c:	b7 95       	ror	r27
     b4e:	57 95       	ror	r21
     b50:	e6 95       	lsr	r30
     b52:	b7 95       	ror	r27
     b54:	57 95       	ror	r21
     b56:	85 2f       	mov	r24, r21
     b58:	9b 2f       	mov	r25, r27
     b5a:	08 95       	ret

00000b5c <isqrt16>:
     b5c:	22 27       	eor	r18, r18
     b5e:	33 27       	eor	r19, r19
     b60:	41 e0       	ldi	r20, 0x01	; 1
     b62:	55 27       	eor	r21, r21
     b64:	68 e0       	ldi	r22, 0x08	; 8
     b66:	88 0f       	add	r24, r24
     b68:	99 1f       	adc	r25, r25
     b6a:	22 1f       	adc	r18, r18
     b6c:	33 1f       	adc	r19, r19
     b6e:	88 0f       	add	r24, r24
     b70:	99 1f       	adc	r25, r25
     b72:	22 1f       	adc	r18, r18
     b74:	33 1f       	adc	r19, r19
     b76:	1a f4       	brpl	.+6      	; 0xb7e <isqrt16+0x22>
     b78:	24 0f       	add	r18, r20
     b7a:	35 1f       	adc	r19, r21
     b7c:	02 c0       	rjmp	.+4      	; 0xb82 <isqrt16+0x26>
     b7e:	24 1b       	sub	r18, r20
     b80:	35 0b       	sbc	r19, r21
     b82:	44 0f       	add	r20, r20
     b84:	55 1f       	adc	r21, r21
     b86:	48 7f       	andi	r20, 0xF8	; 248
     b88:	45 60       	ori	r20, 0x05	; 5
     b8a:	37 fd       	sbrc	r19, 7
     b8c:	42 50       	subi	r20, 0x02	; 2
     b8e:	6a 95       	dec	r22
     b90:	51 f7       	brne	.-44     	; 0xb66 <isqrt16+0xa>
     b92:	56 95       	lsr	r21
     b94:	47 95       	ror	r20
     b96:	56 95       	lsr	r21
     b98:	47 95       	ror	r20
     b9a:	84 2f       	mov	r24, r20
     b9c:	08 95       	ret

00000b9e <ihypot>:
     b9e:	aa 27       	eor	r26, r26
     ba0:	97 ff       	sbrs	r25, 7
     ba2:	04 c0       	rjmp	.+8      	; 0xbac <ihypot+0xe>
     ba4:	80 95       	com	r24
     ba6:	90 95       	com	r25
     ba8:	8a 1f       	adc	r24, r26
     baa:	9a 1f       	adc	r25, r26
     bac:	77 ff       	sbrs	r23, 7
     bae:	04 c0       	rjmp	.+8      	; 0xbb8 <ihypot+0x1a>
     bb0:	60 95       	com	r22
     bb2:	70 95       	com	r23
     bb4:	6a 1f       	adc	r22, r26
     bb6:	7a 1f       	adc	r23, r26
     bb8:	66 9f       	mul	r22, r22
     bba:	90 01       	movw	r18, r0
     bbc:	77 9f       	mul	r23, r23
     bbe:	a0 01       	movw	r20, r0
     bc0:	67 9f       	mul	r22, r23
     bc2:	30 0d       	add	r19, r0
     bc4:	41 1d       	adc	r20, r1
     bc6:	5a 1f       	adc	r21, r26
     bc8:	30 0d       	add	r19, r0
     bca:	41 1d       	adc	r20, r1
     bcc:	5a 1f       	adc	r21, r26
     bce:	88 9f       	mul	r24, r24
     bd0:	f0 01       	movw	r30, r0
     bd2:	99 9f       	mul	r25, r25
     bd4:	2e 0f       	add	r18, r30
     bd6:	3f 1f       	adc	r19, r31
     bd8:	40 1d       	adc	r20, r0
     bda:	51 1d       	adc	r21, r1
     bdc:	89 9f       	mul	r24, r25
     bde:	30 0d       	add	r19, r0
     be0:	41 1d       	adc	r20, r1
     be2:	5a 1f       	adc	r21, r26
     be4:	30 0d       	add	r19, r0
     be6:	41 1d       	adc	r20, r1
     be8:	5a 1f       	adc	r21, r26
     bea:	ca 01       	movw	r24, r20
     bec:	b9 01       	movw	r22, r18
     bee:	11 24       	eor	r1, r1
     bf0:	80 cf       	rjmp	.-256    	; 0xaf2 <isqrt32>

00000bf2 <_fpadd_parts>:
     bf2:	a0 e0       	ldi	r26, 0x00	; 0
     bf4:	b0 e0       	ldi	r27, 0x00	; 0
     bf6:	ef ef       	ldi	r30, 0xFF	; 255
     bf8:	f5 e0       	ldi	r31, 0x05	; 5
     bfa:	0c 94 ec 0b 	jmp	0x17d8	; 0x17d8 <__prologue_saves__>
     bfe:	dc 01       	movw	r26, r24
     c00:	2b 01       	movw	r4, r22
     c02:	fa 01       	movw	r30, r20
     c04:	9c 91       	ld	r25, X
     c06:	92 30       	cpi	r25, 0x02	; 2
     c08:	08 f4       	brcc	.+2      	; 0xc0c <_fpadd_parts+0x1a>
     c0a:	39 c1       	rjmp	.+626    	; 0xe7e <_fpadd_parts+0x28c>
     c0c:	eb 01       	movw	r28, r22
     c0e:	88 81       	ld	r24, Y
     c10:	82 30       	cpi	r24, 0x02	; 2
     c12:	08 f4       	brcc	.+2      	; 0xc16 <_fpadd_parts+0x24>
     c14:	33 c1       	rjmp	.+614    	; 0xe7c <_fpadd_parts+0x28a>
     c16:	94 30       	cpi	r25, 0x04	; 4
     c18:	69 f4       	brne	.+26     	; 0xc34 <_fpadd_parts+0x42>
     c1a:	84 30       	cpi	r24, 0x04	; 4
     c1c:	09 f0       	breq	.+2      	; 0xc20 <_fpadd_parts+0x2e>
     c1e:	2f c1       	rjmp	.+606    	; 0xe7e <_fpadd_parts+0x28c>
     c20:	11 96       	adiw	r26, 0x01	; 1
     c22:	9c 91       	ld	r25, X
     c24:	11 97       	sbiw	r26, 0x01	; 1
     c26:	89 81       	ldd	r24, Y+1	; 0x01
     c28:	98 17       	cp	r25, r24
     c2a:	09 f4       	brne	.+2      	; 0xc2e <_fpadd_parts+0x3c>
     c2c:	28 c1       	rjmp	.+592    	; 0xe7e <_fpadd_parts+0x28c>
     c2e:	aa e2       	ldi	r26, 0x2A	; 42
     c30:	b3 e0       	ldi	r27, 0x03	; 3
     c32:	25 c1       	rjmp	.+586    	; 0xe7e <_fpadd_parts+0x28c>
     c34:	84 30       	cpi	r24, 0x04	; 4
     c36:	09 f4       	brne	.+2      	; 0xc3a <_fpadd_parts+0x48>
     c38:	21 c1       	rjmp	.+578    	; 0xe7c <_fpadd_parts+0x28a>
     c3a:	82 30       	cpi	r24, 0x02	; 2
     c3c:	a9 f4       	brne	.+42     	; 0xc68 <_fpadd_parts+0x76>
     c3e:	92 30       	cpi	r25, 0x02	; 2
     c40:	09 f0       	breq	.+2      	; 0xc44 <_fpadd_parts+0x52>
     c42:	1d c1       	rjmp	.+570    	; 0xe7e <_fpadd_parts+0x28c>
     c44:	9a 01       	movw	r18, r20
     c46:	ad 01       	movw	r20, r26
     c48:	88 e0       	ldi	r24, 0x08	; 8
     c4a:	ea 01       	movw	r28, r20
     c4c:	09 90       	ld	r0, Y+
     c4e:	ae 01       	movw	r20, r28
     c50:	e9 01       	movw	r28, r18
     c52:	09 92       	st	Y+, r0
     c54:	9e 01       	movw	r18, r28
     c56:	81 50       	subi	r24, 0x01	; 1
     c58:	c1 f7       	brne	.-16     	; 0xc4a <_fpadd_parts+0x58>
     c5a:	e2 01       	movw	r28, r4
     c5c:	89 81       	ldd	r24, Y+1	; 0x01
     c5e:	11 96       	adiw	r26, 0x01	; 1
     c60:	9c 91       	ld	r25, X
     c62:	89 23       	and	r24, r25
     c64:	81 83       	std	Z+1, r24	; 0x01
     c66:	08 c1       	rjmp	.+528    	; 0xe78 <_fpadd_parts+0x286>
     c68:	92 30       	cpi	r25, 0x02	; 2
     c6a:	09 f4       	brne	.+2      	; 0xc6e <_fpadd_parts+0x7c>
     c6c:	07 c1       	rjmp	.+526    	; 0xe7c <_fpadd_parts+0x28a>
     c6e:	12 96       	adiw	r26, 0x02	; 2
     c70:	2d 90       	ld	r2, X+
     c72:	3c 90       	ld	r3, X
     c74:	13 97       	sbiw	r26, 0x03	; 3
     c76:	eb 01       	movw	r28, r22
     c78:	8a 81       	ldd	r24, Y+2	; 0x02
     c7a:	9b 81       	ldd	r25, Y+3	; 0x03
     c7c:	14 96       	adiw	r26, 0x04	; 4
     c7e:	ad 90       	ld	r10, X+
     c80:	bd 90       	ld	r11, X+
     c82:	cd 90       	ld	r12, X+
     c84:	dc 90       	ld	r13, X
     c86:	17 97       	sbiw	r26, 0x07	; 7
     c88:	ec 80       	ldd	r14, Y+4	; 0x04
     c8a:	fd 80       	ldd	r15, Y+5	; 0x05
     c8c:	0e 81       	ldd	r16, Y+6	; 0x06
     c8e:	1f 81       	ldd	r17, Y+7	; 0x07
     c90:	91 01       	movw	r18, r2
     c92:	28 1b       	sub	r18, r24
     c94:	39 0b       	sbc	r19, r25
     c96:	b9 01       	movw	r22, r18
     c98:	37 ff       	sbrs	r19, 7
     c9a:	04 c0       	rjmp	.+8      	; 0xca4 <_fpadd_parts+0xb2>
     c9c:	66 27       	eor	r22, r22
     c9e:	77 27       	eor	r23, r23
     ca0:	62 1b       	sub	r22, r18
     ca2:	73 0b       	sbc	r23, r19
     ca4:	60 32       	cpi	r22, 0x20	; 32
     ca6:	71 05       	cpc	r23, r1
     ca8:	0c f0       	brlt	.+2      	; 0xcac <_fpadd_parts+0xba>
     caa:	61 c0       	rjmp	.+194    	; 0xd6e <_fpadd_parts+0x17c>
     cac:	12 16       	cp	r1, r18
     cae:	13 06       	cpc	r1, r19
     cb0:	6c f5       	brge	.+90     	; 0xd0c <_fpadd_parts+0x11a>
     cb2:	37 01       	movw	r6, r14
     cb4:	48 01       	movw	r8, r16
     cb6:	06 2e       	mov	r0, r22
     cb8:	04 c0       	rjmp	.+8      	; 0xcc2 <_fpadd_parts+0xd0>
     cba:	96 94       	lsr	r9
     cbc:	87 94       	ror	r8
     cbe:	77 94       	ror	r7
     cc0:	67 94       	ror	r6
     cc2:	0a 94       	dec	r0
     cc4:	d2 f7       	brpl	.-12     	; 0xcba <_fpadd_parts+0xc8>
     cc6:	21 e0       	ldi	r18, 0x01	; 1
     cc8:	30 e0       	ldi	r19, 0x00	; 0
     cca:	40 e0       	ldi	r20, 0x00	; 0
     ccc:	50 e0       	ldi	r21, 0x00	; 0
     cce:	04 c0       	rjmp	.+8      	; 0xcd8 <_fpadd_parts+0xe6>
     cd0:	22 0f       	add	r18, r18
     cd2:	33 1f       	adc	r19, r19
     cd4:	44 1f       	adc	r20, r20
     cd6:	55 1f       	adc	r21, r21
     cd8:	6a 95       	dec	r22
     cda:	d2 f7       	brpl	.-12     	; 0xcd0 <_fpadd_parts+0xde>
     cdc:	21 50       	subi	r18, 0x01	; 1
     cde:	30 40       	sbci	r19, 0x00	; 0
     ce0:	40 40       	sbci	r20, 0x00	; 0
     ce2:	50 40       	sbci	r21, 0x00	; 0
     ce4:	2e 21       	and	r18, r14
     ce6:	3f 21       	and	r19, r15
     ce8:	40 23       	and	r20, r16
     cea:	51 23       	and	r21, r17
     cec:	21 15       	cp	r18, r1
     cee:	31 05       	cpc	r19, r1
     cf0:	41 05       	cpc	r20, r1
     cf2:	51 05       	cpc	r21, r1
     cf4:	21 f0       	breq	.+8      	; 0xcfe <_fpadd_parts+0x10c>
     cf6:	21 e0       	ldi	r18, 0x01	; 1
     cf8:	30 e0       	ldi	r19, 0x00	; 0
     cfa:	40 e0       	ldi	r20, 0x00	; 0
     cfc:	50 e0       	ldi	r21, 0x00	; 0
     cfe:	79 01       	movw	r14, r18
     d00:	8a 01       	movw	r16, r20
     d02:	e6 28       	or	r14, r6
     d04:	f7 28       	or	r15, r7
     d06:	08 29       	or	r16, r8
     d08:	19 29       	or	r17, r9
     d0a:	3c c0       	rjmp	.+120    	; 0xd84 <_fpadd_parts+0x192>
     d0c:	23 2b       	or	r18, r19
     d0e:	d1 f1       	breq	.+116    	; 0xd84 <_fpadd_parts+0x192>
     d10:	26 0e       	add	r2, r22
     d12:	37 1e       	adc	r3, r23
     d14:	35 01       	movw	r6, r10
     d16:	46 01       	movw	r8, r12
     d18:	06 2e       	mov	r0, r22
     d1a:	04 c0       	rjmp	.+8      	; 0xd24 <_fpadd_parts+0x132>
     d1c:	96 94       	lsr	r9
     d1e:	87 94       	ror	r8
     d20:	77 94       	ror	r7
     d22:	67 94       	ror	r6
     d24:	0a 94       	dec	r0
     d26:	d2 f7       	brpl	.-12     	; 0xd1c <_fpadd_parts+0x12a>
     d28:	21 e0       	ldi	r18, 0x01	; 1
     d2a:	30 e0       	ldi	r19, 0x00	; 0
     d2c:	40 e0       	ldi	r20, 0x00	; 0
     d2e:	50 e0       	ldi	r21, 0x00	; 0
     d30:	04 c0       	rjmp	.+8      	; 0xd3a <_fpadd_parts+0x148>
     d32:	22 0f       	add	r18, r18
     d34:	33 1f       	adc	r19, r19
     d36:	44 1f       	adc	r20, r20
     d38:	55 1f       	adc	r21, r21
     d3a:	6a 95       	dec	r22
     d3c:	d2 f7       	brpl	.-12     	; 0xd32 <_fpadd_parts+0x140>
     d3e:	21 50       	subi	r18, 0x01	; 1
     d40:	30 40       	sbci	r19, 0x00	; 0
     d42:	40 40       	sbci	r20, 0x00	; 0
     d44:	50 40       	sbci	r21, 0x00	; 0
     d46:	2a 21       	and	r18, r10
     d48:	3b 21       	and	r19, r11
     d4a:	4c 21       	and	r20, r12
     d4c:	5d 21       	and	r21, r13
     d4e:	21 15       	cp	r18, r1
     d50:	31 05       	cpc	r19, r1
     d52:	41 05       	cpc	r20, r1
     d54:	51 05       	cpc	r21, r1
     d56:	21 f0       	breq	.+8      	; 0xd60 <_fpadd_parts+0x16e>
     d58:	21 e0       	ldi	r18, 0x01	; 1
     d5a:	30 e0       	ldi	r19, 0x00	; 0
     d5c:	40 e0       	ldi	r20, 0x00	; 0
     d5e:	50 e0       	ldi	r21, 0x00	; 0
     d60:	59 01       	movw	r10, r18
     d62:	6a 01       	movw	r12, r20
     d64:	a6 28       	or	r10, r6
     d66:	b7 28       	or	r11, r7
     d68:	c8 28       	or	r12, r8
     d6a:	d9 28       	or	r13, r9
     d6c:	0b c0       	rjmp	.+22     	; 0xd84 <_fpadd_parts+0x192>
     d6e:	82 15       	cp	r24, r2
     d70:	93 05       	cpc	r25, r3
     d72:	2c f0       	brlt	.+10     	; 0xd7e <_fpadd_parts+0x18c>
     d74:	1c 01       	movw	r2, r24
     d76:	aa 24       	eor	r10, r10
     d78:	bb 24       	eor	r11, r11
     d7a:	65 01       	movw	r12, r10
     d7c:	03 c0       	rjmp	.+6      	; 0xd84 <_fpadd_parts+0x192>
     d7e:	ee 24       	eor	r14, r14
     d80:	ff 24       	eor	r15, r15
     d82:	87 01       	movw	r16, r14
     d84:	11 96       	adiw	r26, 0x01	; 1
     d86:	9c 91       	ld	r25, X
     d88:	d2 01       	movw	r26, r4
     d8a:	11 96       	adiw	r26, 0x01	; 1
     d8c:	8c 91       	ld	r24, X
     d8e:	98 17       	cp	r25, r24
     d90:	09 f4       	brne	.+2      	; 0xd94 <_fpadd_parts+0x1a2>
     d92:	45 c0       	rjmp	.+138    	; 0xe1e <_fpadd_parts+0x22c>
     d94:	99 23       	and	r25, r25
     d96:	39 f0       	breq	.+14     	; 0xda6 <_fpadd_parts+0x1b4>
     d98:	a8 01       	movw	r20, r16
     d9a:	97 01       	movw	r18, r14
     d9c:	2a 19       	sub	r18, r10
     d9e:	3b 09       	sbc	r19, r11
     da0:	4c 09       	sbc	r20, r12
     da2:	5d 09       	sbc	r21, r13
     da4:	06 c0       	rjmp	.+12     	; 0xdb2 <_fpadd_parts+0x1c0>
     da6:	a6 01       	movw	r20, r12
     da8:	95 01       	movw	r18, r10
     daa:	2e 19       	sub	r18, r14
     dac:	3f 09       	sbc	r19, r15
     dae:	40 0b       	sbc	r20, r16
     db0:	51 0b       	sbc	r21, r17
     db2:	57 fd       	sbrc	r21, 7
     db4:	08 c0       	rjmp	.+16     	; 0xdc6 <_fpadd_parts+0x1d4>
     db6:	11 82       	std	Z+1, r1	; 0x01
     db8:	33 82       	std	Z+3, r3	; 0x03
     dba:	22 82       	std	Z+2, r2	; 0x02
     dbc:	24 83       	std	Z+4, r18	; 0x04
     dbe:	35 83       	std	Z+5, r19	; 0x05
     dc0:	46 83       	std	Z+6, r20	; 0x06
     dc2:	57 83       	std	Z+7, r21	; 0x07
     dc4:	1d c0       	rjmp	.+58     	; 0xe00 <_fpadd_parts+0x20e>
     dc6:	81 e0       	ldi	r24, 0x01	; 1
     dc8:	81 83       	std	Z+1, r24	; 0x01
     dca:	33 82       	std	Z+3, r3	; 0x03
     dcc:	22 82       	std	Z+2, r2	; 0x02
     dce:	88 27       	eor	r24, r24
     dd0:	99 27       	eor	r25, r25
     dd2:	dc 01       	movw	r26, r24
     dd4:	82 1b       	sub	r24, r18
     dd6:	93 0b       	sbc	r25, r19
     dd8:	a4 0b       	sbc	r26, r20
     dda:	b5 0b       	sbc	r27, r21
     ddc:	84 83       	std	Z+4, r24	; 0x04
     dde:	95 83       	std	Z+5, r25	; 0x05
     de0:	a6 83       	std	Z+6, r26	; 0x06
     de2:	b7 83       	std	Z+7, r27	; 0x07
     de4:	0d c0       	rjmp	.+26     	; 0xe00 <_fpadd_parts+0x20e>
     de6:	22 0f       	add	r18, r18
     de8:	33 1f       	adc	r19, r19
     dea:	44 1f       	adc	r20, r20
     dec:	55 1f       	adc	r21, r21
     dee:	24 83       	std	Z+4, r18	; 0x04
     df0:	35 83       	std	Z+5, r19	; 0x05
     df2:	46 83       	std	Z+6, r20	; 0x06
     df4:	57 83       	std	Z+7, r21	; 0x07
     df6:	82 81       	ldd	r24, Z+2	; 0x02
     df8:	93 81       	ldd	r25, Z+3	; 0x03
     dfa:	01 97       	sbiw	r24, 0x01	; 1
     dfc:	93 83       	std	Z+3, r25	; 0x03
     dfe:	82 83       	std	Z+2, r24	; 0x02
     e00:	24 81       	ldd	r18, Z+4	; 0x04
     e02:	35 81       	ldd	r19, Z+5	; 0x05
     e04:	46 81       	ldd	r20, Z+6	; 0x06
     e06:	57 81       	ldd	r21, Z+7	; 0x07
     e08:	da 01       	movw	r26, r20
     e0a:	c9 01       	movw	r24, r18
     e0c:	01 97       	sbiw	r24, 0x01	; 1
     e0e:	a1 09       	sbc	r26, r1
     e10:	b1 09       	sbc	r27, r1
     e12:	8f 5f       	subi	r24, 0xFF	; 255
     e14:	9f 4f       	sbci	r25, 0xFF	; 255
     e16:	af 4f       	sbci	r26, 0xFF	; 255
     e18:	bf 43       	sbci	r27, 0x3F	; 63
     e1a:	28 f3       	brcs	.-54     	; 0xde6 <_fpadd_parts+0x1f4>
     e1c:	0b c0       	rjmp	.+22     	; 0xe34 <_fpadd_parts+0x242>
     e1e:	91 83       	std	Z+1, r25	; 0x01
     e20:	33 82       	std	Z+3, r3	; 0x03
     e22:	22 82       	std	Z+2, r2	; 0x02
     e24:	ea 0c       	add	r14, r10
     e26:	fb 1c       	adc	r15, r11
     e28:	0c 1d       	adc	r16, r12
     e2a:	1d 1d       	adc	r17, r13
     e2c:	e4 82       	std	Z+4, r14	; 0x04
     e2e:	f5 82       	std	Z+5, r15	; 0x05
     e30:	06 83       	std	Z+6, r16	; 0x06
     e32:	17 83       	std	Z+7, r17	; 0x07
     e34:	83 e0       	ldi	r24, 0x03	; 3
     e36:	80 83       	st	Z, r24
     e38:	24 81       	ldd	r18, Z+4	; 0x04
     e3a:	35 81       	ldd	r19, Z+5	; 0x05
     e3c:	46 81       	ldd	r20, Z+6	; 0x06
     e3e:	57 81       	ldd	r21, Z+7	; 0x07
     e40:	57 ff       	sbrs	r21, 7
     e42:	1a c0       	rjmp	.+52     	; 0xe78 <_fpadd_parts+0x286>
     e44:	c9 01       	movw	r24, r18
     e46:	aa 27       	eor	r26, r26
     e48:	97 fd       	sbrc	r25, 7
     e4a:	a0 95       	com	r26
     e4c:	ba 2f       	mov	r27, r26
     e4e:	81 70       	andi	r24, 0x01	; 1
     e50:	90 70       	andi	r25, 0x00	; 0
     e52:	a0 70       	andi	r26, 0x00	; 0
     e54:	b0 70       	andi	r27, 0x00	; 0
     e56:	56 95       	lsr	r21
     e58:	47 95       	ror	r20
     e5a:	37 95       	ror	r19
     e5c:	27 95       	ror	r18
     e5e:	82 2b       	or	r24, r18
     e60:	93 2b       	or	r25, r19
     e62:	a4 2b       	or	r26, r20
     e64:	b5 2b       	or	r27, r21
     e66:	84 83       	std	Z+4, r24	; 0x04
     e68:	95 83       	std	Z+5, r25	; 0x05
     e6a:	a6 83       	std	Z+6, r26	; 0x06
     e6c:	b7 83       	std	Z+7, r27	; 0x07
     e6e:	82 81       	ldd	r24, Z+2	; 0x02
     e70:	93 81       	ldd	r25, Z+3	; 0x03
     e72:	01 96       	adiw	r24, 0x01	; 1
     e74:	93 83       	std	Z+3, r25	; 0x03
     e76:	82 83       	std	Z+2, r24	; 0x02
     e78:	df 01       	movw	r26, r30
     e7a:	01 c0       	rjmp	.+2      	; 0xe7e <_fpadd_parts+0x28c>
     e7c:	d2 01       	movw	r26, r4
     e7e:	cd 01       	movw	r24, r26
     e80:	cd b7       	in	r28, 0x3d	; 61
     e82:	de b7       	in	r29, 0x3e	; 62
     e84:	e2 e1       	ldi	r30, 0x12	; 18
     e86:	0c 94 08 0c 	jmp	0x1810	; 0x1810 <__epilogue_restores__>

00000e8a <__subsf3>:
     e8a:	a0 e2       	ldi	r26, 0x20	; 32
     e8c:	b0 e0       	ldi	r27, 0x00	; 0
     e8e:	eb e4       	ldi	r30, 0x4B	; 75
     e90:	f7 e0       	ldi	r31, 0x07	; 7
     e92:	0c 94 f8 0b 	jmp	0x17f0	; 0x17f0 <__prologue_saves__+0x18>
     e96:	69 83       	std	Y+1, r22	; 0x01
     e98:	7a 83       	std	Y+2, r23	; 0x02
     e9a:	8b 83       	std	Y+3, r24	; 0x03
     e9c:	9c 83       	std	Y+4, r25	; 0x04
     e9e:	2d 83       	std	Y+5, r18	; 0x05
     ea0:	3e 83       	std	Y+6, r19	; 0x06
     ea2:	4f 83       	std	Y+7, r20	; 0x07
     ea4:	58 87       	std	Y+8, r21	; 0x08
     ea6:	e9 e0       	ldi	r30, 0x09	; 9
     ea8:	ee 2e       	mov	r14, r30
     eaa:	f1 2c       	mov	r15, r1
     eac:	ec 0e       	add	r14, r28
     eae:	fd 1e       	adc	r15, r29
     eb0:	ce 01       	movw	r24, r28
     eb2:	01 96       	adiw	r24, 0x01	; 1
     eb4:	b7 01       	movw	r22, r14
     eb6:	0e 94 1f 0b 	call	0x163e	; 0x163e <__unpack_f>
     eba:	8e 01       	movw	r16, r28
     ebc:	0f 5e       	subi	r16, 0xEF	; 239
     ebe:	1f 4f       	sbci	r17, 0xFF	; 255
     ec0:	ce 01       	movw	r24, r28
     ec2:	05 96       	adiw	r24, 0x05	; 5
     ec4:	b8 01       	movw	r22, r16
     ec6:	0e 94 1f 0b 	call	0x163e	; 0x163e <__unpack_f>
     eca:	8a 89       	ldd	r24, Y+18	; 0x12
     ecc:	91 e0       	ldi	r25, 0x01	; 1
     ece:	89 27       	eor	r24, r25
     ed0:	8a 8b       	std	Y+18, r24	; 0x12
     ed2:	c7 01       	movw	r24, r14
     ed4:	b8 01       	movw	r22, r16
     ed6:	ae 01       	movw	r20, r28
     ed8:	47 5e       	subi	r20, 0xE7	; 231
     eda:	5f 4f       	sbci	r21, 0xFF	; 255
     edc:	0e 94 f9 05 	call	0xbf2	; 0xbf2 <_fpadd_parts>
     ee0:	0e 94 4a 0a 	call	0x1494	; 0x1494 <__pack_f>
     ee4:	a0 96       	adiw	r28, 0x20	; 32
     ee6:	e6 e0       	ldi	r30, 0x06	; 6
     ee8:	0c 94 14 0c 	jmp	0x1828	; 0x1828 <__epilogue_restores__+0x18>

00000eec <__addsf3>:
     eec:	a0 e2       	ldi	r26, 0x20	; 32
     eee:	b0 e0       	ldi	r27, 0x00	; 0
     ef0:	ec e7       	ldi	r30, 0x7C	; 124
     ef2:	f7 e0       	ldi	r31, 0x07	; 7
     ef4:	0c 94 f8 0b 	jmp	0x17f0	; 0x17f0 <__prologue_saves__+0x18>
     ef8:	69 83       	std	Y+1, r22	; 0x01
     efa:	7a 83       	std	Y+2, r23	; 0x02
     efc:	8b 83       	std	Y+3, r24	; 0x03
     efe:	9c 83       	std	Y+4, r25	; 0x04
     f00:	2d 83       	std	Y+5, r18	; 0x05
     f02:	3e 83       	std	Y+6, r19	; 0x06
     f04:	4f 83       	std	Y+7, r20	; 0x07
     f06:	58 87       	std	Y+8, r21	; 0x08
     f08:	f9 e0       	ldi	r31, 0x09	; 9
     f0a:	ef 2e       	mov	r14, r31
     f0c:	f1 2c       	mov	r15, r1
     f0e:	ec 0e       	add	r14, r28
     f10:	fd 1e       	adc	r15, r29
     f12:	ce 01       	movw	r24, r28
     f14:	01 96       	adiw	r24, 0x01	; 1
     f16:	b7 01       	movw	r22, r14
     f18:	0e 94 1f 0b 	call	0x163e	; 0x163e <__unpack_f>
     f1c:	8e 01       	movw	r16, r28
     f1e:	0f 5e       	subi	r16, 0xEF	; 239
     f20:	1f 4f       	sbci	r17, 0xFF	; 255
     f22:	ce 01       	movw	r24, r28
     f24:	05 96       	adiw	r24, 0x05	; 5
     f26:	b8 01       	movw	r22, r16
     f28:	0e 94 1f 0b 	call	0x163e	; 0x163e <__unpack_f>
     f2c:	c7 01       	movw	r24, r14
     f2e:	b8 01       	movw	r22, r16
     f30:	ae 01       	movw	r20, r28
     f32:	47 5e       	subi	r20, 0xE7	; 231
     f34:	5f 4f       	sbci	r21, 0xFF	; 255
     f36:	0e 94 f9 05 	call	0xbf2	; 0xbf2 <_fpadd_parts>
     f3a:	0e 94 4a 0a 	call	0x1494	; 0x1494 <__pack_f>
     f3e:	a0 96       	adiw	r28, 0x20	; 32
     f40:	e6 e0       	ldi	r30, 0x06	; 6
     f42:	0c 94 14 0c 	jmp	0x1828	; 0x1828 <__epilogue_restores__+0x18>

00000f46 <__mulsf3>:
     f46:	a0 e2       	ldi	r26, 0x20	; 32
     f48:	b0 e0       	ldi	r27, 0x00	; 0
     f4a:	e9 ea       	ldi	r30, 0xA9	; 169
     f4c:	f7 e0       	ldi	r31, 0x07	; 7
     f4e:	0c 94 ec 0b 	jmp	0x17d8	; 0x17d8 <__prologue_saves__>
     f52:	69 83       	std	Y+1, r22	; 0x01
     f54:	7a 83       	std	Y+2, r23	; 0x02
     f56:	8b 83       	std	Y+3, r24	; 0x03
     f58:	9c 83       	std	Y+4, r25	; 0x04
     f5a:	2d 83       	std	Y+5, r18	; 0x05
     f5c:	3e 83       	std	Y+6, r19	; 0x06
     f5e:	4f 83       	std	Y+7, r20	; 0x07
     f60:	58 87       	std	Y+8, r21	; 0x08
     f62:	ce 01       	movw	r24, r28
     f64:	01 96       	adiw	r24, 0x01	; 1
     f66:	be 01       	movw	r22, r28
     f68:	67 5f       	subi	r22, 0xF7	; 247
     f6a:	7f 4f       	sbci	r23, 0xFF	; 255
     f6c:	0e 94 1f 0b 	call	0x163e	; 0x163e <__unpack_f>
     f70:	ce 01       	movw	r24, r28
     f72:	05 96       	adiw	r24, 0x05	; 5
     f74:	be 01       	movw	r22, r28
     f76:	6f 5e       	subi	r22, 0xEF	; 239
     f78:	7f 4f       	sbci	r23, 0xFF	; 255
     f7a:	0e 94 1f 0b 	call	0x163e	; 0x163e <__unpack_f>
     f7e:	99 85       	ldd	r25, Y+9	; 0x09
     f80:	92 30       	cpi	r25, 0x02	; 2
     f82:	88 f0       	brcs	.+34     	; 0xfa6 <__mulsf3+0x60>
     f84:	89 89       	ldd	r24, Y+17	; 0x11
     f86:	82 30       	cpi	r24, 0x02	; 2
     f88:	c8 f0       	brcs	.+50     	; 0xfbc <__mulsf3+0x76>
     f8a:	94 30       	cpi	r25, 0x04	; 4
     f8c:	19 f4       	brne	.+6      	; 0xf94 <__mulsf3+0x4e>
     f8e:	82 30       	cpi	r24, 0x02	; 2
     f90:	51 f4       	brne	.+20     	; 0xfa6 <__mulsf3+0x60>
     f92:	04 c0       	rjmp	.+8      	; 0xf9c <__mulsf3+0x56>
     f94:	84 30       	cpi	r24, 0x04	; 4
     f96:	29 f4       	brne	.+10     	; 0xfa2 <__mulsf3+0x5c>
     f98:	92 30       	cpi	r25, 0x02	; 2
     f9a:	81 f4       	brne	.+32     	; 0xfbc <__mulsf3+0x76>
     f9c:	8a e2       	ldi	r24, 0x2A	; 42
     f9e:	93 e0       	ldi	r25, 0x03	; 3
     fa0:	c6 c0       	rjmp	.+396    	; 0x112e <__stack+0x2f>
     fa2:	92 30       	cpi	r25, 0x02	; 2
     fa4:	49 f4       	brne	.+18     	; 0xfb8 <__mulsf3+0x72>
     fa6:	20 e0       	ldi	r18, 0x00	; 0
     fa8:	9a 85       	ldd	r25, Y+10	; 0x0a
     faa:	8a 89       	ldd	r24, Y+18	; 0x12
     fac:	98 13       	cpse	r25, r24
     fae:	21 e0       	ldi	r18, 0x01	; 1
     fb0:	2a 87       	std	Y+10, r18	; 0x0a
     fb2:	ce 01       	movw	r24, r28
     fb4:	09 96       	adiw	r24, 0x09	; 9
     fb6:	bb c0       	rjmp	.+374    	; 0x112e <__stack+0x2f>
     fb8:	82 30       	cpi	r24, 0x02	; 2
     fba:	49 f4       	brne	.+18     	; 0xfce <__mulsf3+0x88>
     fbc:	20 e0       	ldi	r18, 0x00	; 0
     fbe:	9a 85       	ldd	r25, Y+10	; 0x0a
     fc0:	8a 89       	ldd	r24, Y+18	; 0x12
     fc2:	98 13       	cpse	r25, r24
     fc4:	21 e0       	ldi	r18, 0x01	; 1
     fc6:	2a 8b       	std	Y+18, r18	; 0x12
     fc8:	ce 01       	movw	r24, r28
     fca:	41 96       	adiw	r24, 0x11	; 17
     fcc:	b0 c0       	rjmp	.+352    	; 0x112e <__stack+0x2f>
     fce:	2d 84       	ldd	r2, Y+13	; 0x0d
     fd0:	3e 84       	ldd	r3, Y+14	; 0x0e
     fd2:	4f 84       	ldd	r4, Y+15	; 0x0f
     fd4:	58 88       	ldd	r5, Y+16	; 0x10
     fd6:	6d 88       	ldd	r6, Y+21	; 0x15
     fd8:	7e 88       	ldd	r7, Y+22	; 0x16
     fda:	8f 88       	ldd	r8, Y+23	; 0x17
     fdc:	98 8c       	ldd	r9, Y+24	; 0x18
     fde:	ee 24       	eor	r14, r14
     fe0:	ff 24       	eor	r15, r15
     fe2:	87 01       	movw	r16, r14
     fe4:	aa 24       	eor	r10, r10
     fe6:	bb 24       	eor	r11, r11
     fe8:	65 01       	movw	r12, r10
     fea:	40 e0       	ldi	r20, 0x00	; 0
     fec:	50 e0       	ldi	r21, 0x00	; 0
     fee:	60 e0       	ldi	r22, 0x00	; 0
     ff0:	70 e0       	ldi	r23, 0x00	; 0
     ff2:	e0 e0       	ldi	r30, 0x00	; 0
     ff4:	f0 e0       	ldi	r31, 0x00	; 0
     ff6:	c1 01       	movw	r24, r2
     ff8:	81 70       	andi	r24, 0x01	; 1
     ffa:	90 70       	andi	r25, 0x00	; 0
     ffc:	89 2b       	or	r24, r25
     ffe:	e9 f0       	breq	.+58     	; 0x103a <__mulsf3+0xf4>
    1000:	e6 0c       	add	r14, r6
    1002:	f7 1c       	adc	r15, r7
    1004:	08 1d       	adc	r16, r8
    1006:	19 1d       	adc	r17, r9
    1008:	9a 01       	movw	r18, r20
    100a:	ab 01       	movw	r20, r22
    100c:	2a 0d       	add	r18, r10
    100e:	3b 1d       	adc	r19, r11
    1010:	4c 1d       	adc	r20, r12
    1012:	5d 1d       	adc	r21, r13
    1014:	80 e0       	ldi	r24, 0x00	; 0
    1016:	90 e0       	ldi	r25, 0x00	; 0
    1018:	a0 e0       	ldi	r26, 0x00	; 0
    101a:	b0 e0       	ldi	r27, 0x00	; 0
    101c:	e6 14       	cp	r14, r6
    101e:	f7 04       	cpc	r15, r7
    1020:	08 05       	cpc	r16, r8
    1022:	19 05       	cpc	r17, r9
    1024:	20 f4       	brcc	.+8      	; 0x102e <__mulsf3+0xe8>
    1026:	81 e0       	ldi	r24, 0x01	; 1
    1028:	90 e0       	ldi	r25, 0x00	; 0
    102a:	a0 e0       	ldi	r26, 0x00	; 0
    102c:	b0 e0       	ldi	r27, 0x00	; 0
    102e:	ba 01       	movw	r22, r20
    1030:	a9 01       	movw	r20, r18
    1032:	48 0f       	add	r20, r24
    1034:	59 1f       	adc	r21, r25
    1036:	6a 1f       	adc	r22, r26
    1038:	7b 1f       	adc	r23, r27
    103a:	aa 0c       	add	r10, r10
    103c:	bb 1c       	adc	r11, r11
    103e:	cc 1c       	adc	r12, r12
    1040:	dd 1c       	adc	r13, r13
    1042:	97 fe       	sbrs	r9, 7
    1044:	08 c0       	rjmp	.+16     	; 0x1056 <__mulsf3+0x110>
    1046:	81 e0       	ldi	r24, 0x01	; 1
    1048:	90 e0       	ldi	r25, 0x00	; 0
    104a:	a0 e0       	ldi	r26, 0x00	; 0
    104c:	b0 e0       	ldi	r27, 0x00	; 0
    104e:	a8 2a       	or	r10, r24
    1050:	b9 2a       	or	r11, r25
    1052:	ca 2a       	or	r12, r26
    1054:	db 2a       	or	r13, r27
    1056:	31 96       	adiw	r30, 0x01	; 1
    1058:	e0 32       	cpi	r30, 0x20	; 32
    105a:	f1 05       	cpc	r31, r1
    105c:	49 f0       	breq	.+18     	; 0x1070 <__mulsf3+0x12a>
    105e:	66 0c       	add	r6, r6
    1060:	77 1c       	adc	r7, r7
    1062:	88 1c       	adc	r8, r8
    1064:	99 1c       	adc	r9, r9
    1066:	56 94       	lsr	r5
    1068:	47 94       	ror	r4
    106a:	37 94       	ror	r3
    106c:	27 94       	ror	r2
    106e:	c3 cf       	rjmp	.-122    	; 0xff6 <__mulsf3+0xb0>
    1070:	fa 85       	ldd	r31, Y+10	; 0x0a
    1072:	ea 89       	ldd	r30, Y+18	; 0x12
    1074:	2b 89       	ldd	r18, Y+19	; 0x13
    1076:	3c 89       	ldd	r19, Y+20	; 0x14
    1078:	8b 85       	ldd	r24, Y+11	; 0x0b
    107a:	9c 85       	ldd	r25, Y+12	; 0x0c
    107c:	28 0f       	add	r18, r24
    107e:	39 1f       	adc	r19, r25
    1080:	2e 5f       	subi	r18, 0xFE	; 254
    1082:	3f 4f       	sbci	r19, 0xFF	; 255
    1084:	17 c0       	rjmp	.+46     	; 0x10b4 <__mulsf3+0x16e>
    1086:	ca 01       	movw	r24, r20
    1088:	81 70       	andi	r24, 0x01	; 1
    108a:	90 70       	andi	r25, 0x00	; 0
    108c:	89 2b       	or	r24, r25
    108e:	61 f0       	breq	.+24     	; 0x10a8 <__mulsf3+0x162>
    1090:	16 95       	lsr	r17
    1092:	07 95       	ror	r16
    1094:	f7 94       	ror	r15
    1096:	e7 94       	ror	r14
    1098:	80 e0       	ldi	r24, 0x00	; 0
    109a:	90 e0       	ldi	r25, 0x00	; 0
    109c:	a0 e0       	ldi	r26, 0x00	; 0
    109e:	b0 e8       	ldi	r27, 0x80	; 128
    10a0:	e8 2a       	or	r14, r24
    10a2:	f9 2a       	or	r15, r25
    10a4:	0a 2b       	or	r16, r26
    10a6:	1b 2b       	or	r17, r27
    10a8:	76 95       	lsr	r23
    10aa:	67 95       	ror	r22
    10ac:	57 95       	ror	r21
    10ae:	47 95       	ror	r20
    10b0:	2f 5f       	subi	r18, 0xFF	; 255
    10b2:	3f 4f       	sbci	r19, 0xFF	; 255
    10b4:	77 fd       	sbrc	r23, 7
    10b6:	e7 cf       	rjmp	.-50     	; 0x1086 <__mulsf3+0x140>
    10b8:	0c c0       	rjmp	.+24     	; 0x10d2 <__mulsf3+0x18c>
    10ba:	44 0f       	add	r20, r20
    10bc:	55 1f       	adc	r21, r21
    10be:	66 1f       	adc	r22, r22
    10c0:	77 1f       	adc	r23, r23
    10c2:	17 fd       	sbrc	r17, 7
    10c4:	41 60       	ori	r20, 0x01	; 1
    10c6:	ee 0c       	add	r14, r14
    10c8:	ff 1c       	adc	r15, r15
    10ca:	00 1f       	adc	r16, r16
    10cc:	11 1f       	adc	r17, r17
    10ce:	21 50       	subi	r18, 0x01	; 1
    10d0:	30 40       	sbci	r19, 0x00	; 0
    10d2:	40 30       	cpi	r20, 0x00	; 0
    10d4:	90 e0       	ldi	r25, 0x00	; 0
    10d6:	59 07       	cpc	r21, r25
    10d8:	90 e0       	ldi	r25, 0x00	; 0
    10da:	69 07       	cpc	r22, r25
    10dc:	90 e4       	ldi	r25, 0x40	; 64
    10de:	79 07       	cpc	r23, r25
    10e0:	60 f3       	brcs	.-40     	; 0x10ba <__mulsf3+0x174>
    10e2:	2b 8f       	std	Y+27, r18	; 0x1b
    10e4:	3c 8f       	std	Y+28, r19	; 0x1c
    10e6:	db 01       	movw	r26, r22
    10e8:	ca 01       	movw	r24, r20
    10ea:	8f 77       	andi	r24, 0x7F	; 127
    10ec:	90 70       	andi	r25, 0x00	; 0
    10ee:	a0 70       	andi	r26, 0x00	; 0
    10f0:	b0 70       	andi	r27, 0x00	; 0
    10f2:	80 34       	cpi	r24, 0x40	; 64
    10f4:	91 05       	cpc	r25, r1
    10f6:	a1 05       	cpc	r26, r1
    10f8:	b1 05       	cpc	r27, r1
    10fa:	61 f4       	brne	.+24     	; 0x1114 <__stack+0x15>
    10fc:	47 fd       	sbrc	r20, 7
    10fe:	0a c0       	rjmp	.+20     	; 0x1114 <__stack+0x15>
    1100:	e1 14       	cp	r14, r1
    1102:	f1 04       	cpc	r15, r1
    1104:	01 05       	cpc	r16, r1
    1106:	11 05       	cpc	r17, r1
    1108:	29 f0       	breq	.+10     	; 0x1114 <__stack+0x15>
    110a:	40 5c       	subi	r20, 0xC0	; 192
    110c:	5f 4f       	sbci	r21, 0xFF	; 255
    110e:	6f 4f       	sbci	r22, 0xFF	; 255
    1110:	7f 4f       	sbci	r23, 0xFF	; 255
    1112:	40 78       	andi	r20, 0x80	; 128
    1114:	1a 8e       	std	Y+26, r1	; 0x1a
    1116:	fe 17       	cp	r31, r30
    1118:	11 f0       	breq	.+4      	; 0x111e <__stack+0x1f>
    111a:	81 e0       	ldi	r24, 0x01	; 1
    111c:	8a 8f       	std	Y+26, r24	; 0x1a
    111e:	4d 8f       	std	Y+29, r20	; 0x1d
    1120:	5e 8f       	std	Y+30, r21	; 0x1e
    1122:	6f 8f       	std	Y+31, r22	; 0x1f
    1124:	78 a3       	std	Y+32, r23	; 0x20
    1126:	83 e0       	ldi	r24, 0x03	; 3
    1128:	89 8f       	std	Y+25, r24	; 0x19
    112a:	ce 01       	movw	r24, r28
    112c:	49 96       	adiw	r24, 0x19	; 25
    112e:	0e 94 4a 0a 	call	0x1494	; 0x1494 <__pack_f>
    1132:	a0 96       	adiw	r28, 0x20	; 32
    1134:	e2 e1       	ldi	r30, 0x12	; 18
    1136:	0c 94 08 0c 	jmp	0x1810	; 0x1810 <__epilogue_restores__>

0000113a <__divsf3>:
    113a:	a8 e1       	ldi	r26, 0x18	; 24
    113c:	b0 e0       	ldi	r27, 0x00	; 0
    113e:	e3 ea       	ldi	r30, 0xA3	; 163
    1140:	f8 e0       	ldi	r31, 0x08	; 8
    1142:	0c 94 f4 0b 	jmp	0x17e8	; 0x17e8 <__prologue_saves__+0x10>
    1146:	69 83       	std	Y+1, r22	; 0x01
    1148:	7a 83       	std	Y+2, r23	; 0x02
    114a:	8b 83       	std	Y+3, r24	; 0x03
    114c:	9c 83       	std	Y+4, r25	; 0x04
    114e:	2d 83       	std	Y+5, r18	; 0x05
    1150:	3e 83       	std	Y+6, r19	; 0x06
    1152:	4f 83       	std	Y+7, r20	; 0x07
    1154:	58 87       	std	Y+8, r21	; 0x08
    1156:	b9 e0       	ldi	r27, 0x09	; 9
    1158:	eb 2e       	mov	r14, r27
    115a:	f1 2c       	mov	r15, r1
    115c:	ec 0e       	add	r14, r28
    115e:	fd 1e       	adc	r15, r29
    1160:	ce 01       	movw	r24, r28
    1162:	01 96       	adiw	r24, 0x01	; 1
    1164:	b7 01       	movw	r22, r14
    1166:	0e 94 1f 0b 	call	0x163e	; 0x163e <__unpack_f>
    116a:	8e 01       	movw	r16, r28
    116c:	0f 5e       	subi	r16, 0xEF	; 239
    116e:	1f 4f       	sbci	r17, 0xFF	; 255
    1170:	ce 01       	movw	r24, r28
    1172:	05 96       	adiw	r24, 0x05	; 5
    1174:	b8 01       	movw	r22, r16
    1176:	0e 94 1f 0b 	call	0x163e	; 0x163e <__unpack_f>
    117a:	29 85       	ldd	r18, Y+9	; 0x09
    117c:	22 30       	cpi	r18, 0x02	; 2
    117e:	08 f4       	brcc	.+2      	; 0x1182 <__divsf3+0x48>
    1180:	7e c0       	rjmp	.+252    	; 0x127e <__divsf3+0x144>
    1182:	39 89       	ldd	r19, Y+17	; 0x11
    1184:	32 30       	cpi	r19, 0x02	; 2
    1186:	10 f4       	brcc	.+4      	; 0x118c <__divsf3+0x52>
    1188:	b8 01       	movw	r22, r16
    118a:	7c c0       	rjmp	.+248    	; 0x1284 <__divsf3+0x14a>
    118c:	8a 85       	ldd	r24, Y+10	; 0x0a
    118e:	9a 89       	ldd	r25, Y+18	; 0x12
    1190:	89 27       	eor	r24, r25
    1192:	8a 87       	std	Y+10, r24	; 0x0a
    1194:	24 30       	cpi	r18, 0x04	; 4
    1196:	11 f0       	breq	.+4      	; 0x119c <__divsf3+0x62>
    1198:	22 30       	cpi	r18, 0x02	; 2
    119a:	31 f4       	brne	.+12     	; 0x11a8 <__divsf3+0x6e>
    119c:	23 17       	cp	r18, r19
    119e:	09 f0       	breq	.+2      	; 0x11a2 <__divsf3+0x68>
    11a0:	6e c0       	rjmp	.+220    	; 0x127e <__divsf3+0x144>
    11a2:	6a e2       	ldi	r22, 0x2A	; 42
    11a4:	73 e0       	ldi	r23, 0x03	; 3
    11a6:	6e c0       	rjmp	.+220    	; 0x1284 <__divsf3+0x14a>
    11a8:	34 30       	cpi	r19, 0x04	; 4
    11aa:	39 f4       	brne	.+14     	; 0x11ba <__divsf3+0x80>
    11ac:	1d 86       	std	Y+13, r1	; 0x0d
    11ae:	1e 86       	std	Y+14, r1	; 0x0e
    11b0:	1f 86       	std	Y+15, r1	; 0x0f
    11b2:	18 8a       	std	Y+16, r1	; 0x10
    11b4:	1c 86       	std	Y+12, r1	; 0x0c
    11b6:	1b 86       	std	Y+11, r1	; 0x0b
    11b8:	04 c0       	rjmp	.+8      	; 0x11c2 <__divsf3+0x88>
    11ba:	32 30       	cpi	r19, 0x02	; 2
    11bc:	21 f4       	brne	.+8      	; 0x11c6 <__divsf3+0x8c>
    11be:	84 e0       	ldi	r24, 0x04	; 4
    11c0:	89 87       	std	Y+9, r24	; 0x09
    11c2:	b7 01       	movw	r22, r14
    11c4:	5f c0       	rjmp	.+190    	; 0x1284 <__divsf3+0x14a>
    11c6:	2b 85       	ldd	r18, Y+11	; 0x0b
    11c8:	3c 85       	ldd	r19, Y+12	; 0x0c
    11ca:	8b 89       	ldd	r24, Y+19	; 0x13
    11cc:	9c 89       	ldd	r25, Y+20	; 0x14
    11ce:	28 1b       	sub	r18, r24
    11d0:	39 0b       	sbc	r19, r25
    11d2:	3c 87       	std	Y+12, r19	; 0x0c
    11d4:	2b 87       	std	Y+11, r18	; 0x0b
    11d6:	ed 84       	ldd	r14, Y+13	; 0x0d
    11d8:	fe 84       	ldd	r15, Y+14	; 0x0e
    11da:	0f 85       	ldd	r16, Y+15	; 0x0f
    11dc:	18 89       	ldd	r17, Y+16	; 0x10
    11de:	ad 88       	ldd	r10, Y+21	; 0x15
    11e0:	be 88       	ldd	r11, Y+22	; 0x16
    11e2:	cf 88       	ldd	r12, Y+23	; 0x17
    11e4:	d8 8c       	ldd	r13, Y+24	; 0x18
    11e6:	ea 14       	cp	r14, r10
    11e8:	fb 04       	cpc	r15, r11
    11ea:	0c 05       	cpc	r16, r12
    11ec:	1d 05       	cpc	r17, r13
    11ee:	40 f4       	brcc	.+16     	; 0x1200 <__divsf3+0xc6>
    11f0:	ee 0c       	add	r14, r14
    11f2:	ff 1c       	adc	r15, r15
    11f4:	00 1f       	adc	r16, r16
    11f6:	11 1f       	adc	r17, r17
    11f8:	21 50       	subi	r18, 0x01	; 1
    11fa:	30 40       	sbci	r19, 0x00	; 0
    11fc:	3c 87       	std	Y+12, r19	; 0x0c
    11fe:	2b 87       	std	Y+11, r18	; 0x0b
    1200:	20 e0       	ldi	r18, 0x00	; 0
    1202:	30 e0       	ldi	r19, 0x00	; 0
    1204:	40 e0       	ldi	r20, 0x00	; 0
    1206:	50 e0       	ldi	r21, 0x00	; 0
    1208:	80 e0       	ldi	r24, 0x00	; 0
    120a:	90 e0       	ldi	r25, 0x00	; 0
    120c:	a0 e0       	ldi	r26, 0x00	; 0
    120e:	b0 e4       	ldi	r27, 0x40	; 64
    1210:	60 e0       	ldi	r22, 0x00	; 0
    1212:	70 e0       	ldi	r23, 0x00	; 0
    1214:	ea 14       	cp	r14, r10
    1216:	fb 04       	cpc	r15, r11
    1218:	0c 05       	cpc	r16, r12
    121a:	1d 05       	cpc	r17, r13
    121c:	40 f0       	brcs	.+16     	; 0x122e <__divsf3+0xf4>
    121e:	28 2b       	or	r18, r24
    1220:	39 2b       	or	r19, r25
    1222:	4a 2b       	or	r20, r26
    1224:	5b 2b       	or	r21, r27
    1226:	ea 18       	sub	r14, r10
    1228:	fb 08       	sbc	r15, r11
    122a:	0c 09       	sbc	r16, r12
    122c:	1d 09       	sbc	r17, r13
    122e:	b6 95       	lsr	r27
    1230:	a7 95       	ror	r26
    1232:	97 95       	ror	r25
    1234:	87 95       	ror	r24
    1236:	ee 0c       	add	r14, r14
    1238:	ff 1c       	adc	r15, r15
    123a:	00 1f       	adc	r16, r16
    123c:	11 1f       	adc	r17, r17
    123e:	6f 5f       	subi	r22, 0xFF	; 255
    1240:	7f 4f       	sbci	r23, 0xFF	; 255
    1242:	6f 31       	cpi	r22, 0x1F	; 31
    1244:	71 05       	cpc	r23, r1
    1246:	31 f7       	brne	.-52     	; 0x1214 <__divsf3+0xda>
    1248:	da 01       	movw	r26, r20
    124a:	c9 01       	movw	r24, r18
    124c:	8f 77       	andi	r24, 0x7F	; 127
    124e:	90 70       	andi	r25, 0x00	; 0
    1250:	a0 70       	andi	r26, 0x00	; 0
    1252:	b0 70       	andi	r27, 0x00	; 0
    1254:	80 34       	cpi	r24, 0x40	; 64
    1256:	91 05       	cpc	r25, r1
    1258:	a1 05       	cpc	r26, r1
    125a:	b1 05       	cpc	r27, r1
    125c:	61 f4       	brne	.+24     	; 0x1276 <__divsf3+0x13c>
    125e:	27 fd       	sbrc	r18, 7
    1260:	0a c0       	rjmp	.+20     	; 0x1276 <__divsf3+0x13c>
    1262:	e1 14       	cp	r14, r1
    1264:	f1 04       	cpc	r15, r1
    1266:	01 05       	cpc	r16, r1
    1268:	11 05       	cpc	r17, r1
    126a:	29 f0       	breq	.+10     	; 0x1276 <__divsf3+0x13c>
    126c:	20 5c       	subi	r18, 0xC0	; 192
    126e:	3f 4f       	sbci	r19, 0xFF	; 255
    1270:	4f 4f       	sbci	r20, 0xFF	; 255
    1272:	5f 4f       	sbci	r21, 0xFF	; 255
    1274:	20 78       	andi	r18, 0x80	; 128
    1276:	2d 87       	std	Y+13, r18	; 0x0d
    1278:	3e 87       	std	Y+14, r19	; 0x0e
    127a:	4f 87       	std	Y+15, r20	; 0x0f
    127c:	58 8b       	std	Y+16, r21	; 0x10
    127e:	be 01       	movw	r22, r28
    1280:	67 5f       	subi	r22, 0xF7	; 247
    1282:	7f 4f       	sbci	r23, 0xFF	; 255
    1284:	cb 01       	movw	r24, r22
    1286:	0e 94 4a 0a 	call	0x1494	; 0x1494 <__pack_f>
    128a:	68 96       	adiw	r28, 0x18	; 24
    128c:	ea e0       	ldi	r30, 0x0A	; 10
    128e:	0c 94 10 0c 	jmp	0x1820	; 0x1820 <__epilogue_restores__+0x10>

00001292 <__floatsisf>:
    1292:	a8 e0       	ldi	r26, 0x08	; 8
    1294:	b0 e0       	ldi	r27, 0x00	; 0
    1296:	ef e4       	ldi	r30, 0x4F	; 79
    1298:	f9 e0       	ldi	r31, 0x09	; 9
    129a:	0c 94 f5 0b 	jmp	0x17ea	; 0x17ea <__prologue_saves__+0x12>
    129e:	9b 01       	movw	r18, r22
    12a0:	ac 01       	movw	r20, r24
    12a2:	83 e0       	ldi	r24, 0x03	; 3
    12a4:	89 83       	std	Y+1, r24	; 0x01
    12a6:	da 01       	movw	r26, r20
    12a8:	c9 01       	movw	r24, r18
    12aa:	88 27       	eor	r24, r24
    12ac:	b7 fd       	sbrc	r27, 7
    12ae:	83 95       	inc	r24
    12b0:	99 27       	eor	r25, r25
    12b2:	aa 27       	eor	r26, r26
    12b4:	bb 27       	eor	r27, r27
    12b6:	b8 2e       	mov	r11, r24
    12b8:	21 15       	cp	r18, r1
    12ba:	31 05       	cpc	r19, r1
    12bc:	41 05       	cpc	r20, r1
    12be:	51 05       	cpc	r21, r1
    12c0:	19 f4       	brne	.+6      	; 0x12c8 <__floatsisf+0x36>
    12c2:	82 e0       	ldi	r24, 0x02	; 2
    12c4:	89 83       	std	Y+1, r24	; 0x01
    12c6:	3a c0       	rjmp	.+116    	; 0x133c <__floatsisf+0xaa>
    12c8:	88 23       	and	r24, r24
    12ca:	a9 f0       	breq	.+42     	; 0x12f6 <__floatsisf+0x64>
    12cc:	20 30       	cpi	r18, 0x00	; 0
    12ce:	80 e0       	ldi	r24, 0x00	; 0
    12d0:	38 07       	cpc	r19, r24
    12d2:	80 e0       	ldi	r24, 0x00	; 0
    12d4:	48 07       	cpc	r20, r24
    12d6:	80 e8       	ldi	r24, 0x80	; 128
    12d8:	58 07       	cpc	r21, r24
    12da:	29 f4       	brne	.+10     	; 0x12e6 <__floatsisf+0x54>
    12dc:	60 e0       	ldi	r22, 0x00	; 0
    12de:	70 e0       	ldi	r23, 0x00	; 0
    12e0:	80 e0       	ldi	r24, 0x00	; 0
    12e2:	9f ec       	ldi	r25, 0xCF	; 207
    12e4:	30 c0       	rjmp	.+96     	; 0x1346 <__floatsisf+0xb4>
    12e6:	ee 24       	eor	r14, r14
    12e8:	ff 24       	eor	r15, r15
    12ea:	87 01       	movw	r16, r14
    12ec:	e2 1a       	sub	r14, r18
    12ee:	f3 0a       	sbc	r15, r19
    12f0:	04 0b       	sbc	r16, r20
    12f2:	15 0b       	sbc	r17, r21
    12f4:	02 c0       	rjmp	.+4      	; 0x12fa <__floatsisf+0x68>
    12f6:	79 01       	movw	r14, r18
    12f8:	8a 01       	movw	r16, r20
    12fa:	8e e1       	ldi	r24, 0x1E	; 30
    12fc:	c8 2e       	mov	r12, r24
    12fe:	d1 2c       	mov	r13, r1
    1300:	dc 82       	std	Y+4, r13	; 0x04
    1302:	cb 82       	std	Y+3, r12	; 0x03
    1304:	ed 82       	std	Y+5, r14	; 0x05
    1306:	fe 82       	std	Y+6, r15	; 0x06
    1308:	0f 83       	std	Y+7, r16	; 0x07
    130a:	18 87       	std	Y+8, r17	; 0x08
    130c:	c8 01       	movw	r24, r16
    130e:	b7 01       	movw	r22, r14
    1310:	0e 94 fb 09 	call	0x13f6	; 0x13f6 <__clzsi2>
    1314:	01 97       	sbiw	r24, 0x01	; 1
    1316:	18 16       	cp	r1, r24
    1318:	19 06       	cpc	r1, r25
    131a:	84 f4       	brge	.+32     	; 0x133c <__floatsisf+0xaa>
    131c:	08 2e       	mov	r0, r24
    131e:	04 c0       	rjmp	.+8      	; 0x1328 <__floatsisf+0x96>
    1320:	ee 0c       	add	r14, r14
    1322:	ff 1c       	adc	r15, r15
    1324:	00 1f       	adc	r16, r16
    1326:	11 1f       	adc	r17, r17
    1328:	0a 94       	dec	r0
    132a:	d2 f7       	brpl	.-12     	; 0x1320 <__floatsisf+0x8e>
    132c:	ed 82       	std	Y+5, r14	; 0x05
    132e:	fe 82       	std	Y+6, r15	; 0x06
    1330:	0f 83       	std	Y+7, r16	; 0x07
    1332:	18 87       	std	Y+8, r17	; 0x08
    1334:	c8 1a       	sub	r12, r24
    1336:	d9 0a       	sbc	r13, r25
    1338:	dc 82       	std	Y+4, r13	; 0x04
    133a:	cb 82       	std	Y+3, r12	; 0x03
    133c:	ba 82       	std	Y+2, r11	; 0x02
    133e:	ce 01       	movw	r24, r28
    1340:	01 96       	adiw	r24, 0x01	; 1
    1342:	0e 94 4a 0a 	call	0x1494	; 0x1494 <__pack_f>
    1346:	28 96       	adiw	r28, 0x08	; 8
    1348:	e9 e0       	ldi	r30, 0x09	; 9
    134a:	0c 94 11 0c 	jmp	0x1822	; 0x1822 <__epilogue_restores__+0x12>

0000134e <__fixsfsi>:
    134e:	ac e0       	ldi	r26, 0x0C	; 12
    1350:	b0 e0       	ldi	r27, 0x00	; 0
    1352:	ed ea       	ldi	r30, 0xAD	; 173
    1354:	f9 e0       	ldi	r31, 0x09	; 9
    1356:	0c 94 fc 0b 	jmp	0x17f8	; 0x17f8 <__prologue_saves__+0x20>
    135a:	69 83       	std	Y+1, r22	; 0x01
    135c:	7a 83       	std	Y+2, r23	; 0x02
    135e:	8b 83       	std	Y+3, r24	; 0x03
    1360:	9c 83       	std	Y+4, r25	; 0x04
    1362:	ce 01       	movw	r24, r28
    1364:	01 96       	adiw	r24, 0x01	; 1
    1366:	be 01       	movw	r22, r28
    1368:	6b 5f       	subi	r22, 0xFB	; 251
    136a:	7f 4f       	sbci	r23, 0xFF	; 255
    136c:	0e 94 1f 0b 	call	0x163e	; 0x163e <__unpack_f>
    1370:	8d 81       	ldd	r24, Y+5	; 0x05
    1372:	82 30       	cpi	r24, 0x02	; 2
    1374:	61 f1       	breq	.+88     	; 0x13ce <__fixsfsi+0x80>
    1376:	82 30       	cpi	r24, 0x02	; 2
    1378:	50 f1       	brcs	.+84     	; 0x13ce <__fixsfsi+0x80>
    137a:	84 30       	cpi	r24, 0x04	; 4
    137c:	21 f4       	brne	.+8      	; 0x1386 <__fixsfsi+0x38>
    137e:	8e 81       	ldd	r24, Y+6	; 0x06
    1380:	88 23       	and	r24, r24
    1382:	51 f1       	breq	.+84     	; 0x13d8 <__fixsfsi+0x8a>
    1384:	2e c0       	rjmp	.+92     	; 0x13e2 <__fixsfsi+0x94>
    1386:	2f 81       	ldd	r18, Y+7	; 0x07
    1388:	38 85       	ldd	r19, Y+8	; 0x08
    138a:	37 fd       	sbrc	r19, 7
    138c:	20 c0       	rjmp	.+64     	; 0x13ce <__fixsfsi+0x80>
    138e:	6e 81       	ldd	r22, Y+6	; 0x06
    1390:	2f 31       	cpi	r18, 0x1F	; 31
    1392:	31 05       	cpc	r19, r1
    1394:	1c f0       	brlt	.+6      	; 0x139c <__fixsfsi+0x4e>
    1396:	66 23       	and	r22, r22
    1398:	f9 f0       	breq	.+62     	; 0x13d8 <__fixsfsi+0x8a>
    139a:	23 c0       	rjmp	.+70     	; 0x13e2 <__fixsfsi+0x94>
    139c:	8e e1       	ldi	r24, 0x1E	; 30
    139e:	90 e0       	ldi	r25, 0x00	; 0
    13a0:	82 1b       	sub	r24, r18
    13a2:	93 0b       	sbc	r25, r19
    13a4:	29 85       	ldd	r18, Y+9	; 0x09
    13a6:	3a 85       	ldd	r19, Y+10	; 0x0a
    13a8:	4b 85       	ldd	r20, Y+11	; 0x0b
    13aa:	5c 85       	ldd	r21, Y+12	; 0x0c
    13ac:	04 c0       	rjmp	.+8      	; 0x13b6 <__fixsfsi+0x68>
    13ae:	56 95       	lsr	r21
    13b0:	47 95       	ror	r20
    13b2:	37 95       	ror	r19
    13b4:	27 95       	ror	r18
    13b6:	8a 95       	dec	r24
    13b8:	d2 f7       	brpl	.-12     	; 0x13ae <__fixsfsi+0x60>
    13ba:	66 23       	and	r22, r22
    13bc:	b1 f0       	breq	.+44     	; 0x13ea <__fixsfsi+0x9c>
    13be:	50 95       	com	r21
    13c0:	40 95       	com	r20
    13c2:	30 95       	com	r19
    13c4:	21 95       	neg	r18
    13c6:	3f 4f       	sbci	r19, 0xFF	; 255
    13c8:	4f 4f       	sbci	r20, 0xFF	; 255
    13ca:	5f 4f       	sbci	r21, 0xFF	; 255
    13cc:	0e c0       	rjmp	.+28     	; 0x13ea <__fixsfsi+0x9c>
    13ce:	20 e0       	ldi	r18, 0x00	; 0
    13d0:	30 e0       	ldi	r19, 0x00	; 0
    13d2:	40 e0       	ldi	r20, 0x00	; 0
    13d4:	50 e0       	ldi	r21, 0x00	; 0
    13d6:	09 c0       	rjmp	.+18     	; 0x13ea <__fixsfsi+0x9c>
    13d8:	2f ef       	ldi	r18, 0xFF	; 255
    13da:	3f ef       	ldi	r19, 0xFF	; 255
    13dc:	4f ef       	ldi	r20, 0xFF	; 255
    13de:	5f e7       	ldi	r21, 0x7F	; 127
    13e0:	04 c0       	rjmp	.+8      	; 0x13ea <__fixsfsi+0x9c>
    13e2:	20 e0       	ldi	r18, 0x00	; 0
    13e4:	30 e0       	ldi	r19, 0x00	; 0
    13e6:	40 e0       	ldi	r20, 0x00	; 0
    13e8:	50 e8       	ldi	r21, 0x80	; 128
    13ea:	b9 01       	movw	r22, r18
    13ec:	ca 01       	movw	r24, r20
    13ee:	2c 96       	adiw	r28, 0x0c	; 12
    13f0:	e2 e0       	ldi	r30, 0x02	; 2
    13f2:	0c 94 18 0c 	jmp	0x1830	; 0x1830 <__epilogue_restores__+0x20>

000013f6 <__clzsi2>:
    13f6:	ef 92       	push	r14
    13f8:	ff 92       	push	r15
    13fa:	0f 93       	push	r16
    13fc:	1f 93       	push	r17
    13fe:	7b 01       	movw	r14, r22
    1400:	8c 01       	movw	r16, r24
    1402:	80 e0       	ldi	r24, 0x00	; 0
    1404:	e8 16       	cp	r14, r24
    1406:	80 e0       	ldi	r24, 0x00	; 0
    1408:	f8 06       	cpc	r15, r24
    140a:	81 e0       	ldi	r24, 0x01	; 1
    140c:	08 07       	cpc	r16, r24
    140e:	80 e0       	ldi	r24, 0x00	; 0
    1410:	18 07       	cpc	r17, r24
    1412:	88 f4       	brcc	.+34     	; 0x1436 <__clzsi2+0x40>
    1414:	8f ef       	ldi	r24, 0xFF	; 255
    1416:	e8 16       	cp	r14, r24
    1418:	f1 04       	cpc	r15, r1
    141a:	01 05       	cpc	r16, r1
    141c:	11 05       	cpc	r17, r1
    141e:	31 f0       	breq	.+12     	; 0x142c <__clzsi2+0x36>
    1420:	28 f0       	brcs	.+10     	; 0x142c <__clzsi2+0x36>
    1422:	88 e0       	ldi	r24, 0x08	; 8
    1424:	90 e0       	ldi	r25, 0x00	; 0
    1426:	a0 e0       	ldi	r26, 0x00	; 0
    1428:	b0 e0       	ldi	r27, 0x00	; 0
    142a:	17 c0       	rjmp	.+46     	; 0x145a <__clzsi2+0x64>
    142c:	80 e0       	ldi	r24, 0x00	; 0
    142e:	90 e0       	ldi	r25, 0x00	; 0
    1430:	a0 e0       	ldi	r26, 0x00	; 0
    1432:	b0 e0       	ldi	r27, 0x00	; 0
    1434:	12 c0       	rjmp	.+36     	; 0x145a <__clzsi2+0x64>
    1436:	80 e0       	ldi	r24, 0x00	; 0
    1438:	e8 16       	cp	r14, r24
    143a:	80 e0       	ldi	r24, 0x00	; 0
    143c:	f8 06       	cpc	r15, r24
    143e:	80 e0       	ldi	r24, 0x00	; 0
    1440:	08 07       	cpc	r16, r24
    1442:	81 e0       	ldi	r24, 0x01	; 1
    1444:	18 07       	cpc	r17, r24
    1446:	28 f0       	brcs	.+10     	; 0x1452 <__clzsi2+0x5c>
    1448:	88 e1       	ldi	r24, 0x18	; 24
    144a:	90 e0       	ldi	r25, 0x00	; 0
    144c:	a0 e0       	ldi	r26, 0x00	; 0
    144e:	b0 e0       	ldi	r27, 0x00	; 0
    1450:	04 c0       	rjmp	.+8      	; 0x145a <__clzsi2+0x64>
    1452:	80 e1       	ldi	r24, 0x10	; 16
    1454:	90 e0       	ldi	r25, 0x00	; 0
    1456:	a0 e0       	ldi	r26, 0x00	; 0
    1458:	b0 e0       	ldi	r27, 0x00	; 0
    145a:	20 e2       	ldi	r18, 0x20	; 32
    145c:	30 e0       	ldi	r19, 0x00	; 0
    145e:	40 e0       	ldi	r20, 0x00	; 0
    1460:	50 e0       	ldi	r21, 0x00	; 0
    1462:	28 1b       	sub	r18, r24
    1464:	39 0b       	sbc	r19, r25
    1466:	4a 0b       	sbc	r20, r26
    1468:	5b 0b       	sbc	r21, r27
    146a:	04 c0       	rjmp	.+8      	; 0x1474 <__clzsi2+0x7e>
    146c:	16 95       	lsr	r17
    146e:	07 95       	ror	r16
    1470:	f7 94       	ror	r15
    1472:	e7 94       	ror	r14
    1474:	8a 95       	dec	r24
    1476:	d2 f7       	brpl	.-12     	; 0x146c <__clzsi2+0x76>
    1478:	f7 01       	movw	r30, r14
    147a:	ee 5c       	subi	r30, 0xCE	; 206
    147c:	fc 4f       	sbci	r31, 0xFC	; 252
    147e:	80 81       	ld	r24, Z
    1480:	28 1b       	sub	r18, r24
    1482:	31 09       	sbc	r19, r1
    1484:	41 09       	sbc	r20, r1
    1486:	51 09       	sbc	r21, r1
    1488:	c9 01       	movw	r24, r18
    148a:	1f 91       	pop	r17
    148c:	0f 91       	pop	r16
    148e:	ff 90       	pop	r15
    1490:	ef 90       	pop	r14
    1492:	08 95       	ret

00001494 <__pack_f>:
    1494:	df 92       	push	r13
    1496:	ef 92       	push	r14
    1498:	ff 92       	push	r15
    149a:	0f 93       	push	r16
    149c:	1f 93       	push	r17
    149e:	fc 01       	movw	r30, r24
    14a0:	e4 80       	ldd	r14, Z+4	; 0x04
    14a2:	f5 80       	ldd	r15, Z+5	; 0x05
    14a4:	06 81       	ldd	r16, Z+6	; 0x06
    14a6:	17 81       	ldd	r17, Z+7	; 0x07
    14a8:	d1 80       	ldd	r13, Z+1	; 0x01
    14aa:	80 81       	ld	r24, Z
    14ac:	82 30       	cpi	r24, 0x02	; 2
    14ae:	48 f4       	brcc	.+18     	; 0x14c2 <__pack_f+0x2e>
    14b0:	80 e0       	ldi	r24, 0x00	; 0
    14b2:	90 e0       	ldi	r25, 0x00	; 0
    14b4:	a0 e1       	ldi	r26, 0x10	; 16
    14b6:	b0 e0       	ldi	r27, 0x00	; 0
    14b8:	e8 2a       	or	r14, r24
    14ba:	f9 2a       	or	r15, r25
    14bc:	0a 2b       	or	r16, r26
    14be:	1b 2b       	or	r17, r27
    14c0:	a5 c0       	rjmp	.+330    	; 0x160c <__pack_f+0x178>
    14c2:	84 30       	cpi	r24, 0x04	; 4
    14c4:	09 f4       	brne	.+2      	; 0x14c8 <__pack_f+0x34>
    14c6:	9f c0       	rjmp	.+318    	; 0x1606 <__pack_f+0x172>
    14c8:	82 30       	cpi	r24, 0x02	; 2
    14ca:	21 f4       	brne	.+8      	; 0x14d4 <__pack_f+0x40>
    14cc:	ee 24       	eor	r14, r14
    14ce:	ff 24       	eor	r15, r15
    14d0:	87 01       	movw	r16, r14
    14d2:	05 c0       	rjmp	.+10     	; 0x14de <__pack_f+0x4a>
    14d4:	e1 14       	cp	r14, r1
    14d6:	f1 04       	cpc	r15, r1
    14d8:	01 05       	cpc	r16, r1
    14da:	11 05       	cpc	r17, r1
    14dc:	19 f4       	brne	.+6      	; 0x14e4 <__pack_f+0x50>
    14de:	e0 e0       	ldi	r30, 0x00	; 0
    14e0:	f0 e0       	ldi	r31, 0x00	; 0
    14e2:	96 c0       	rjmp	.+300    	; 0x1610 <__pack_f+0x17c>
    14e4:	62 81       	ldd	r22, Z+2	; 0x02
    14e6:	73 81       	ldd	r23, Z+3	; 0x03
    14e8:	9f ef       	ldi	r25, 0xFF	; 255
    14ea:	62 38       	cpi	r22, 0x82	; 130
    14ec:	79 07       	cpc	r23, r25
    14ee:	0c f0       	brlt	.+2      	; 0x14f2 <__pack_f+0x5e>
    14f0:	5b c0       	rjmp	.+182    	; 0x15a8 <__pack_f+0x114>
    14f2:	22 e8       	ldi	r18, 0x82	; 130
    14f4:	3f ef       	ldi	r19, 0xFF	; 255
    14f6:	26 1b       	sub	r18, r22
    14f8:	37 0b       	sbc	r19, r23
    14fa:	2a 31       	cpi	r18, 0x1A	; 26
    14fc:	31 05       	cpc	r19, r1
    14fe:	2c f0       	brlt	.+10     	; 0x150a <__pack_f+0x76>
    1500:	20 e0       	ldi	r18, 0x00	; 0
    1502:	30 e0       	ldi	r19, 0x00	; 0
    1504:	40 e0       	ldi	r20, 0x00	; 0
    1506:	50 e0       	ldi	r21, 0x00	; 0
    1508:	2a c0       	rjmp	.+84     	; 0x155e <__pack_f+0xca>
    150a:	b8 01       	movw	r22, r16
    150c:	a7 01       	movw	r20, r14
    150e:	02 2e       	mov	r0, r18
    1510:	04 c0       	rjmp	.+8      	; 0x151a <__pack_f+0x86>
    1512:	76 95       	lsr	r23
    1514:	67 95       	ror	r22
    1516:	57 95       	ror	r21
    1518:	47 95       	ror	r20
    151a:	0a 94       	dec	r0
    151c:	d2 f7       	brpl	.-12     	; 0x1512 <__pack_f+0x7e>
    151e:	81 e0       	ldi	r24, 0x01	; 1
    1520:	90 e0       	ldi	r25, 0x00	; 0
    1522:	a0 e0       	ldi	r26, 0x00	; 0
    1524:	b0 e0       	ldi	r27, 0x00	; 0
    1526:	04 c0       	rjmp	.+8      	; 0x1530 <__pack_f+0x9c>
    1528:	88 0f       	add	r24, r24
    152a:	99 1f       	adc	r25, r25
    152c:	aa 1f       	adc	r26, r26
    152e:	bb 1f       	adc	r27, r27
    1530:	2a 95       	dec	r18
    1532:	d2 f7       	brpl	.-12     	; 0x1528 <__pack_f+0x94>
    1534:	01 97       	sbiw	r24, 0x01	; 1
    1536:	a1 09       	sbc	r26, r1
    1538:	b1 09       	sbc	r27, r1
    153a:	8e 21       	and	r24, r14
    153c:	9f 21       	and	r25, r15
    153e:	a0 23       	and	r26, r16
    1540:	b1 23       	and	r27, r17
    1542:	00 97       	sbiw	r24, 0x00	; 0
    1544:	a1 05       	cpc	r26, r1
    1546:	b1 05       	cpc	r27, r1
    1548:	21 f0       	breq	.+8      	; 0x1552 <__pack_f+0xbe>
    154a:	81 e0       	ldi	r24, 0x01	; 1
    154c:	90 e0       	ldi	r25, 0x00	; 0
    154e:	a0 e0       	ldi	r26, 0x00	; 0
    1550:	b0 e0       	ldi	r27, 0x00	; 0
    1552:	9a 01       	movw	r18, r20
    1554:	ab 01       	movw	r20, r22
    1556:	28 2b       	or	r18, r24
    1558:	39 2b       	or	r19, r25
    155a:	4a 2b       	or	r20, r26
    155c:	5b 2b       	or	r21, r27
    155e:	da 01       	movw	r26, r20
    1560:	c9 01       	movw	r24, r18
    1562:	8f 77       	andi	r24, 0x7F	; 127
    1564:	90 70       	andi	r25, 0x00	; 0
    1566:	a0 70       	andi	r26, 0x00	; 0
    1568:	b0 70       	andi	r27, 0x00	; 0
    156a:	80 34       	cpi	r24, 0x40	; 64
    156c:	91 05       	cpc	r25, r1
    156e:	a1 05       	cpc	r26, r1
    1570:	b1 05       	cpc	r27, r1
    1572:	39 f4       	brne	.+14     	; 0x1582 <__pack_f+0xee>
    1574:	27 ff       	sbrs	r18, 7
    1576:	09 c0       	rjmp	.+18     	; 0x158a <__pack_f+0xf6>
    1578:	20 5c       	subi	r18, 0xC0	; 192
    157a:	3f 4f       	sbci	r19, 0xFF	; 255
    157c:	4f 4f       	sbci	r20, 0xFF	; 255
    157e:	5f 4f       	sbci	r21, 0xFF	; 255
    1580:	04 c0       	rjmp	.+8      	; 0x158a <__pack_f+0xf6>
    1582:	21 5c       	subi	r18, 0xC1	; 193
    1584:	3f 4f       	sbci	r19, 0xFF	; 255
    1586:	4f 4f       	sbci	r20, 0xFF	; 255
    1588:	5f 4f       	sbci	r21, 0xFF	; 255
    158a:	e0 e0       	ldi	r30, 0x00	; 0
    158c:	f0 e0       	ldi	r31, 0x00	; 0
    158e:	20 30       	cpi	r18, 0x00	; 0
    1590:	a0 e0       	ldi	r26, 0x00	; 0
    1592:	3a 07       	cpc	r19, r26
    1594:	a0 e0       	ldi	r26, 0x00	; 0
    1596:	4a 07       	cpc	r20, r26
    1598:	a0 e4       	ldi	r26, 0x40	; 64
    159a:	5a 07       	cpc	r21, r26
    159c:	10 f0       	brcs	.+4      	; 0x15a2 <__pack_f+0x10e>
    159e:	e1 e0       	ldi	r30, 0x01	; 1
    15a0:	f0 e0       	ldi	r31, 0x00	; 0
    15a2:	79 01       	movw	r14, r18
    15a4:	8a 01       	movw	r16, r20
    15a6:	27 c0       	rjmp	.+78     	; 0x15f6 <__pack_f+0x162>
    15a8:	60 38       	cpi	r22, 0x80	; 128
    15aa:	71 05       	cpc	r23, r1
    15ac:	64 f5       	brge	.+88     	; 0x1606 <__pack_f+0x172>
    15ae:	fb 01       	movw	r30, r22
    15b0:	e1 58       	subi	r30, 0x81	; 129
    15b2:	ff 4f       	sbci	r31, 0xFF	; 255
    15b4:	d8 01       	movw	r26, r16
    15b6:	c7 01       	movw	r24, r14
    15b8:	8f 77       	andi	r24, 0x7F	; 127
    15ba:	90 70       	andi	r25, 0x00	; 0
    15bc:	a0 70       	andi	r26, 0x00	; 0
    15be:	b0 70       	andi	r27, 0x00	; 0
    15c0:	80 34       	cpi	r24, 0x40	; 64
    15c2:	91 05       	cpc	r25, r1
    15c4:	a1 05       	cpc	r26, r1
    15c6:	b1 05       	cpc	r27, r1
    15c8:	39 f4       	brne	.+14     	; 0x15d8 <__pack_f+0x144>
    15ca:	e7 fe       	sbrs	r14, 7
    15cc:	0d c0       	rjmp	.+26     	; 0x15e8 <__pack_f+0x154>
    15ce:	80 e4       	ldi	r24, 0x40	; 64
    15d0:	90 e0       	ldi	r25, 0x00	; 0
    15d2:	a0 e0       	ldi	r26, 0x00	; 0
    15d4:	b0 e0       	ldi	r27, 0x00	; 0
    15d6:	04 c0       	rjmp	.+8      	; 0x15e0 <__pack_f+0x14c>
    15d8:	8f e3       	ldi	r24, 0x3F	; 63
    15da:	90 e0       	ldi	r25, 0x00	; 0
    15dc:	a0 e0       	ldi	r26, 0x00	; 0
    15de:	b0 e0       	ldi	r27, 0x00	; 0
    15e0:	e8 0e       	add	r14, r24
    15e2:	f9 1e       	adc	r15, r25
    15e4:	0a 1f       	adc	r16, r26
    15e6:	1b 1f       	adc	r17, r27
    15e8:	17 ff       	sbrs	r17, 7
    15ea:	05 c0       	rjmp	.+10     	; 0x15f6 <__pack_f+0x162>
    15ec:	16 95       	lsr	r17
    15ee:	07 95       	ror	r16
    15f0:	f7 94       	ror	r15
    15f2:	e7 94       	ror	r14
    15f4:	31 96       	adiw	r30, 0x01	; 1
    15f6:	87 e0       	ldi	r24, 0x07	; 7
    15f8:	16 95       	lsr	r17
    15fa:	07 95       	ror	r16
    15fc:	f7 94       	ror	r15
    15fe:	e7 94       	ror	r14
    1600:	8a 95       	dec	r24
    1602:	d1 f7       	brne	.-12     	; 0x15f8 <__pack_f+0x164>
    1604:	05 c0       	rjmp	.+10     	; 0x1610 <__pack_f+0x17c>
    1606:	ee 24       	eor	r14, r14
    1608:	ff 24       	eor	r15, r15
    160a:	87 01       	movw	r16, r14
    160c:	ef ef       	ldi	r30, 0xFF	; 255
    160e:	f0 e0       	ldi	r31, 0x00	; 0
    1610:	6e 2f       	mov	r22, r30
    1612:	67 95       	ror	r22
    1614:	66 27       	eor	r22, r22
    1616:	67 95       	ror	r22
    1618:	90 2f       	mov	r25, r16
    161a:	9f 77       	andi	r25, 0x7F	; 127
    161c:	d7 94       	ror	r13
    161e:	dd 24       	eor	r13, r13
    1620:	d7 94       	ror	r13
    1622:	8e 2f       	mov	r24, r30
    1624:	86 95       	lsr	r24
    1626:	49 2f       	mov	r20, r25
    1628:	46 2b       	or	r20, r22
    162a:	58 2f       	mov	r21, r24
    162c:	5d 29       	or	r21, r13
    162e:	b7 01       	movw	r22, r14
    1630:	ca 01       	movw	r24, r20
    1632:	1f 91       	pop	r17
    1634:	0f 91       	pop	r16
    1636:	ff 90       	pop	r15
    1638:	ef 90       	pop	r14
    163a:	df 90       	pop	r13
    163c:	08 95       	ret

0000163e <__unpack_f>:
    163e:	fc 01       	movw	r30, r24
    1640:	db 01       	movw	r26, r22
    1642:	40 81       	ld	r20, Z
    1644:	51 81       	ldd	r21, Z+1	; 0x01
    1646:	22 81       	ldd	r18, Z+2	; 0x02
    1648:	62 2f       	mov	r22, r18
    164a:	6f 77       	andi	r22, 0x7F	; 127
    164c:	70 e0       	ldi	r23, 0x00	; 0
    164e:	22 1f       	adc	r18, r18
    1650:	22 27       	eor	r18, r18
    1652:	22 1f       	adc	r18, r18
    1654:	93 81       	ldd	r25, Z+3	; 0x03
    1656:	89 2f       	mov	r24, r25
    1658:	88 0f       	add	r24, r24
    165a:	82 2b       	or	r24, r18
    165c:	28 2f       	mov	r18, r24
    165e:	30 e0       	ldi	r19, 0x00	; 0
    1660:	99 1f       	adc	r25, r25
    1662:	99 27       	eor	r25, r25
    1664:	99 1f       	adc	r25, r25
    1666:	11 96       	adiw	r26, 0x01	; 1
    1668:	9c 93       	st	X, r25
    166a:	11 97       	sbiw	r26, 0x01	; 1
    166c:	21 15       	cp	r18, r1
    166e:	31 05       	cpc	r19, r1
    1670:	a9 f5       	brne	.+106    	; 0x16dc <__unpack_f+0x9e>
    1672:	41 15       	cp	r20, r1
    1674:	51 05       	cpc	r21, r1
    1676:	61 05       	cpc	r22, r1
    1678:	71 05       	cpc	r23, r1
    167a:	11 f4       	brne	.+4      	; 0x1680 <__unpack_f+0x42>
    167c:	82 e0       	ldi	r24, 0x02	; 2
    167e:	37 c0       	rjmp	.+110    	; 0x16ee <__unpack_f+0xb0>
    1680:	82 e8       	ldi	r24, 0x82	; 130
    1682:	9f ef       	ldi	r25, 0xFF	; 255
    1684:	13 96       	adiw	r26, 0x03	; 3
    1686:	9c 93       	st	X, r25
    1688:	8e 93       	st	-X, r24
    168a:	12 97       	sbiw	r26, 0x02	; 2
    168c:	9a 01       	movw	r18, r20
    168e:	ab 01       	movw	r20, r22
    1690:	67 e0       	ldi	r22, 0x07	; 7
    1692:	22 0f       	add	r18, r18
    1694:	33 1f       	adc	r19, r19
    1696:	44 1f       	adc	r20, r20
    1698:	55 1f       	adc	r21, r21
    169a:	6a 95       	dec	r22
    169c:	d1 f7       	brne	.-12     	; 0x1692 <__unpack_f+0x54>
    169e:	83 e0       	ldi	r24, 0x03	; 3
    16a0:	8c 93       	st	X, r24
    16a2:	0d c0       	rjmp	.+26     	; 0x16be <__unpack_f+0x80>
    16a4:	22 0f       	add	r18, r18
    16a6:	33 1f       	adc	r19, r19
    16a8:	44 1f       	adc	r20, r20
    16aa:	55 1f       	adc	r21, r21
    16ac:	12 96       	adiw	r26, 0x02	; 2
    16ae:	8d 91       	ld	r24, X+
    16b0:	9c 91       	ld	r25, X
    16b2:	13 97       	sbiw	r26, 0x03	; 3
    16b4:	01 97       	sbiw	r24, 0x01	; 1
    16b6:	13 96       	adiw	r26, 0x03	; 3
    16b8:	9c 93       	st	X, r25
    16ba:	8e 93       	st	-X, r24
    16bc:	12 97       	sbiw	r26, 0x02	; 2
    16be:	20 30       	cpi	r18, 0x00	; 0
    16c0:	80 e0       	ldi	r24, 0x00	; 0
    16c2:	38 07       	cpc	r19, r24
    16c4:	80 e0       	ldi	r24, 0x00	; 0
    16c6:	48 07       	cpc	r20, r24
    16c8:	80 e4       	ldi	r24, 0x40	; 64
    16ca:	58 07       	cpc	r21, r24
    16cc:	58 f3       	brcs	.-42     	; 0x16a4 <__unpack_f+0x66>
    16ce:	14 96       	adiw	r26, 0x04	; 4
    16d0:	2d 93       	st	X+, r18
    16d2:	3d 93       	st	X+, r19
    16d4:	4d 93       	st	X+, r20
    16d6:	5c 93       	st	X, r21
    16d8:	17 97       	sbiw	r26, 0x07	; 7
    16da:	08 95       	ret
    16dc:	2f 3f       	cpi	r18, 0xFF	; 255
    16de:	31 05       	cpc	r19, r1
    16e0:	79 f4       	brne	.+30     	; 0x1700 <__unpack_f+0xc2>
    16e2:	41 15       	cp	r20, r1
    16e4:	51 05       	cpc	r21, r1
    16e6:	61 05       	cpc	r22, r1
    16e8:	71 05       	cpc	r23, r1
    16ea:	19 f4       	brne	.+6      	; 0x16f2 <__unpack_f+0xb4>
    16ec:	84 e0       	ldi	r24, 0x04	; 4
    16ee:	8c 93       	st	X, r24
    16f0:	08 95       	ret
    16f2:	64 ff       	sbrs	r22, 4
    16f4:	03 c0       	rjmp	.+6      	; 0x16fc <__unpack_f+0xbe>
    16f6:	81 e0       	ldi	r24, 0x01	; 1
    16f8:	8c 93       	st	X, r24
    16fa:	12 c0       	rjmp	.+36     	; 0x1720 <__unpack_f+0xe2>
    16fc:	1c 92       	st	X, r1
    16fe:	10 c0       	rjmp	.+32     	; 0x1720 <__unpack_f+0xe2>
    1700:	2f 57       	subi	r18, 0x7F	; 127
    1702:	30 40       	sbci	r19, 0x00	; 0
    1704:	13 96       	adiw	r26, 0x03	; 3
    1706:	3c 93       	st	X, r19
    1708:	2e 93       	st	-X, r18
    170a:	12 97       	sbiw	r26, 0x02	; 2
    170c:	83 e0       	ldi	r24, 0x03	; 3
    170e:	8c 93       	st	X, r24
    1710:	87 e0       	ldi	r24, 0x07	; 7
    1712:	44 0f       	add	r20, r20
    1714:	55 1f       	adc	r21, r21
    1716:	66 1f       	adc	r22, r22
    1718:	77 1f       	adc	r23, r23
    171a:	8a 95       	dec	r24
    171c:	d1 f7       	brne	.-12     	; 0x1712 <__unpack_f+0xd4>
    171e:	70 64       	ori	r23, 0x40	; 64
    1720:	14 96       	adiw	r26, 0x04	; 4
    1722:	4d 93       	st	X+, r20
    1724:	5d 93       	st	X+, r21
    1726:	6d 93       	st	X+, r22
    1728:	7c 93       	st	X, r23
    172a:	17 97       	sbiw	r26, 0x07	; 7
    172c:	08 95       	ret

0000172e <__mulsi3>:
    172e:	62 9f       	mul	r22, r18
    1730:	d0 01       	movw	r26, r0
    1732:	73 9f       	mul	r23, r19
    1734:	f0 01       	movw	r30, r0
    1736:	82 9f       	mul	r24, r18
    1738:	e0 0d       	add	r30, r0
    173a:	f1 1d       	adc	r31, r1
    173c:	64 9f       	mul	r22, r20
    173e:	e0 0d       	add	r30, r0
    1740:	f1 1d       	adc	r31, r1
    1742:	92 9f       	mul	r25, r18
    1744:	f0 0d       	add	r31, r0
    1746:	83 9f       	mul	r24, r19
    1748:	f0 0d       	add	r31, r0
    174a:	74 9f       	mul	r23, r20
    174c:	f0 0d       	add	r31, r0
    174e:	65 9f       	mul	r22, r21
    1750:	f0 0d       	add	r31, r0
    1752:	99 27       	eor	r25, r25
    1754:	72 9f       	mul	r23, r18
    1756:	b0 0d       	add	r27, r0
    1758:	e1 1d       	adc	r30, r1
    175a:	f9 1f       	adc	r31, r25
    175c:	63 9f       	mul	r22, r19
    175e:	b0 0d       	add	r27, r0
    1760:	e1 1d       	adc	r30, r1
    1762:	f9 1f       	adc	r31, r25
    1764:	bd 01       	movw	r22, r26
    1766:	cf 01       	movw	r24, r30
    1768:	11 24       	eor	r1, r1
    176a:	08 95       	ret

0000176c <__udivmodhi4>:
    176c:	aa 1b       	sub	r26, r26
    176e:	bb 1b       	sub	r27, r27
    1770:	51 e1       	ldi	r21, 0x11	; 17
    1772:	07 c0       	rjmp	.+14     	; 0x1782 <__udivmodhi4_ep>

00001774 <__udivmodhi4_loop>:
    1774:	aa 1f       	adc	r26, r26
    1776:	bb 1f       	adc	r27, r27
    1778:	a6 17       	cp	r26, r22
    177a:	b7 07       	cpc	r27, r23
    177c:	10 f0       	brcs	.+4      	; 0x1782 <__udivmodhi4_ep>
    177e:	a6 1b       	sub	r26, r22
    1780:	b7 0b       	sbc	r27, r23

00001782 <__udivmodhi4_ep>:
    1782:	88 1f       	adc	r24, r24
    1784:	99 1f       	adc	r25, r25
    1786:	5a 95       	dec	r21
    1788:	a9 f7       	brne	.-22     	; 0x1774 <__udivmodhi4_loop>
    178a:	80 95       	com	r24
    178c:	90 95       	com	r25
    178e:	bc 01       	movw	r22, r24
    1790:	cd 01       	movw	r24, r26
    1792:	08 95       	ret

00001794 <__udivmodsi4>:
    1794:	a1 e2       	ldi	r26, 0x21	; 33
    1796:	1a 2e       	mov	r1, r26
    1798:	aa 1b       	sub	r26, r26
    179a:	bb 1b       	sub	r27, r27
    179c:	fd 01       	movw	r30, r26
    179e:	0d c0       	rjmp	.+26     	; 0x17ba <__udivmodsi4_ep>

000017a0 <__udivmodsi4_loop>:
    17a0:	aa 1f       	adc	r26, r26
    17a2:	bb 1f       	adc	r27, r27
    17a4:	ee 1f       	adc	r30, r30
    17a6:	ff 1f       	adc	r31, r31
    17a8:	a2 17       	cp	r26, r18
    17aa:	b3 07       	cpc	r27, r19
    17ac:	e4 07       	cpc	r30, r20
    17ae:	f5 07       	cpc	r31, r21
    17b0:	20 f0       	brcs	.+8      	; 0x17ba <__udivmodsi4_ep>
    17b2:	a2 1b       	sub	r26, r18
    17b4:	b3 0b       	sbc	r27, r19
    17b6:	e4 0b       	sbc	r30, r20
    17b8:	f5 0b       	sbc	r31, r21

000017ba <__udivmodsi4_ep>:
    17ba:	66 1f       	adc	r22, r22
    17bc:	77 1f       	adc	r23, r23
    17be:	88 1f       	adc	r24, r24
    17c0:	99 1f       	adc	r25, r25
    17c2:	1a 94       	dec	r1
    17c4:	69 f7       	brne	.-38     	; 0x17a0 <__udivmodsi4_loop>
    17c6:	60 95       	com	r22
    17c8:	70 95       	com	r23
    17ca:	80 95       	com	r24
    17cc:	90 95       	com	r25
    17ce:	9b 01       	movw	r18, r22
    17d0:	ac 01       	movw	r20, r24
    17d2:	bd 01       	movw	r22, r26
    17d4:	cf 01       	movw	r24, r30
    17d6:	08 95       	ret

000017d8 <__prologue_saves__>:
    17d8:	2f 92       	push	r2
    17da:	3f 92       	push	r3
    17dc:	4f 92       	push	r4
    17de:	5f 92       	push	r5
    17e0:	6f 92       	push	r6
    17e2:	7f 92       	push	r7
    17e4:	8f 92       	push	r8
    17e6:	9f 92       	push	r9
    17e8:	af 92       	push	r10
    17ea:	bf 92       	push	r11
    17ec:	cf 92       	push	r12
    17ee:	df 92       	push	r13
    17f0:	ef 92       	push	r14
    17f2:	ff 92       	push	r15
    17f4:	0f 93       	push	r16
    17f6:	1f 93       	push	r17
    17f8:	cf 93       	push	r28
    17fa:	df 93       	push	r29
    17fc:	cd b7       	in	r28, 0x3d	; 61
    17fe:	de b7       	in	r29, 0x3e	; 62
    1800:	ca 1b       	sub	r28, r26
    1802:	db 0b       	sbc	r29, r27
    1804:	0f b6       	in	r0, 0x3f	; 63
    1806:	f8 94       	cli
    1808:	de bf       	out	0x3e, r29	; 62
    180a:	0f be       	out	0x3f, r0	; 63
    180c:	cd bf       	out	0x3d, r28	; 61
    180e:	09 94       	ijmp

00001810 <__epilogue_restores__>:
    1810:	2a 88       	ldd	r2, Y+18	; 0x12
    1812:	39 88       	ldd	r3, Y+17	; 0x11
    1814:	48 88       	ldd	r4, Y+16	; 0x10
    1816:	5f 84       	ldd	r5, Y+15	; 0x0f
    1818:	6e 84       	ldd	r6, Y+14	; 0x0e
    181a:	7d 84       	ldd	r7, Y+13	; 0x0d
    181c:	8c 84       	ldd	r8, Y+12	; 0x0c
    181e:	9b 84       	ldd	r9, Y+11	; 0x0b
    1820:	aa 84       	ldd	r10, Y+10	; 0x0a
    1822:	b9 84       	ldd	r11, Y+9	; 0x09
    1824:	c8 84       	ldd	r12, Y+8	; 0x08
    1826:	df 80       	ldd	r13, Y+7	; 0x07
    1828:	ee 80       	ldd	r14, Y+6	; 0x06
    182a:	fd 80       	ldd	r15, Y+5	; 0x05
    182c:	0c 81       	ldd	r16, Y+4	; 0x04
    182e:	1b 81       	ldd	r17, Y+3	; 0x03
    1830:	aa 81       	ldd	r26, Y+2	; 0x02
    1832:	b9 81       	ldd	r27, Y+1	; 0x01
    1834:	ce 0f       	add	r28, r30
    1836:	d1 1d       	adc	r29, r1
    1838:	0f b6       	in	r0, 0x3f	; 63
    183a:	f8 94       	cli
    183c:	de bf       	out	0x3e, r29	; 62
    183e:	0f be       	out	0x3f, r0	; 63
    1840:	cd bf       	out	0x3d, r28	; 61
    1842:	ed 01       	movw	r28, r26
    1844:	08 95       	ret

00001846 <itoa>:
    1846:	fb 01       	movw	r30, r22
    1848:	9f 01       	movw	r18, r30
    184a:	e8 94       	clt
    184c:	42 30       	cpi	r20, 0x02	; 2
    184e:	c4 f0       	brlt	.+48     	; 0x1880 <itoa+0x3a>
    1850:	45 32       	cpi	r20, 0x25	; 37
    1852:	b4 f4       	brge	.+44     	; 0x1880 <itoa+0x3a>
    1854:	4a 30       	cpi	r20, 0x0A	; 10
    1856:	29 f4       	brne	.+10     	; 0x1862 <itoa+0x1c>
    1858:	97 fb       	bst	r25, 7
    185a:	1e f4       	brtc	.+6      	; 0x1862 <itoa+0x1c>
    185c:	90 95       	com	r25
    185e:	81 95       	neg	r24
    1860:	9f 4f       	sbci	r25, 0xFF	; 255
    1862:	64 2f       	mov	r22, r20
    1864:	77 27       	eor	r23, r23
    1866:	0e 94 b6 0b 	call	0x176c	; 0x176c <__udivmodhi4>
    186a:	80 5d       	subi	r24, 0xD0	; 208
    186c:	8a 33       	cpi	r24, 0x3A	; 58
    186e:	0c f0       	brlt	.+2      	; 0x1872 <itoa+0x2c>
    1870:	89 5d       	subi	r24, 0xD9	; 217
    1872:	81 93       	st	Z+, r24
    1874:	cb 01       	movw	r24, r22
    1876:	00 97       	sbiw	r24, 0x00	; 0
    1878:	a1 f7       	brne	.-24     	; 0x1862 <itoa+0x1c>
    187a:	16 f4       	brtc	.+4      	; 0x1880 <itoa+0x3a>
    187c:	5d e2       	ldi	r21, 0x2D	; 45
    187e:	51 93       	st	Z+, r21
    1880:	10 82       	st	Z, r1
    1882:	c9 01       	movw	r24, r18
    1884:	0c 94 8c 0c 	jmp	0x1918	; 0x1918 <strrev>

00001888 <sin>:
    1888:	9f 93       	push	r25
    188a:	6f d0       	rcall	.+222    	; 0x196a <__fp_rempio2>
    188c:	0f 90       	pop	r0
    188e:	07 fc       	sbrc	r0, 7
    1890:	ee 5f       	subi	r30, 0xFE	; 254
    1892:	92 c0       	rjmp	.+292    	; 0x19b8 <__fp_sinus>
    1894:	11 f4       	brne	.+4      	; 0x189a <sin+0x12>
    1896:	0e f4       	brtc	.+2      	; 0x189a <sin+0x12>
    1898:	5d c0       	rjmp	.+186    	; 0x1954 <__fp_nan>
    189a:	4e c0       	rjmp	.+156    	; 0x1938 <__fp_mpack>

0000189c <sqrt>:
    189c:	a6 d0       	rcall	.+332    	; 0x19ea <__fp_splitA>
    189e:	d0 f3       	brcs	.-12     	; 0x1894 <sin+0xc>
    18a0:	99 23       	and	r25, r25
    18a2:	d9 f3       	breq	.-10     	; 0x189a <sin+0x12>
    18a4:	ce f3       	brts	.-14     	; 0x1898 <sin+0x10>
    18a6:	9f 57       	subi	r25, 0x7F	; 127
    18a8:	55 0b       	sbc	r21, r21
    18aa:	87 ff       	sbrs	r24, 7
    18ac:	56 d0       	rcall	.+172    	; 0x195a <__fp_norm2>
    18ae:	00 24       	eor	r0, r0
    18b0:	a0 e6       	ldi	r26, 0x60	; 96
    18b2:	40 ea       	ldi	r20, 0xA0	; 160
    18b4:	90 01       	movw	r18, r0
    18b6:	80 58       	subi	r24, 0x80	; 128
    18b8:	56 95       	lsr	r21
    18ba:	97 95       	ror	r25
    18bc:	28 f4       	brcc	.+10     	; 0x18c8 <sqrt+0x2c>
    18be:	80 5c       	subi	r24, 0xC0	; 192
    18c0:	66 0f       	add	r22, r22
    18c2:	77 1f       	adc	r23, r23
    18c4:	88 1f       	adc	r24, r24
    18c6:	20 f0       	brcs	.+8      	; 0x18d0 <sqrt+0x34>
    18c8:	26 17       	cp	r18, r22
    18ca:	37 07       	cpc	r19, r23
    18cc:	48 07       	cpc	r20, r24
    18ce:	30 f4       	brcc	.+12     	; 0x18dc <sqrt+0x40>
    18d0:	62 1b       	sub	r22, r18
    18d2:	73 0b       	sbc	r23, r19
    18d4:	84 0b       	sbc	r24, r20
    18d6:	20 29       	or	r18, r0
    18d8:	31 29       	or	r19, r1
    18da:	4a 2b       	or	r20, r26
    18dc:	a6 95       	lsr	r26
    18de:	17 94       	ror	r1
    18e0:	07 94       	ror	r0
    18e2:	20 25       	eor	r18, r0
    18e4:	31 25       	eor	r19, r1
    18e6:	4a 27       	eor	r20, r26
    18e8:	58 f7       	brcc	.-42     	; 0x18c0 <sqrt+0x24>
    18ea:	66 0f       	add	r22, r22
    18ec:	77 1f       	adc	r23, r23
    18ee:	88 1f       	adc	r24, r24
    18f0:	20 f0       	brcs	.+8      	; 0x18fa <sqrt+0x5e>
    18f2:	26 17       	cp	r18, r22
    18f4:	37 07       	cpc	r19, r23
    18f6:	48 07       	cpc	r20, r24
    18f8:	30 f4       	brcc	.+12     	; 0x1906 <sqrt+0x6a>
    18fa:	62 0b       	sbc	r22, r18
    18fc:	73 0b       	sbc	r23, r19
    18fe:	84 0b       	sbc	r24, r20
    1900:	20 0d       	add	r18, r0
    1902:	31 1d       	adc	r19, r1
    1904:	41 1d       	adc	r20, r1
    1906:	a0 95       	com	r26
    1908:	81 f7       	brne	.-32     	; 0x18ea <sqrt+0x4e>
    190a:	b9 01       	movw	r22, r18
    190c:	84 2f       	mov	r24, r20
    190e:	91 58       	subi	r25, 0x81	; 129
    1910:	88 0f       	add	r24, r24
    1912:	96 95       	lsr	r25
    1914:	87 95       	ror	r24
    1916:	08 95       	ret

00001918 <strrev>:
    1918:	dc 01       	movw	r26, r24
    191a:	fc 01       	movw	r30, r24
    191c:	67 2f       	mov	r22, r23
    191e:	71 91       	ld	r23, Z+
    1920:	77 23       	and	r23, r23
    1922:	e1 f7       	brne	.-8      	; 0x191c <strrev+0x4>
    1924:	32 97       	sbiw	r30, 0x02	; 2
    1926:	04 c0       	rjmp	.+8      	; 0x1930 <strrev+0x18>
    1928:	7c 91       	ld	r23, X
    192a:	6d 93       	st	X+, r22
    192c:	70 83       	st	Z, r23
    192e:	62 91       	ld	r22, -Z
    1930:	ae 17       	cp	r26, r30
    1932:	bf 07       	cpc	r27, r31
    1934:	c8 f3       	brcs	.-14     	; 0x1928 <strrev+0x10>
    1936:	08 95       	ret

00001938 <__fp_mpack>:
    1938:	9f 3f       	cpi	r25, 0xFF	; 255
    193a:	31 f0       	breq	.+12     	; 0x1948 <__fp_mpack_finite+0xc>

0000193c <__fp_mpack_finite>:
    193c:	91 50       	subi	r25, 0x01	; 1
    193e:	20 f4       	brcc	.+8      	; 0x1948 <__fp_mpack_finite+0xc>
    1940:	87 95       	ror	r24
    1942:	77 95       	ror	r23
    1944:	67 95       	ror	r22
    1946:	b7 95       	ror	r27
    1948:	88 0f       	add	r24, r24
    194a:	91 1d       	adc	r25, r1
    194c:	96 95       	lsr	r25
    194e:	87 95       	ror	r24
    1950:	97 f9       	bld	r25, 7
    1952:	08 95       	ret

00001954 <__fp_nan>:
    1954:	9f ef       	ldi	r25, 0xFF	; 255
    1956:	80 ec       	ldi	r24, 0xC0	; 192
    1958:	08 95       	ret

0000195a <__fp_norm2>:
    195a:	91 50       	subi	r25, 0x01	; 1
    195c:	50 40       	sbci	r21, 0x00	; 0
    195e:	66 0f       	add	r22, r22
    1960:	77 1f       	adc	r23, r23
    1962:	88 1f       	adc	r24, r24
    1964:	d2 f7       	brpl	.-12     	; 0x195a <__fp_norm2>
    1966:	08 95       	ret
    1968:	f5 cf       	rjmp	.-22     	; 0x1954 <__fp_nan>

0000196a <__fp_rempio2>:
    196a:	3f d0       	rcall	.+126    	; 0x19ea <__fp_splitA>
    196c:	e8 f3       	brcs	.-6      	; 0x1968 <__fp_norm2+0xe>
    196e:	e8 94       	clt
    1970:	e0 e0       	ldi	r30, 0x00	; 0
    1972:	bb 27       	eor	r27, r27
    1974:	9f 57       	subi	r25, 0x7F	; 127
    1976:	f0 f0       	brcs	.+60     	; 0x19b4 <__fp_rempio2+0x4a>
    1978:	2a ed       	ldi	r18, 0xDA	; 218
    197a:	3f e0       	ldi	r19, 0x0F	; 15
    197c:	49 ec       	ldi	r20, 0xC9	; 201
    197e:	06 c0       	rjmp	.+12     	; 0x198c <__fp_rempio2+0x22>
    1980:	ee 0f       	add	r30, r30
    1982:	bb 0f       	add	r27, r27
    1984:	66 1f       	adc	r22, r22
    1986:	77 1f       	adc	r23, r23
    1988:	88 1f       	adc	r24, r24
    198a:	28 f0       	brcs	.+10     	; 0x1996 <__fp_rempio2+0x2c>
    198c:	b2 3a       	cpi	r27, 0xA2	; 162
    198e:	62 07       	cpc	r22, r18
    1990:	73 07       	cpc	r23, r19
    1992:	84 07       	cpc	r24, r20
    1994:	28 f0       	brcs	.+10     	; 0x19a0 <__fp_rempio2+0x36>
    1996:	b2 5a       	subi	r27, 0xA2	; 162
    1998:	62 0b       	sbc	r22, r18
    199a:	73 0b       	sbc	r23, r19
    199c:	84 0b       	sbc	r24, r20
    199e:	e3 95       	inc	r30
    19a0:	9a 95       	dec	r25
    19a2:	72 f7       	brpl	.-36     	; 0x1980 <__fp_rempio2+0x16>
    19a4:	80 38       	cpi	r24, 0x80	; 128
    19a6:	30 f4       	brcc	.+12     	; 0x19b4 <__fp_rempio2+0x4a>
    19a8:	9a 95       	dec	r25
    19aa:	bb 0f       	add	r27, r27
    19ac:	66 1f       	adc	r22, r22
    19ae:	77 1f       	adc	r23, r23
    19b0:	88 1f       	adc	r24, r24
    19b2:	d2 f7       	brpl	.-12     	; 0x19a8 <__fp_rempio2+0x3e>
    19b4:	90 48       	sbci	r25, 0x80	; 128
    19b6:	c2 cf       	rjmp	.-124    	; 0x193c <__fp_mpack_finite>

000019b8 <__fp_sinus>:
    19b8:	ef 93       	push	r30
    19ba:	e0 ff       	sbrs	r30, 0
    19bc:	06 c0       	rjmp	.+12     	; 0x19ca <__fp_sinus+0x12>
    19be:	a2 ea       	ldi	r26, 0xA2	; 162
    19c0:	2a ed       	ldi	r18, 0xDA	; 218
    19c2:	3f e0       	ldi	r19, 0x0F	; 15
    19c4:	49 ec       	ldi	r20, 0xC9	; 201
    19c6:	5f eb       	ldi	r21, 0xBF	; 191
    19c8:	37 d0       	rcall	.+110    	; 0x1a38 <__addsf3x>
    19ca:	ae d0       	rcall	.+348    	; 0x1b28 <__fp_round>
    19cc:	0f 90       	pop	r0
    19ce:	03 94       	inc	r0
    19d0:	01 fc       	sbrc	r0, 1
    19d2:	90 58       	subi	r25, 0x80	; 128
    19d4:	ec e8       	ldi	r30, 0x8C	; 140
    19d6:	f0 e0       	ldi	r31, 0x00	; 0
    19d8:	88 c0       	rjmp	.+272    	; 0x1aea <__fp_powsodd>

000019da <__fp_split3>:
    19da:	57 fd       	sbrc	r21, 7
    19dc:	90 58       	subi	r25, 0x80	; 128
    19de:	44 0f       	add	r20, r20
    19e0:	55 1f       	adc	r21, r21
    19e2:	59 f0       	breq	.+22     	; 0x19fa <__fp_splitA+0x10>
    19e4:	5f 3f       	cpi	r21, 0xFF	; 255
    19e6:	71 f0       	breq	.+28     	; 0x1a04 <__fp_splitA+0x1a>
    19e8:	47 95       	ror	r20

000019ea <__fp_splitA>:
    19ea:	88 0f       	add	r24, r24
    19ec:	97 fb       	bst	r25, 7
    19ee:	99 1f       	adc	r25, r25
    19f0:	61 f0       	breq	.+24     	; 0x1a0a <__fp_splitA+0x20>
    19f2:	9f 3f       	cpi	r25, 0xFF	; 255
    19f4:	79 f0       	breq	.+30     	; 0x1a14 <__fp_splitA+0x2a>
    19f6:	87 95       	ror	r24
    19f8:	08 95       	ret
    19fa:	12 16       	cp	r1, r18
    19fc:	13 06       	cpc	r1, r19
    19fe:	14 06       	cpc	r1, r20
    1a00:	55 1f       	adc	r21, r21
    1a02:	f2 cf       	rjmp	.-28     	; 0x19e8 <__fp_split3+0xe>
    1a04:	46 95       	lsr	r20
    1a06:	f1 df       	rcall	.-30     	; 0x19ea <__fp_splitA>
    1a08:	08 c0       	rjmp	.+16     	; 0x1a1a <__fp_splitA+0x30>
    1a0a:	16 16       	cp	r1, r22
    1a0c:	17 06       	cpc	r1, r23
    1a0e:	18 06       	cpc	r1, r24
    1a10:	99 1f       	adc	r25, r25
    1a12:	f1 cf       	rjmp	.-30     	; 0x19f6 <__fp_splitA+0xc>
    1a14:	86 95       	lsr	r24
    1a16:	71 05       	cpc	r23, r1
    1a18:	61 05       	cpc	r22, r1
    1a1a:	08 94       	sec
    1a1c:	08 95       	ret
    1a1e:	76 d0       	rcall	.+236    	; 0x1b0c <__fp_pscA>
    1a20:	30 f0       	brcs	.+12     	; 0x1a2e <__fp_splitA+0x44>
    1a22:	7b d0       	rcall	.+246    	; 0x1b1a <__fp_pscB>
    1a24:	20 f0       	brcs	.+8      	; 0x1a2e <__fp_splitA+0x44>
    1a26:	31 f4       	brne	.+12     	; 0x1a34 <__fp_splitA+0x4a>
    1a28:	9f 3f       	cpi	r25, 0xFF	; 255
    1a2a:	11 f4       	brne	.+4      	; 0x1a30 <__fp_splitA+0x46>
    1a2c:	1e f4       	brtc	.+6      	; 0x1a34 <__fp_splitA+0x4a>
    1a2e:	92 cf       	rjmp	.-220    	; 0x1954 <__fp_nan>
    1a30:	0e f4       	brtc	.+2      	; 0x1a34 <__fp_splitA+0x4a>
    1a32:	e0 95       	com	r30
    1a34:	e7 fb       	bst	r30, 7
    1a36:	53 c0       	rjmp	.+166    	; 0x1ade <__fp_inf>

00001a38 <__addsf3x>:
    1a38:	e9 2f       	mov	r30, r25
    1a3a:	cf df       	rcall	.-98     	; 0x19da <__fp_split3>
    1a3c:	80 f3       	brcs	.-32     	; 0x1a1e <__fp_splitA+0x34>
    1a3e:	ba 17       	cp	r27, r26
    1a40:	62 07       	cpc	r22, r18
    1a42:	73 07       	cpc	r23, r19
    1a44:	84 07       	cpc	r24, r20
    1a46:	95 07       	cpc	r25, r21
    1a48:	18 f0       	brcs	.+6      	; 0x1a50 <__addsf3x+0x18>
    1a4a:	71 f4       	brne	.+28     	; 0x1a68 <__addsf3x+0x30>
    1a4c:	9e f5       	brtc	.+102    	; 0x1ab4 <__addsf3x+0x7c>
    1a4e:	7d c0       	rjmp	.+250    	; 0x1b4a <__fp_zero>
    1a50:	0e f4       	brtc	.+2      	; 0x1a54 <__addsf3x+0x1c>
    1a52:	e0 95       	com	r30
    1a54:	0b 2e       	mov	r0, r27
    1a56:	ba 2f       	mov	r27, r26
    1a58:	a0 2d       	mov	r26, r0
    1a5a:	0b 01       	movw	r0, r22
    1a5c:	b9 01       	movw	r22, r18
    1a5e:	90 01       	movw	r18, r0
    1a60:	0c 01       	movw	r0, r24
    1a62:	ca 01       	movw	r24, r20
    1a64:	a0 01       	movw	r20, r0
    1a66:	11 24       	eor	r1, r1
    1a68:	ff 27       	eor	r31, r31
    1a6a:	59 1b       	sub	r21, r25
    1a6c:	99 f0       	breq	.+38     	; 0x1a94 <__addsf3x+0x5c>
    1a6e:	59 3f       	cpi	r21, 0xF9	; 249
    1a70:	50 f4       	brcc	.+20     	; 0x1a86 <__addsf3x+0x4e>
    1a72:	50 3e       	cpi	r21, 0xE0	; 224
    1a74:	68 f1       	brcs	.+90     	; 0x1ad0 <__addsf3x+0x98>
    1a76:	1a 16       	cp	r1, r26
    1a78:	f0 40       	sbci	r31, 0x00	; 0
    1a7a:	a2 2f       	mov	r26, r18
    1a7c:	23 2f       	mov	r18, r19
    1a7e:	34 2f       	mov	r19, r20
    1a80:	44 27       	eor	r20, r20
    1a82:	58 5f       	subi	r21, 0xF8	; 248
    1a84:	f3 cf       	rjmp	.-26     	; 0x1a6c <__addsf3x+0x34>
    1a86:	46 95       	lsr	r20
    1a88:	37 95       	ror	r19
    1a8a:	27 95       	ror	r18
    1a8c:	a7 95       	ror	r26
    1a8e:	f0 40       	sbci	r31, 0x00	; 0
    1a90:	53 95       	inc	r21
    1a92:	c9 f7       	brne	.-14     	; 0x1a86 <__addsf3x+0x4e>
    1a94:	7e f4       	brtc	.+30     	; 0x1ab4 <__addsf3x+0x7c>
    1a96:	1f 16       	cp	r1, r31
    1a98:	ba 0b       	sbc	r27, r26
    1a9a:	62 0b       	sbc	r22, r18
    1a9c:	73 0b       	sbc	r23, r19
    1a9e:	84 0b       	sbc	r24, r20
    1aa0:	ba f0       	brmi	.+46     	; 0x1ad0 <__addsf3x+0x98>
    1aa2:	91 50       	subi	r25, 0x01	; 1
    1aa4:	a1 f0       	breq	.+40     	; 0x1ace <__addsf3x+0x96>
    1aa6:	ff 0f       	add	r31, r31
    1aa8:	bb 1f       	adc	r27, r27
    1aaa:	66 1f       	adc	r22, r22
    1aac:	77 1f       	adc	r23, r23
    1aae:	88 1f       	adc	r24, r24
    1ab0:	c2 f7       	brpl	.-16     	; 0x1aa2 <__addsf3x+0x6a>
    1ab2:	0e c0       	rjmp	.+28     	; 0x1ad0 <__addsf3x+0x98>
    1ab4:	ba 0f       	add	r27, r26
    1ab6:	62 1f       	adc	r22, r18
    1ab8:	73 1f       	adc	r23, r19
    1aba:	84 1f       	adc	r24, r20
    1abc:	48 f4       	brcc	.+18     	; 0x1ad0 <__addsf3x+0x98>
    1abe:	87 95       	ror	r24
    1ac0:	77 95       	ror	r23
    1ac2:	67 95       	ror	r22
    1ac4:	b7 95       	ror	r27
    1ac6:	f7 95       	ror	r31
    1ac8:	9e 3f       	cpi	r25, 0xFE	; 254
    1aca:	08 f0       	brcs	.+2      	; 0x1ace <__addsf3x+0x96>
    1acc:	b3 cf       	rjmp	.-154    	; 0x1a34 <__fp_splitA+0x4a>
    1ace:	93 95       	inc	r25
    1ad0:	88 0f       	add	r24, r24
    1ad2:	08 f0       	brcs	.+2      	; 0x1ad6 <__addsf3x+0x9e>
    1ad4:	99 27       	eor	r25, r25
    1ad6:	ee 0f       	add	r30, r30
    1ad8:	97 95       	ror	r25
    1ada:	87 95       	ror	r24
    1adc:	08 95       	ret

00001ade <__fp_inf>:
    1ade:	97 f9       	bld	r25, 7
    1ae0:	9f 67       	ori	r25, 0x7F	; 127
    1ae2:	80 e8       	ldi	r24, 0x80	; 128
    1ae4:	70 e0       	ldi	r23, 0x00	; 0
    1ae6:	60 e0       	ldi	r22, 0x00	; 0
    1ae8:	08 95       	ret

00001aea <__fp_powsodd>:
    1aea:	9f 93       	push	r25
    1aec:	8f 93       	push	r24
    1aee:	7f 93       	push	r23
    1af0:	6f 93       	push	r22
    1af2:	ff 93       	push	r31
    1af4:	ef 93       	push	r30
    1af6:	9b 01       	movw	r18, r22
    1af8:	ac 01       	movw	r20, r24
    1afa:	25 da       	rcall	.-2998   	; 0xf46 <__mulsf3>
    1afc:	ef 91       	pop	r30
    1afe:	ff 91       	pop	r31
    1b00:	2b d0       	rcall	.+86     	; 0x1b58 <__fp_powser>
    1b02:	2f 91       	pop	r18
    1b04:	3f 91       	pop	r19
    1b06:	4f 91       	pop	r20
    1b08:	5f 91       	pop	r21
    1b0a:	1d ca       	rjmp	.-3014   	; 0xf46 <__mulsf3>

00001b0c <__fp_pscA>:
    1b0c:	00 24       	eor	r0, r0
    1b0e:	0a 94       	dec	r0
    1b10:	16 16       	cp	r1, r22
    1b12:	17 06       	cpc	r1, r23
    1b14:	18 06       	cpc	r1, r24
    1b16:	09 06       	cpc	r0, r25
    1b18:	08 95       	ret

00001b1a <__fp_pscB>:
    1b1a:	00 24       	eor	r0, r0
    1b1c:	0a 94       	dec	r0
    1b1e:	12 16       	cp	r1, r18
    1b20:	13 06       	cpc	r1, r19
    1b22:	14 06       	cpc	r1, r20
    1b24:	05 06       	cpc	r0, r21
    1b26:	08 95       	ret

00001b28 <__fp_round>:
    1b28:	09 2e       	mov	r0, r25
    1b2a:	03 94       	inc	r0
    1b2c:	00 0c       	add	r0, r0
    1b2e:	11 f4       	brne	.+4      	; 0x1b34 <__fp_round+0xc>
    1b30:	88 23       	and	r24, r24
    1b32:	52 f0       	brmi	.+20     	; 0x1b48 <__fp_round+0x20>
    1b34:	bb 0f       	add	r27, r27
    1b36:	40 f4       	brcc	.+16     	; 0x1b48 <__fp_round+0x20>
    1b38:	bf 2b       	or	r27, r31
    1b3a:	11 f4       	brne	.+4      	; 0x1b40 <__fp_round+0x18>
    1b3c:	60 ff       	sbrs	r22, 0
    1b3e:	04 c0       	rjmp	.+8      	; 0x1b48 <__fp_round+0x20>
    1b40:	6f 5f       	subi	r22, 0xFF	; 255
    1b42:	7f 4f       	sbci	r23, 0xFF	; 255
    1b44:	8f 4f       	sbci	r24, 0xFF	; 255
    1b46:	9f 4f       	sbci	r25, 0xFF	; 255
    1b48:	08 95       	ret

00001b4a <__fp_zero>:
    1b4a:	e8 94       	clt

00001b4c <__fp_szero>:
    1b4c:	bb 27       	eor	r27, r27
    1b4e:	66 27       	eor	r22, r22
    1b50:	77 27       	eor	r23, r23
    1b52:	cb 01       	movw	r24, r22
    1b54:	97 f9       	bld	r25, 7
    1b56:	08 95       	ret

00001b58 <__fp_powser>:
    1b58:	df 93       	push	r29
    1b5a:	cf 93       	push	r28
    1b5c:	1f 93       	push	r17
    1b5e:	0f 93       	push	r16
    1b60:	ff 92       	push	r15
    1b62:	ef 92       	push	r14
    1b64:	df 92       	push	r13
    1b66:	7b 01       	movw	r14, r22
    1b68:	8c 01       	movw	r16, r24
    1b6a:	68 94       	set
    1b6c:	05 c0       	rjmp	.+10     	; 0x1b78 <__fp_powser+0x20>
    1b6e:	da 2e       	mov	r13, r26
    1b70:	ef 01       	movw	r28, r30
    1b72:	21 d0       	rcall	.+66     	; 0x1bb6 <__mulsf3x>
    1b74:	fe 01       	movw	r30, r28
    1b76:	e8 94       	clt
    1b78:	a5 91       	lpm	r26, Z+
    1b7a:	25 91       	lpm	r18, Z+
    1b7c:	35 91       	lpm	r19, Z+
    1b7e:	45 91       	lpm	r20, Z+
    1b80:	55 91       	lpm	r21, Z+
    1b82:	ae f3       	brts	.-22     	; 0x1b6e <__fp_powser+0x16>
    1b84:	ef 01       	movw	r28, r30
    1b86:	58 df       	rcall	.-336    	; 0x1a38 <__addsf3x>
    1b88:	fe 01       	movw	r30, r28
    1b8a:	97 01       	movw	r18, r14
    1b8c:	a8 01       	movw	r20, r16
    1b8e:	da 94       	dec	r13
    1b90:	79 f7       	brne	.-34     	; 0x1b70 <__fp_powser+0x18>
    1b92:	df 90       	pop	r13
    1b94:	ef 90       	pop	r14
    1b96:	ff 90       	pop	r15
    1b98:	0f 91       	pop	r16
    1b9a:	1f 91       	pop	r17
    1b9c:	cf 91       	pop	r28
    1b9e:	df 91       	pop	r29
    1ba0:	08 95       	ret
    1ba2:	b4 df       	rcall	.-152    	; 0x1b0c <__fp_pscA>
    1ba4:	28 f0       	brcs	.+10     	; 0x1bb0 <__fp_powser+0x58>
    1ba6:	b9 df       	rcall	.-142    	; 0x1b1a <__fp_pscB>
    1ba8:	18 f0       	brcs	.+6      	; 0x1bb0 <__fp_powser+0x58>
    1baa:	95 23       	and	r25, r21
    1bac:	09 f0       	breq	.+2      	; 0x1bb0 <__fp_powser+0x58>
    1bae:	97 cf       	rjmp	.-210    	; 0x1ade <__fp_inf>
    1bb0:	d1 ce       	rjmp	.-606    	; 0x1954 <__fp_nan>
    1bb2:	11 24       	eor	r1, r1
    1bb4:	cb cf       	rjmp	.-106    	; 0x1b4c <__fp_szero>

00001bb6 <__mulsf3x>:
    1bb6:	11 df       	rcall	.-478    	; 0x19da <__fp_split3>
    1bb8:	a0 f3       	brcs	.-24     	; 0x1ba2 <__fp_powser+0x4a>

00001bba <__mulsf3_pse>:
    1bba:	95 9f       	mul	r25, r21
    1bbc:	d1 f3       	breq	.-12     	; 0x1bb2 <__fp_powser+0x5a>
    1bbe:	95 0f       	add	r25, r21
    1bc0:	50 e0       	ldi	r21, 0x00	; 0
    1bc2:	55 1f       	adc	r21, r21
    1bc4:	62 9f       	mul	r22, r18
    1bc6:	f0 01       	movw	r30, r0
    1bc8:	72 9f       	mul	r23, r18
    1bca:	bb 27       	eor	r27, r27
    1bcc:	f0 0d       	add	r31, r0
    1bce:	b1 1d       	adc	r27, r1
    1bd0:	63 9f       	mul	r22, r19
    1bd2:	aa 27       	eor	r26, r26
    1bd4:	f0 0d       	add	r31, r0
    1bd6:	b1 1d       	adc	r27, r1
    1bd8:	aa 1f       	adc	r26, r26
    1bda:	64 9f       	mul	r22, r20
    1bdc:	66 27       	eor	r22, r22
    1bde:	b0 0d       	add	r27, r0
    1be0:	a1 1d       	adc	r26, r1
    1be2:	66 1f       	adc	r22, r22
    1be4:	82 9f       	mul	r24, r18
    1be6:	22 27       	eor	r18, r18
    1be8:	b0 0d       	add	r27, r0
    1bea:	a1 1d       	adc	r26, r1
    1bec:	62 1f       	adc	r22, r18
    1bee:	73 9f       	mul	r23, r19
    1bf0:	b0 0d       	add	r27, r0
    1bf2:	a1 1d       	adc	r26, r1
    1bf4:	62 1f       	adc	r22, r18
    1bf6:	83 9f       	mul	r24, r19
    1bf8:	a0 0d       	add	r26, r0
    1bfa:	61 1d       	adc	r22, r1
    1bfc:	22 1f       	adc	r18, r18
    1bfe:	74 9f       	mul	r23, r20
    1c00:	33 27       	eor	r19, r19
    1c02:	a0 0d       	add	r26, r0
    1c04:	61 1d       	adc	r22, r1
    1c06:	23 1f       	adc	r18, r19
    1c08:	84 9f       	mul	r24, r20
    1c0a:	60 0d       	add	r22, r0
    1c0c:	21 1d       	adc	r18, r1
    1c0e:	82 2f       	mov	r24, r18
    1c10:	76 2f       	mov	r23, r22
    1c12:	6a 2f       	mov	r22, r26
    1c14:	11 24       	eor	r1, r1
    1c16:	9f 57       	subi	r25, 0x7F	; 127
    1c18:	50 40       	sbci	r21, 0x00	; 0
    1c1a:	8a f0       	brmi	.+34     	; 0x1c3e <__mulsf3_pse+0x84>
    1c1c:	e1 f0       	breq	.+56     	; 0x1c56 <__mulsf3_pse+0x9c>
    1c1e:	88 23       	and	r24, r24
    1c20:	4a f0       	brmi	.+18     	; 0x1c34 <__mulsf3_pse+0x7a>
    1c22:	ee 0f       	add	r30, r30
    1c24:	ff 1f       	adc	r31, r31
    1c26:	bb 1f       	adc	r27, r27
    1c28:	66 1f       	adc	r22, r22
    1c2a:	77 1f       	adc	r23, r23
    1c2c:	88 1f       	adc	r24, r24
    1c2e:	91 50       	subi	r25, 0x01	; 1
    1c30:	50 40       	sbci	r21, 0x00	; 0
    1c32:	a9 f7       	brne	.-22     	; 0x1c1e <__mulsf3_pse+0x64>
    1c34:	9e 3f       	cpi	r25, 0xFE	; 254
    1c36:	51 05       	cpc	r21, r1
    1c38:	70 f0       	brcs	.+28     	; 0x1c56 <__mulsf3_pse+0x9c>
    1c3a:	51 cf       	rjmp	.-350    	; 0x1ade <__fp_inf>
    1c3c:	87 cf       	rjmp	.-242    	; 0x1b4c <__fp_szero>
    1c3e:	5f 3f       	cpi	r21, 0xFF	; 255
    1c40:	ec f3       	brlt	.-6      	; 0x1c3c <__mulsf3_pse+0x82>
    1c42:	98 3e       	cpi	r25, 0xE8	; 232
    1c44:	dc f3       	brlt	.-10     	; 0x1c3c <__mulsf3_pse+0x82>
    1c46:	86 95       	lsr	r24
    1c48:	77 95       	ror	r23
    1c4a:	67 95       	ror	r22
    1c4c:	b7 95       	ror	r27
    1c4e:	f7 95       	ror	r31
    1c50:	e7 95       	ror	r30
    1c52:	9f 5f       	subi	r25, 0xFF	; 255
    1c54:	c1 f7       	brne	.-16     	; 0x1c46 <__mulsf3_pse+0x8c>
    1c56:	fe 2b       	or	r31, r30
    1c58:	88 0f       	add	r24, r24
    1c5a:	91 1d       	adc	r25, r1
    1c5c:	96 95       	lsr	r25
    1c5e:	87 95       	ror	r24
    1c60:	97 f9       	bld	r25, 7
    1c62:	08 95       	ret

00001c64 <_exit>:
    1c64:	f8 94       	cli

00001c66 <__stop_program>:
    1c66:	ff cf       	rjmp	.-2      	; 0x1c66 <__stop_program>
