
test_sim.elf:     file format elf32-avr

Sections:
Idx Name          Size      VMA       LMA       File off  Algn
  0 .data         00000276  00800100  000012d6  0000136a  2**0
                  CONTENTS, ALLOC, LOAD, DATA
  1 .text         000012d6  00000000  00000000  00000094  2**1
                  CONTENTS, ALLOC, LOAD, READONLY, CODE
  2 .bss          0000000a  00800376  00800376  000015e0  2**0
                  ALLOC
  3 .debug_aranges 00000120  00000000  00000000  000015e0  2**0
                  CONTENTS, READONLY, DEBUGGING
  4 .debug_pubnames 0000031a  00000000  00000000  00001700  2**0
                  CONTENTS, READONLY, DEBUGGING
  5 .debug_info   00001f2e  00000000  00000000  00001a1a  2**0
                  CONTENTS, READONLY, DEBUGGING
  6 .debug_abbrev 00000f5f  00000000  00000000  00003948  2**0
                  CONTENTS, READONLY, DEBUGGING
  7 .debug_line   00001186  00000000  00000000  000048a7  2**0
                  CONTENTS, READONLY, DEBUGGING
  8 .debug_frame  00000280  00000000  00000000  00005a30  2**2
                  CONTENTS, READONLY, DEBUGGING
  9 .debug_str    0000049b  00000000  00000000  00005cb0  2**0
                  CONTENTS, READONLY, DEBUGGING
 10 .debug_loc    00000ac8  00000000  00000000  0000614b  2**0
                  CONTENTS, READONLY, DEBUGGING
 11 .debug_ranges 00000050  00000000  00000000  00006c13  2**0
                  CONTENTS, READONLY, DEBUGGING

Disassembly of section .text:

00000000 <__vectors>:
       0:	0c 94 46 00 	jmp	0x8c	; 0x8c <__ctors_end>
       4:	0c 94 65 00 	jmp	0xca	; 0xca <__bad_interrupt>
       8:	0c 94 65 00 	jmp	0xca	; 0xca <__bad_interrupt>
       c:	0c 94 65 00 	jmp	0xca	; 0xca <__bad_interrupt>
      10:	0c 94 65 00 	jmp	0xca	; 0xca <__bad_interrupt>
      14:	0c 94 65 00 	jmp	0xca	; 0xca <__bad_interrupt>
      18:	0c 94 65 00 	jmp	0xca	; 0xca <__bad_interrupt>
      1c:	0c 94 65 00 	jmp	0xca	; 0xca <__bad_interrupt>
      20:	0c 94 65 00 	jmp	0xca	; 0xca <__bad_interrupt>
      24:	0c 94 65 00 	jmp	0xca	; 0xca <__bad_interrupt>
      28:	0c 94 65 00 	jmp	0xca	; 0xca <__bad_interrupt>
      2c:	0c 94 65 00 	jmp	0xca	; 0xca <__bad_interrupt>
      30:	0c 94 65 00 	jmp	0xca	; 0xca <__bad_interrupt>
      34:	0c 94 65 00 	jmp	0xca	; 0xca <__bad_interrupt>
      38:	0c 94 65 00 	jmp	0xca	; 0xca <__bad_interrupt>
      3c:	0c 94 65 00 	jmp	0xca	; 0xca <__bad_interrupt>
      40:	0c 94 65 00 	jmp	0xca	; 0xca <__bad_interrupt>
      44:	0c 94 65 00 	jmp	0xca	; 0xca <__bad_interrupt>
      48:	0c 94 65 00 	jmp	0xca	; 0xca <__bad_interrupt>
      4c:	0c 94 65 00 	jmp	0xca	; 0xca <__bad_interrupt>
      50:	0c 94 65 00 	jmp	0xca	; 0xca <__bad_interrupt>
      54:	0c 94 65 00 	jmp	0xca	; 0xca <__bad_interrupt>
      58:	0c 94 65 00 	jmp	0xca	; 0xca <__bad_interrupt>
      5c:	0c 94 65 00 	jmp	0xca	; 0xca <__bad_interrupt>
      60:	0c 94 65 00 	jmp	0xca	; 0xca <__bad_interrupt>
      64:	0c 94 65 00 	jmp	0xca	; 0xca <__bad_interrupt>
      68:	0c 94 65 00 	jmp	0xca	; 0xca <__bad_interrupt>
      6c:	0c 94 65 00 	jmp	0xca	; 0xca <__bad_interrupt>
      70:	0c 94 65 00 	jmp	0xca	; 0xca <__bad_interrupt>
      74:	0c 94 65 00 	jmp	0xca	; 0xca <__bad_interrupt>
      78:	0c 94 65 00 	jmp	0xca	; 0xca <__bad_interrupt>
      7c:	0c 94 65 00 	jmp	0xca	; 0xca <__bad_interrupt>
      80:	0c 94 65 00 	jmp	0xca	; 0xca <__bad_interrupt>
      84:	0c 94 65 00 	jmp	0xca	; 0xca <__bad_interrupt>
      88:	0c 94 65 00 	jmp	0xca	; 0xca <__bad_interrupt>

0000008c <__ctors_end>:
      8c:	11 24       	eor	r1, r1
      8e:	1f be       	out	0x3f, r1	; 63
      90:	cf ef       	ldi	r28, 0xFF	; 255
      92:	d0 e1       	ldi	r29, 0x10	; 16
      94:	de bf       	out	0x3e, r29	; 62
      96:	cd bf       	out	0x3d, r28	; 61

00000098 <__do_copy_data>:
      98:	13 e0       	ldi	r17, 0x03	; 3
      9a:	a0 e0       	ldi	r26, 0x00	; 0
      9c:	b1 e0       	ldi	r27, 0x01	; 1
      9e:	e6 ed       	ldi	r30, 0xD6	; 214
      a0:	f2 e1       	ldi	r31, 0x12	; 18
      a2:	00 e0       	ldi	r16, 0x00	; 0
      a4:	0b bf       	out	0x3b, r16	; 59
      a6:	02 c0       	rjmp	.+4      	; 0xac <__do_copy_data+0x14>
      a8:	07 90       	elpm	r0, Z+
      aa:	0d 92       	st	X+, r0
      ac:	a6 37       	cpi	r26, 0x76	; 118
      ae:	b1 07       	cpc	r27, r17
      b0:	d9 f7       	brne	.-10     	; 0xa8 <__do_copy_data+0x10>

000000b2 <__do_clear_bss>:
      b2:	13 e0       	ldi	r17, 0x03	; 3
      b4:	a6 e7       	ldi	r26, 0x76	; 118
      b6:	b3 e0       	ldi	r27, 0x03	; 3
      b8:	01 c0       	rjmp	.+2      	; 0xbc <.do_clear_bss_start>

000000ba <.do_clear_bss_loop>:
      ba:	1d 92       	st	X+, r1

000000bc <.do_clear_bss_start>:
      bc:	a0 38       	cpi	r26, 0x80	; 128
      be:	b1 07       	cpc	r27, r17
      c0:	e1 f7       	brne	.-8      	; 0xba <.do_clear_bss_loop>
      c2:	0e 94 ba 02 	call	0x574	; 0x574 <main>
      c6:	0c 94 69 09 	jmp	0x12d2	; 0x12d2 <_exit>

000000ca <__bad_interrupt>:
      ca:	0c 94 00 00 	jmp	0	; 0x0 <__vectors>

000000ce <float_convert_to_float>:

float a = 3454.345334, b = 12232.45345, c = 0.0;
short d = 23442;

void float_convert_to_float() {
	c = d;
      ce:	60 91 60 02 	lds	r22, 0x0260
      d2:	70 91 61 02 	lds	r23, 0x0261
      d6:	88 27       	eor	r24, r24
      d8:	77 fd       	sbrc	r23, 7
      da:	80 95       	com	r24
      dc:	98 2f       	mov	r25, r24
      de:	0e 94 8f 06 	call	0xd1e	; 0xd1e <__floatsisf>
      e2:	60 93 76 03 	sts	0x0376, r22
      e6:	70 93 77 03 	sts	0x0377, r23
      ea:	80 93 78 03 	sts	0x0378, r24
      ee:	90 93 79 03 	sts	0x0379, r25
}
      f2:	08 95       	ret

000000f4 <float_convert_to_int>:

void float_convert_to_int() {
	d = c;
      f4:	60 91 76 03 	lds	r22, 0x0376
      f8:	70 91 77 03 	lds	r23, 0x0377
      fc:	80 91 78 03 	lds	r24, 0x0378
     100:	90 91 79 03 	lds	r25, 0x0379
     104:	0e 94 ed 06 	call	0xdda	; 0xdda <__fixsfsi>
     108:	70 93 61 02 	sts	0x0261, r23
     10c:	60 93 60 02 	sts	0x0260, r22
}
     110:	08 95       	ret

00000112 <float_add_const>:

void float_add_const(void) {
	c = a + 4.0;
     112:	60 91 58 02 	lds	r22, 0x0258
     116:	70 91 59 02 	lds	r23, 0x0259
     11a:	80 91 5a 02 	lds	r24, 0x025A
     11e:	90 91 5b 02 	lds	r25, 0x025B
     122:	20 e0       	ldi	r18, 0x00	; 0
     124:	30 e0       	ldi	r19, 0x00	; 0
     126:	40 e8       	ldi	r20, 0x80	; 128
     128:	50 e4       	ldi	r21, 0x40	; 64
     12a:	0e 94 bc 04 	call	0x978	; 0x978 <__addsf3>
     12e:	60 93 76 03 	sts	0x0376, r22
     132:	70 93 77 03 	sts	0x0377, r23
     136:	80 93 78 03 	sts	0x0378, r24
     13a:	90 93 79 03 	sts	0x0379, r25
}
     13e:	08 95       	ret

00000140 <float_add>:

void float_add(void) {
	c = a + b;
     140:	60 91 58 02 	lds	r22, 0x0258
     144:	70 91 59 02 	lds	r23, 0x0259
     148:	80 91 5a 02 	lds	r24, 0x025A
     14c:	90 91 5b 02 	lds	r25, 0x025B
     150:	20 91 5c 02 	lds	r18, 0x025C
     154:	30 91 5d 02 	lds	r19, 0x025D
     158:	40 91 5e 02 	lds	r20, 0x025E
     15c:	50 91 5f 02 	lds	r21, 0x025F
     160:	0e 94 bc 04 	call	0x978	; 0x978 <__addsf3>
     164:	60 93 76 03 	sts	0x0376, r22
     168:	70 93 77 03 	sts	0x0377, r23
     16c:	80 93 78 03 	sts	0x0378, r24
     170:	90 93 79 03 	sts	0x0379, r25
}  
     174:	08 95       	ret

00000176 <float_mul_const>:

void float_mul_const(void) {
	c = a * 4.0;
     176:	60 91 58 02 	lds	r22, 0x0258
     17a:	70 91 59 02 	lds	r23, 0x0259
     17e:	80 91 5a 02 	lds	r24, 0x025A
     182:	90 91 5b 02 	lds	r25, 0x025B
     186:	20 e0       	ldi	r18, 0x00	; 0
     188:	30 e0       	ldi	r19, 0x00	; 0
     18a:	40 e8       	ldi	r20, 0x80	; 128
     18c:	50 e4       	ldi	r21, 0x40	; 64
     18e:	0e 94 e9 04 	call	0x9d2	; 0x9d2 <__mulsf3>
     192:	60 93 76 03 	sts	0x0376, r22
     196:	70 93 77 03 	sts	0x0377, r23
     19a:	80 93 78 03 	sts	0x0378, r24
     19e:	90 93 79 03 	sts	0x0379, r25
} 
     1a2:	08 95       	ret

000001a4 <float_mul>:

void float_mul(void) {
	c = a * b;
     1a4:	60 91 58 02 	lds	r22, 0x0258
     1a8:	70 91 59 02 	lds	r23, 0x0259
     1ac:	80 91 5a 02 	lds	r24, 0x025A
     1b0:	90 91 5b 02 	lds	r25, 0x025B
     1b4:	20 91 5c 02 	lds	r18, 0x025C
     1b8:	30 91 5d 02 	lds	r19, 0x025D
     1bc:	40 91 5e 02 	lds	r20, 0x025E
     1c0:	50 91 5f 02 	lds	r21, 0x025F
     1c4:	0e 94 e9 04 	call	0x9d2	; 0x9d2 <__mulsf3>
     1c8:	60 93 76 03 	sts	0x0376, r22
     1cc:	70 93 77 03 	sts	0x0377, r23
     1d0:	80 93 78 03 	sts	0x0378, r24
     1d4:	90 93 79 03 	sts	0x0379, r25
} 
     1d8:	08 95       	ret

000001da <float_div_const>:

void float_div_const(void) {
	c = a / 2.4;
     1da:	60 91 58 02 	lds	r22, 0x0258
     1de:	70 91 59 02 	lds	r23, 0x0259
     1e2:	80 91 5a 02 	lds	r24, 0x025A
     1e6:	90 91 5b 02 	lds	r25, 0x025B
     1ea:	2a e9       	ldi	r18, 0x9A	; 154
     1ec:	39 e9       	ldi	r19, 0x99	; 153
     1ee:	49 e1       	ldi	r20, 0x19	; 25
     1f0:	50 e4       	ldi	r21, 0x40	; 64
     1f2:	0e 94 e3 05 	call	0xbc6	; 0xbc6 <__divsf3>
     1f6:	60 93 76 03 	sts	0x0376, r22
     1fa:	70 93 77 03 	sts	0x0377, r23
     1fe:	80 93 78 03 	sts	0x0378, r24
     202:	90 93 79 03 	sts	0x0379, r25
} 
     206:	08 95       	ret

00000208 <float_div>:

void float_div(void) {
	c = a / b;
     208:	60 91 58 02 	lds	r22, 0x0258
     20c:	70 91 59 02 	lds	r23, 0x0259
     210:	80 91 5a 02 	lds	r24, 0x025A
     214:	90 91 5b 02 	lds	r25, 0x025B
     218:	20 91 5c 02 	lds	r18, 0x025C
     21c:	30 91 5d 02 	lds	r19, 0x025D
     220:	40 91 5e 02 	lds	r20, 0x025E
     224:	50 91 5f 02 	lds	r21, 0x025F
     228:	0e 94 e3 05 	call	0xbc6	; 0xbc6 <__divsf3>
     22c:	60 93 76 03 	sts	0x0376, r22
     230:	70 93 77 03 	sts	0x0377, r23
     234:	80 93 78 03 	sts	0x0378, r24
     238:	90 93 79 03 	sts	0x0379, r25
}
     23c:	08 95       	ret

0000023e <int16_div10>:
static inline unsigned short div10(unsigned short in) { 
    return (((unsigned long) in * 52429L)) >> 19;
}

void int16_div10() {
	i_c = i_a / 10;
     23e:	80 91 62 02 	lds	r24, 0x0262
     242:	90 91 63 02 	lds	r25, 0x0263
     246:	6a e0       	ldi	r22, 0x0A	; 10
     248:	70 e0       	ldi	r23, 0x00	; 0
     24a:	0e 94 fc 08 	call	0x11f8	; 0x11f8 <__udivmodhi4>
     24e:	70 93 7f 03 	sts	0x037F, r23
     252:	60 93 7e 03 	sts	0x037E, r22
}
     256:	08 95       	ret

00000258 <int16_div10_fast>:

void int16_div10_fast() {
	i_c = div10(i_a);
     258:	60 91 62 02 	lds	r22, 0x0262
     25c:	70 91 63 02 	lds	r23, 0x0263
     260:	80 e0       	ldi	r24, 0x00	; 0
     262:	90 e0       	ldi	r25, 0x00	; 0
     264:	2d ec       	ldi	r18, 0xCD	; 205
     266:	3c ec       	ldi	r19, 0xCC	; 204
     268:	40 e0       	ldi	r20, 0x00	; 0
     26a:	50 e0       	ldi	r21, 0x00	; 0
     26c:	0e 94 dd 08 	call	0x11ba	; 0x11ba <__mulsi3>
     270:	23 e1       	ldi	r18, 0x13	; 19
     272:	96 95       	lsr	r25
     274:	87 95       	ror	r24
     276:	77 95       	ror	r23
     278:	67 95       	ror	r22
     27a:	2a 95       	dec	r18
     27c:	d1 f7       	brne	.-12     	; 0x272 <int16_div10_fast+0x1a>
     27e:	70 93 7f 03 	sts	0x037F, r23
     282:	60 93 7e 03 	sts	0x037E, r22
}
     286:	08 95       	ret

00000288 <int16_div16>:

void int16_div16() {
	i_c = i_a / 16;
     288:	80 91 62 02 	lds	r24, 0x0262
     28c:	90 91 63 02 	lds	r25, 0x0263
     290:	34 e0       	ldi	r19, 0x04	; 4
     292:	96 95       	lsr	r25
     294:	87 95       	ror	r24
     296:	3a 95       	dec	r19
     298:	e1 f7       	brne	.-8      	; 0x292 <int16_div16+0xa>
     29a:	90 93 7f 03 	sts	0x037F, r25
     29e:	80 93 7e 03 	sts	0x037E, r24
}
     2a2:	08 95       	ret

000002a4 <int16_div>:

void int16_div() {
    i_c = i_a / i_b;
     2a4:	60 91 64 02 	lds	r22, 0x0264
     2a8:	70 91 65 02 	lds	r23, 0x0265
     2ac:	80 91 62 02 	lds	r24, 0x0262
     2b0:	90 91 63 02 	lds	r25, 0x0263
     2b4:	0e 94 fc 08 	call	0x11f8	; 0x11f8 <__udivmodhi4>
     2b8:	70 93 7f 03 	sts	0x037F, r23
     2bc:	60 93 7e 03 	sts	0x037E, r22
} 
     2c0:	08 95       	ret

000002c2 <int16_mult_const>:

void int16_mult_const() {
    i_c = i_a * 234;
     2c2:	80 91 62 02 	lds	r24, 0x0262
     2c6:	90 91 63 02 	lds	r25, 0x0263
     2ca:	2a ee       	ldi	r18, 0xEA	; 234
     2cc:	30 e0       	ldi	r19, 0x00	; 0
     2ce:	ac 01       	movw	r20, r24
     2d0:	42 9f       	mul	r20, r18
     2d2:	c0 01       	movw	r24, r0
     2d4:	43 9f       	mul	r20, r19
     2d6:	90 0d       	add	r25, r0
     2d8:	52 9f       	mul	r21, r18
     2da:	90 0d       	add	r25, r0
     2dc:	11 24       	eor	r1, r1
     2de:	90 93 7f 03 	sts	0x037F, r25
     2e2:	80 93 7e 03 	sts	0x037E, r24
} 
     2e6:	08 95       	ret

000002e8 <int16_mult>:

void int16_mult() {
    i_c = i_a * i_b;
     2e8:	80 91 64 02 	lds	r24, 0x0264
     2ec:	90 91 65 02 	lds	r25, 0x0265
     2f0:	20 91 62 02 	lds	r18, 0x0262
     2f4:	30 91 63 02 	lds	r19, 0x0263
     2f8:	ac 01       	movw	r20, r24
     2fa:	42 9f       	mul	r20, r18
     2fc:	c0 01       	movw	r24, r0
     2fe:	43 9f       	mul	r20, r19
     300:	90 0d       	add	r25, r0
     302:	52 9f       	mul	r21, r18
     304:	90 0d       	add	r25, r0
     306:	11 24       	eor	r1, r1
     308:	90 93 7f 03 	sts	0x037F, r25
     30c:	80 93 7e 03 	sts	0x037E, r24
} 
     310:	08 95       	ret

00000312 <int32_div10>:

unsigned long l_a = 23444, l_b = 23, l_c;

void int32_div10() {
	l_c = l_a / 10;
     312:	60 91 66 02 	lds	r22, 0x0266
     316:	70 91 67 02 	lds	r23, 0x0267
     31a:	80 91 68 02 	lds	r24, 0x0268
     31e:	90 91 69 02 	lds	r25, 0x0269
     322:	2a e0       	ldi	r18, 0x0A	; 10
     324:	30 e0       	ldi	r19, 0x00	; 0
     326:	40 e0       	ldi	r20, 0x00	; 0
     328:	50 e0       	ldi	r21, 0x00	; 0
     32a:	0e 94 10 09 	call	0x1220	; 0x1220 <__udivmodsi4>
     32e:	20 93 7a 03 	sts	0x037A, r18
     332:	30 93 7b 03 	sts	0x037B, r19
     336:	40 93 7c 03 	sts	0x037C, r20
     33a:	50 93 7d 03 	sts	0x037D, r21
}
     33e:	08 95       	ret

00000340 <int32_div16>:

void int32_div16() {
	l_c = l_a / 16;
     340:	80 91 66 02 	lds	r24, 0x0266
     344:	90 91 67 02 	lds	r25, 0x0267
     348:	a0 91 68 02 	lds	r26, 0x0268
     34c:	b0 91 69 02 	lds	r27, 0x0269
     350:	44 e0       	ldi	r20, 0x04	; 4
     352:	b6 95       	lsr	r27
     354:	a7 95       	ror	r26
     356:	97 95       	ror	r25
     358:	87 95       	ror	r24
     35a:	4a 95       	dec	r20
     35c:	d1 f7       	brne	.-12     	; 0x352 <int32_div16+0x12>
     35e:	80 93 7a 03 	sts	0x037A, r24
     362:	90 93 7b 03 	sts	0x037B, r25
     366:	a0 93 7c 03 	sts	0x037C, r26
     36a:	b0 93 7d 03 	sts	0x037D, r27
}
     36e:	08 95       	ret

00000370 <int32_div>:

void int32_div() {
    l_c = l_a / l_b;
     370:	60 91 66 02 	lds	r22, 0x0266
     374:	70 91 67 02 	lds	r23, 0x0267
     378:	80 91 68 02 	lds	r24, 0x0268
     37c:	90 91 69 02 	lds	r25, 0x0269
     380:	20 91 6a 02 	lds	r18, 0x026A
     384:	30 91 6b 02 	lds	r19, 0x026B
     388:	40 91 6c 02 	lds	r20, 0x026C
     38c:	50 91 6d 02 	lds	r21, 0x026D
     390:	0e 94 10 09 	call	0x1220	; 0x1220 <__udivmodsi4>
     394:	20 93 7a 03 	sts	0x037A, r18
     398:	30 93 7b 03 	sts	0x037B, r19
     39c:	40 93 7c 03 	sts	0x037C, r20
     3a0:	50 93 7d 03 	sts	0x037D, r21
} 
     3a4:	08 95       	ret

000003a6 <int32_mult_const>:

void int32_mult_const() {
    l_c = l_a * 234;
     3a6:	60 91 66 02 	lds	r22, 0x0266
     3aa:	70 91 67 02 	lds	r23, 0x0267
     3ae:	80 91 68 02 	lds	r24, 0x0268
     3b2:	90 91 69 02 	lds	r25, 0x0269
     3b6:	2a ee       	ldi	r18, 0xEA	; 234
     3b8:	30 e0       	ldi	r19, 0x00	; 0
     3ba:	40 e0       	ldi	r20, 0x00	; 0
     3bc:	50 e0       	ldi	r21, 0x00	; 0
     3be:	0e 94 dd 08 	call	0x11ba	; 0x11ba <__mulsi3>
     3c2:	60 93 7a 03 	sts	0x037A, r22
     3c6:	70 93 7b 03 	sts	0x037B, r23
     3ca:	80 93 7c 03 	sts	0x037C, r24
     3ce:	90 93 7d 03 	sts	0x037D, r25
} 
     3d2:	08 95       	ret

000003d4 <int32_mult>:

void int32_mult() {
    l_c = l_a * l_b;
     3d4:	60 91 6a 02 	lds	r22, 0x026A
     3d8:	70 91 6b 02 	lds	r23, 0x026B
     3dc:	80 91 6c 02 	lds	r24, 0x026C
     3e0:	90 91 6d 02 	lds	r25, 0x026D
     3e4:	20 91 66 02 	lds	r18, 0x0266
     3e8:	30 91 67 02 	lds	r19, 0x0267
     3ec:	40 91 68 02 	lds	r20, 0x0268
     3f0:	50 91 69 02 	lds	r21, 0x0269
     3f4:	0e 94 dd 08 	call	0x11ba	; 0x11ba <__mulsi3>
     3f8:	60 93 7a 03 	sts	0x037A, r22
     3fc:	70 93 7b 03 	sts	0x037B, r23
     400:	80 93 7c 03 	sts	0x037C, r24
     404:	90 93 7d 03 	sts	0x037D, r25
}
     408:	08 95       	ret

0000040a <print_execute_time>:
}
*/

#define TIME_FUNC(func) print_execute_time(func, "" # func) 

unsigned short print_execute_time(test_func_t function, char name[]) {
     40a:	7f 92       	push	r7
     40c:	8f 92       	push	r8
     40e:	9f 92       	push	r9
     410:	af 92       	push	r10
     412:	bf 92       	push	r11
     414:	cf 92       	push	r12
     416:	df 92       	push	r13
     418:	ef 92       	push	r14
     41a:	ff 92       	push	r15
     41c:	0f 93       	push	r16
     41e:	1f 93       	push	r17
     420:	df 93       	push	r29
     422:	cf 93       	push	r28
     424:	cd b7       	in	r28, 0x3d	; 61
     426:	de b7       	in	r29, 0x3e	; 62
     428:	27 97       	sbiw	r28, 0x07	; 7
     42a:	0f b6       	in	r0, 0x3f	; 63
     42c:	f8 94       	cli
     42e:	de bf       	out	0x3e, r29	; 62
     430:	0f be       	out	0x3f, r0	; 63
     432:	cd bf       	out	0x3d, r28	; 61
     434:	86 2e       	mov	r8, r22
     436:	77 2e       	mov	r7, r23
	// Timer anhalten und initialisieren
	TCCR1A = 0;
     438:	1f bc       	out	0x2f, r1	; 47
	TCCR1B = 0;
     43a:	1e bc       	out	0x2e, r1	; 46
	TCNT1  = 0;
     43c:	1d bc       	out	0x2d, r1	; 45
     43e:	1c bc       	out	0x2c, r1	; 44
	TIFR   = 0;
     440:	16 be       	out	0x36, r1	; 54
	TCCR1B = 1; // prescaler 1 Timer starten
     442:	21 e0       	ldi	r18, 0x01	; 1
     444:	2e bd       	out	0x2e, r18	; 46
	function();
     446:	fc 01       	movw	r30, r24
     448:	09 95       	icall
	TCCR1B = 0; // Timer stoppen
     44a:	1e bc       	out	0x2e, r1	; 46
	// print
	PrintSignedShortFormated(TCNT1);
     44c:	cc b4       	in	r12, 0x2c	; 44
     44e:	dd b4       	in	r13, 0x2d	; 45
    unsigned char *sBuf = &sBuf0[6];
    unsigned char  minus;
    unsigned short valueAlt;   // Alte Wert für schneller % 10 Berechnung
    unsigned short valueCalc;  // muss unsigned weil signed short kann kein 32768
    
    *sBuf = 0;       // String Terminierung
     450:	1f 82       	std	Y+7, r1	; 0x07
    if (value < 0) { // Vorzeichen behandeln
     452:	d7 fc       	sbrc	r13, 7
     454:	03 c0       	rjmp	.+6      	; 0x45c <print_execute_time+0x52>
     456:	b0 e2       	ldi	r27, 0x20	; 32
     458:	9b 2e       	mov	r9, r27
     45a:	06 c0       	rjmp	.+12     	; 0x468 <print_execute_time+0x5e>
      minus = '-';
      valueCalc = -value;
     45c:	d0 94       	com	r13
     45e:	c1 94       	neg	r12
     460:	d1 08       	sbc	r13, r1
     462:	d3 94       	inc	r13
     464:	ad e2       	ldi	r26, 0x2D	; 45
     466:	9a 2e       	mov	r9, r26
    } else {
      minus = ' ';
      valueCalc = value;
    }
    if (!valueCalc) 
     468:	c1 14       	cp	r12, r1
     46a:	d1 04       	cpc	r13, r1
     46c:	41 f4       	brne	.+16     	; 0x47e <print_execute_time+0x74>
      *--sBuf = '0';
     46e:	80 e3       	ldi	r24, 0x30	; 48
     470:	8e 83       	std	Y+6, r24	; 0x06
     472:	f6 e0       	ldi	r31, 0x06	; 6
     474:	af 2e       	mov	r10, r31
     476:	b1 2c       	mov	r11, r1
     478:	ac 0e       	add	r10, r28
     47a:	bd 1e       	adc	r11, r29
     47c:	2d c0       	rjmp	.+90     	; 0x4d8 <print_execute_time+0xce>
     47e:	e7 e0       	ldi	r30, 0x07	; 7
     480:	ae 2e       	mov	r10, r30
     482:	b1 2c       	mov	r11, r1
     484:	ac 0e       	add	r10, r28
     486:	bd 1e       	adc	r11, r29
}

unsigned short i_a = 23444, i_b = 23, i_c;

static inline unsigned short div10(unsigned short in) { 
    return (((unsigned long) in * 52429L)) >> 19;
     488:	b6 01       	movw	r22, r12
     48a:	80 e0       	ldi	r24, 0x00	; 0
     48c:	90 e0       	ldi	r25, 0x00	; 0
     48e:	2d ec       	ldi	r18, 0xCD	; 205
     490:	3c ec       	ldi	r19, 0xCC	; 204
     492:	40 e0       	ldi	r20, 0x00	; 0
     494:	50 e0       	ldi	r21, 0x00	; 0
     496:	0e 94 dd 08 	call	0x11ba	; 0x11ba <__mulsi3>
     49a:	7b 01       	movw	r14, r22
     49c:	8c 01       	movw	r16, r24
     49e:	73 e1       	ldi	r23, 0x13	; 19
     4a0:	16 95       	lsr	r17
     4a2:	07 95       	ror	r16
     4a4:	f7 94       	ror	r15
     4a6:	e7 94       	ror	r14
     4a8:	7a 95       	dec	r23
     4aa:	d1 f7       	brne	.-12     	; 0x4a0 <print_execute_time+0x96>
     4ac:	97 01       	movw	r18, r14
    else while (valueCalc) {
      valueAlt = valueCalc;
      //  schneller als valueCalc /= 10;
      valueCalc = div10(valueCalc); 
      // schneller als  *--sBuf = '0' + (valueAlt % 10)
      *--sBuf = '0' + valueAlt - (valueCalc * 10); 
     4ae:	4c 2d       	mov	r20, r12
     4b0:	40 5d       	subi	r20, 0xD0	; 208
     4b2:	c7 01       	movw	r24, r14
     4b4:	63 e0       	ldi	r22, 0x03	; 3
     4b6:	88 0f       	add	r24, r24
     4b8:	99 1f       	adc	r25, r25
     4ba:	6a 95       	dec	r22
     4bc:	e1 f7       	brne	.-8      	; 0x4b6 <print_execute_time+0xac>
     4be:	22 0f       	add	r18, r18
     4c0:	33 1f       	adc	r19, r19
     4c2:	82 0f       	add	r24, r18
     4c4:	93 1f       	adc	r25, r19
     4c6:	48 1b       	sub	r20, r24
     4c8:	f5 01       	movw	r30, r10
     4ca:	42 93       	st	-Z, r20
     4cc:	5f 01       	movw	r10, r30
      minus = ' ';
      valueCalc = value;
    }
    if (!valueCalc) 
      *--sBuf = '0';
    else while (valueCalc) {
     4ce:	e1 14       	cp	r14, r1
     4d0:	f1 04       	cpc	r15, r1
     4d2:	11 f0       	breq	.+4      	; 0x4d8 <print_execute_time+0xce>
     4d4:	67 01       	movw	r12, r14
     4d6:	d8 cf       	rjmp	.-80     	; 0x488 <print_execute_time+0x7e>
      //  schneller als valueCalc /= 10;
      valueCalc = div10(valueCalc); 
      // schneller als  *--sBuf = '0' + (valueAlt % 10)
      *--sBuf = '0' + valueAlt - (valueCalc * 10); 
    } 
    *--sBuf = minus;                  // Minuszeichen vor die höchstwertigste Stelle setzen
     4d8:	f5 01       	movw	r30, r10
     4da:	92 92       	st	-Z, r9
    while (sBuf > sBuf0)              // mit Leerzeichen auffüllen (für Formatierung)  
     4dc:	ce 01       	movw	r24, r28
     4de:	01 96       	adiw	r24, 0x01	; 1
      *--sBuf = ' ';
     4e0:	20 e2       	ldi	r18, 0x20	; 32
     4e2:	01 c0       	rjmp	.+2      	; 0x4e6 <print_execute_time+0xdc>
     4e4:	22 93       	st	-Z, r18
      valueCalc = div10(valueCalc); 
      // schneller als  *--sBuf = '0' + (valueAlt % 10)
      *--sBuf = '0' + valueAlt - (valueCalc * 10); 
    } 
    *--sBuf = minus;                  // Minuszeichen vor die höchstwertigste Stelle setzen
    while (sBuf > sBuf0)              // mit Leerzeichen auffüllen (für Formatierung)  
     4e6:	8e 17       	cp	r24, r30
     4e8:	9f 07       	cpc	r25, r31
     4ea:	e0 f3       	brcs	.-8      	; 0x4e4 <print_execute_time+0xda>
      *--sBuf = ' ';
    PrintString((const char*) sBuf0); // String ausgeben
     4ec:	fc 01       	movw	r30, r24
     4ee:	02 c0       	rjmp	.+4      	; 0x4f4 <print_execute_time+0xea>
#endif

static PrintString(const char* str) {
	const char *c;
	for(c = str; *c; c++)
	  special_output_port = *c;
     4f0:	80 bb       	out	0x10, r24	; 16
#define special_input_port  (*((volatile char *) SIM_RIO))
#endif

static PrintString(const char* str) {
	const char *c;
	for(c = str; *c; c++)
     4f2:	31 96       	adiw	r30, 0x01	; 1
     4f4:	80 81       	ld	r24, Z
     4f6:	88 23       	and	r24, r24
     4f8:	d9 f7       	brne	.-10     	; 0x4f0 <print_execute_time+0xe6>
     4fa:	e0 e0       	ldi	r30, 0x00	; 0
     4fc:	f1 e0       	ldi	r31, 0x01	; 1
     4fe:	02 c0       	rjmp	.+4      	; 0x504 <print_execute_time+0xfa>
	  special_output_port = *c;
     500:	80 bb       	out	0x10, r24	; 16
#define special_input_port  (*((volatile char *) SIM_RIO))
#endif

static PrintString(const char* str) {
	const char *c;
	for(c = str; *c; c++)
     502:	31 96       	adiw	r30, 0x01	; 1
     504:	80 81       	ld	r24, Z
     506:	88 23       	and	r24, r24
     508:	d9 f7       	brne	.-10     	; 0x500 <print_execute_time+0xf6>
     50a:	88 2d       	mov	r24, r8
     50c:	97 2d       	mov	r25, r7
     50e:	9c 01       	movw	r18, r24
     510:	f9 01       	movw	r30, r18
     512:	02 c0       	rjmp	.+4      	; 0x518 <print_execute_time+0x10e>
	  special_output_port = *c;
     514:	80 bb       	out	0x10, r24	; 16
#define special_input_port  (*((volatile char *) SIM_RIO))
#endif

static PrintString(const char* str) {
	const char *c;
	for(c = str; *c; c++)
     516:	31 96       	adiw	r30, 0x01	; 1
     518:	80 81       	ld	r24, Z
     51a:	88 23       	and	r24, r24
     51c:	d9 f7       	brne	.-10     	; 0x514 <print_execute_time+0x10a>
	TCCR1B = 0; // Timer stoppen
	// print
	PrintSignedShortFormated(TCNT1);
	PrintString(" = ");
	PrintString(name);
	if (TIFR & (1 << 2))
     51e:	06 b6       	in	r0, 0x36	; 54
     520:	02 fe       	sbrs	r0, 2
     522:	0c c0       	rjmp	.+24     	; 0x53c <print_execute_time+0x132>
     524:	e4 e0       	ldi	r30, 0x04	; 4
     526:	f1 e0       	ldi	r31, 0x01	; 1
     528:	02 c0       	rjmp	.+4      	; 0x52e <print_execute_time+0x124>
#endif

static PrintString(const char* str) {
	const char *c;
	for(c = str; *c; c++)
	  special_output_port = *c;
     52a:	80 bb       	out	0x10, r24	; 16
#define special_input_port  (*((volatile char *) SIM_RIO))
#endif

static PrintString(const char* str) {
	const char *c;
	for(c = str; *c; c++)
     52c:	31 96       	adiw	r30, 0x01	; 1
     52e:	80 81       	ld	r24, Z
     530:	88 23       	and	r24, r24
     532:	d9 f7       	brne	.-10     	; 0x52a <print_execute_time+0x120>
     534:	03 c0       	rjmp	.+6      	; 0x53c <print_execute_time+0x132>
	  special_output_port = *c;
     536:	80 bb       	out	0x10, r24	; 16
#define special_input_port  (*((volatile char *) SIM_RIO))
#endif

static PrintString(const char* str) {
	const char *c;
	for(c = str; *c; c++)
     538:	31 96       	adiw	r30, 0x01	; 1
     53a:	02 c0       	rjmp	.+4      	; 0x540 <print_execute_time+0x136>
     53c:	e6 e1       	ldi	r30, 0x16	; 22
     53e:	f1 e0       	ldi	r31, 0x01	; 1
     540:	80 81       	ld	r24, Z
     542:	88 23       	and	r24, r24
     544:	c1 f7       	brne	.-16     	; 0x536 <print_execute_time+0x12c>
	PrintString(" = ");
	PrintString(name);
	if (TIFR & (1 << 2))
		PrintString(" (Timeroverflow!)");	
	PrintString("\n");
	return TCNT1;
     546:	2c b5       	in	r18, 0x2c	; 44
     548:	3d b5       	in	r19, 0x2d	; 45
}
     54a:	c9 01       	movw	r24, r18
     54c:	27 96       	adiw	r28, 0x07	; 7
     54e:	0f b6       	in	r0, 0x3f	; 63
     550:	f8 94       	cli
     552:	de bf       	out	0x3e, r29	; 62
     554:	0f be       	out	0x3f, r0	; 63
     556:	cd bf       	out	0x3d, r28	; 61
     558:	cf 91       	pop	r28
     55a:	df 91       	pop	r29
     55c:	1f 91       	pop	r17
     55e:	0f 91       	pop	r16
     560:	ff 90       	pop	r15
     562:	ef 90       	pop	r14
     564:	df 90       	pop	r13
     566:	cf 90       	pop	r12
     568:	bf 90       	pop	r11
     56a:	af 90       	pop	r10
     56c:	9f 90       	pop	r9
     56e:	8f 90       	pop	r8
     570:	7f 90       	pop	r7
     572:	08 95       	ret

00000574 <main>:

int main() {
     574:	e8 e1       	ldi	r30, 0x18	; 24
     576:	f1 e0       	ldi	r31, 0x01	; 1
     578:	02 c0       	rjmp	.+4      	; 0x57e <main+0xa>
#endif

static PrintString(const char* str) {
	const char *c;
	for(c = str; *c; c++)
	  special_output_port = *c;
     57a:	80 bb       	out	0x10, r24	; 16
#define special_input_port  (*((volatile char *) SIM_RIO))
#endif

static PrintString(const char* str) {
	const char *c;
	for(c = str; *c; c++)
     57c:	31 96       	adiw	r30, 0x01	; 1
     57e:	80 81       	ld	r24, Z
     580:	88 23       	and	r24, r24
     582:	d9 f7       	brne	.-10     	; 0x57a <main+0x6>
     584:	e8 e3       	ldi	r30, 0x38	; 56
     586:	f1 e0       	ldi	r31, 0x01	; 1
     588:	02 c0       	rjmp	.+4      	; 0x58e <main+0x1a>
	  special_output_port = *c;
     58a:	80 bb       	out	0x10, r24	; 16
#define special_input_port  (*((volatile char *) SIM_RIO))
#endif

static PrintString(const char* str) {
	const char *c;
	for(c = str; *c; c++)
     58c:	31 96       	adiw	r30, 0x01	; 1
     58e:	80 81       	ld	r24, Z
     590:	88 23       	and	r24, r24
     592:	d9 f7       	brne	.-10     	; 0x58a <main+0x16>
}

int main() {
	PrintString("\nZeitmessung Rechenoperationen\n");
	PrintString("\n Takte   Funktionsname\n");
	TIME_FUNC(float_convert_to_float);
     594:	87 e6       	ldi	r24, 0x67	; 103
     596:	90 e0       	ldi	r25, 0x00	; 0
     598:	61 e5       	ldi	r22, 0x51	; 81
     59a:	71 e0       	ldi	r23, 0x01	; 1
     59c:	0e 94 05 02 	call	0x40a	; 0x40a <print_execute_time>
	TIME_FUNC(float_convert_to_int);
     5a0:	8a e7       	ldi	r24, 0x7A	; 122
     5a2:	90 e0       	ldi	r25, 0x00	; 0
     5a4:	68 e6       	ldi	r22, 0x68	; 104
     5a6:	71 e0       	ldi	r23, 0x01	; 1
     5a8:	0e 94 05 02 	call	0x40a	; 0x40a <print_execute_time>
	TIME_FUNC(float_add_const);
     5ac:	89 e8       	ldi	r24, 0x89	; 137
     5ae:	90 e0       	ldi	r25, 0x00	; 0
     5b0:	6d e7       	ldi	r22, 0x7D	; 125
     5b2:	71 e0       	ldi	r23, 0x01	; 1
     5b4:	0e 94 05 02 	call	0x40a	; 0x40a <print_execute_time>
	TIME_FUNC(float_add);
     5b8:	80 ea       	ldi	r24, 0xA0	; 160
     5ba:	90 e0       	ldi	r25, 0x00	; 0
     5bc:	6d e8       	ldi	r22, 0x8D	; 141
     5be:	71 e0       	ldi	r23, 0x01	; 1
     5c0:	0e 94 05 02 	call	0x40a	; 0x40a <print_execute_time>
	TIME_FUNC(float_mul_const);
     5c4:	8b eb       	ldi	r24, 0xBB	; 187
     5c6:	90 e0       	ldi	r25, 0x00	; 0
     5c8:	67 e9       	ldi	r22, 0x97	; 151
     5ca:	71 e0       	ldi	r23, 0x01	; 1
     5cc:	0e 94 05 02 	call	0x40a	; 0x40a <print_execute_time>
	TIME_FUNC(float_mul);
     5d0:	82 ed       	ldi	r24, 0xD2	; 210
     5d2:	90 e0       	ldi	r25, 0x00	; 0
     5d4:	67 ea       	ldi	r22, 0xA7	; 167
     5d6:	71 e0       	ldi	r23, 0x01	; 1
     5d8:	0e 94 05 02 	call	0x40a	; 0x40a <print_execute_time>
	TIME_FUNC(float_div_const);
     5dc:	8d ee       	ldi	r24, 0xED	; 237
     5de:	90 e0       	ldi	r25, 0x00	; 0
     5e0:	61 eb       	ldi	r22, 0xB1	; 177
     5e2:	71 e0       	ldi	r23, 0x01	; 1
     5e4:	0e 94 05 02 	call	0x40a	; 0x40a <print_execute_time>
	TIME_FUNC(float_div);
     5e8:	84 e0       	ldi	r24, 0x04	; 4
     5ea:	91 e0       	ldi	r25, 0x01	; 1
     5ec:	61 ec       	ldi	r22, 0xC1	; 193
     5ee:	71 e0       	ldi	r23, 0x01	; 1
     5f0:	0e 94 05 02 	call	0x40a	; 0x40a <print_execute_time>
	TIME_FUNC(int16_div10);
     5f4:	8f e1       	ldi	r24, 0x1F	; 31
     5f6:	91 e0       	ldi	r25, 0x01	; 1
     5f8:	6b ec       	ldi	r22, 0xCB	; 203
     5fa:	71 e0       	ldi	r23, 0x01	; 1
     5fc:	0e 94 05 02 	call	0x40a	; 0x40a <print_execute_time>
	TIME_FUNC(int16_div10_fast);
     600:	8c e2       	ldi	r24, 0x2C	; 44
     602:	91 e0       	ldi	r25, 0x01	; 1
     604:	67 ed       	ldi	r22, 0xD7	; 215
     606:	71 e0       	ldi	r23, 0x01	; 1
     608:	0e 94 05 02 	call	0x40a	; 0x40a <print_execute_time>
	TIME_FUNC(int16_div16);
     60c:	84 e4       	ldi	r24, 0x44	; 68
     60e:	91 e0       	ldi	r25, 0x01	; 1
     610:	68 ee       	ldi	r22, 0xE8	; 232
     612:	71 e0       	ldi	r23, 0x01	; 1
     614:	0e 94 05 02 	call	0x40a	; 0x40a <print_execute_time>
	TIME_FUNC(int16_div);
     618:	82 e5       	ldi	r24, 0x52	; 82
     61a:	91 e0       	ldi	r25, 0x01	; 1
     61c:	64 ef       	ldi	r22, 0xF4	; 244
     61e:	71 e0       	ldi	r23, 0x01	; 1
     620:	0e 94 05 02 	call	0x40a	; 0x40a <print_execute_time>
	TIME_FUNC(int16_mult_const);
     624:	81 e6       	ldi	r24, 0x61	; 97
     626:	91 e0       	ldi	r25, 0x01	; 1
     628:	6e ef       	ldi	r22, 0xFE	; 254
     62a:	71 e0       	ldi	r23, 0x01	; 1
     62c:	0e 94 05 02 	call	0x40a	; 0x40a <print_execute_time>
	TIME_FUNC(int16_mult);	
     630:	84 e7       	ldi	r24, 0x74	; 116
     632:	91 e0       	ldi	r25, 0x01	; 1
     634:	6f e0       	ldi	r22, 0x0F	; 15
     636:	72 e0       	ldi	r23, 0x02	; 2
     638:	0e 94 05 02 	call	0x40a	; 0x40a <print_execute_time>
	TIME_FUNC(int32_div10);
     63c:	89 e8       	ldi	r24, 0x89	; 137
     63e:	91 e0       	ldi	r25, 0x01	; 1
     640:	6a e1       	ldi	r22, 0x1A	; 26
     642:	72 e0       	ldi	r23, 0x02	; 2
     644:	0e 94 05 02 	call	0x40a	; 0x40a <print_execute_time>
	TIME_FUNC(int32_div16);
     648:	80 ea       	ldi	r24, 0xA0	; 160
     64a:	91 e0       	ldi	r25, 0x01	; 1
     64c:	66 e2       	ldi	r22, 0x26	; 38
     64e:	72 e0       	ldi	r23, 0x02	; 2
     650:	0e 94 05 02 	call	0x40a	; 0x40a <print_execute_time>
	TIME_FUNC(int32_div);
     654:	88 eb       	ldi	r24, 0xB8	; 184
     656:	91 e0       	ldi	r25, 0x01	; 1
     658:	62 e3       	ldi	r22, 0x32	; 50
     65a:	72 e0       	ldi	r23, 0x02	; 2
     65c:	0e 94 05 02 	call	0x40a	; 0x40a <print_execute_time>
	TIME_FUNC(int32_mult_const);
     660:	83 ed       	ldi	r24, 0xD3	; 211
     662:	91 e0       	ldi	r25, 0x01	; 1
     664:	6c e3       	ldi	r22, 0x3C	; 60
     666:	72 e0       	ldi	r23, 0x02	; 2
     668:	0e 94 05 02 	call	0x40a	; 0x40a <print_execute_time>
	TIME_FUNC(int32_mult);		
     66c:	8a ee       	ldi	r24, 0xEA	; 234
     66e:	91 e0       	ldi	r25, 0x01	; 1
     670:	6d e4       	ldi	r22, 0x4D	; 77
     672:	72 e0       	ldi	r23, 0x02	; 2
     674:	0e 94 05 02 	call	0x40a	; 0x40a <print_execute_time>
	return 0;	
}
     678:	80 e0       	ldi	r24, 0x00	; 0
     67a:	90 e0       	ldi	r25, 0x00	; 0
     67c:	08 95       	ret

0000067e <_fpadd_parts>:
     67e:	a0 e0       	ldi	r26, 0x00	; 0
     680:	b0 e0       	ldi	r27, 0x00	; 0
     682:	e5 e4       	ldi	r30, 0x45	; 69
     684:	f3 e0       	ldi	r31, 0x03	; 3
     686:	0c 94 32 09 	jmp	0x1264	; 0x1264 <__prologue_saves__>
     68a:	dc 01       	movw	r26, r24
     68c:	2b 01       	movw	r4, r22
     68e:	fa 01       	movw	r30, r20
     690:	9c 91       	ld	r25, X
     692:	92 30       	cpi	r25, 0x02	; 2
     694:	08 f4       	brcc	.+2      	; 0x698 <_fpadd_parts+0x1a>
     696:	39 c1       	rjmp	.+626    	; 0x90a <_fpadd_parts+0x28c>
     698:	eb 01       	movw	r28, r22
     69a:	88 81       	ld	r24, Y
     69c:	82 30       	cpi	r24, 0x02	; 2
     69e:	08 f4       	brcc	.+2      	; 0x6a2 <_fpadd_parts+0x24>
     6a0:	33 c1       	rjmp	.+614    	; 0x908 <_fpadd_parts+0x28a>
     6a2:	94 30       	cpi	r25, 0x04	; 4
     6a4:	69 f4       	brne	.+26     	; 0x6c0 <_fpadd_parts+0x42>
     6a6:	84 30       	cpi	r24, 0x04	; 4
     6a8:	09 f0       	breq	.+2      	; 0x6ac <_fpadd_parts+0x2e>
     6aa:	2f c1       	rjmp	.+606    	; 0x90a <_fpadd_parts+0x28c>
     6ac:	11 96       	adiw	r26, 0x01	; 1
     6ae:	9c 91       	ld	r25, X
     6b0:	11 97       	sbiw	r26, 0x01	; 1
     6b2:	89 81       	ldd	r24, Y+1	; 0x01
     6b4:	98 17       	cp	r25, r24
     6b6:	09 f4       	brne	.+2      	; 0x6ba <_fpadd_parts+0x3c>
     6b8:	28 c1       	rjmp	.+592    	; 0x90a <_fpadd_parts+0x28c>
     6ba:	ae e6       	ldi	r26, 0x6E	; 110
     6bc:	b2 e0       	ldi	r27, 0x02	; 2
     6be:	25 c1       	rjmp	.+586    	; 0x90a <_fpadd_parts+0x28c>
     6c0:	84 30       	cpi	r24, 0x04	; 4
     6c2:	09 f4       	brne	.+2      	; 0x6c6 <_fpadd_parts+0x48>
     6c4:	21 c1       	rjmp	.+578    	; 0x908 <_fpadd_parts+0x28a>
     6c6:	82 30       	cpi	r24, 0x02	; 2
     6c8:	a9 f4       	brne	.+42     	; 0x6f4 <_fpadd_parts+0x76>
     6ca:	92 30       	cpi	r25, 0x02	; 2
     6cc:	09 f0       	breq	.+2      	; 0x6d0 <_fpadd_parts+0x52>
     6ce:	1d c1       	rjmp	.+570    	; 0x90a <_fpadd_parts+0x28c>
     6d0:	9a 01       	movw	r18, r20
     6d2:	ad 01       	movw	r20, r26
     6d4:	88 e0       	ldi	r24, 0x08	; 8
     6d6:	ea 01       	movw	r28, r20
     6d8:	09 90       	ld	r0, Y+
     6da:	ae 01       	movw	r20, r28
     6dc:	e9 01       	movw	r28, r18
     6de:	09 92       	st	Y+, r0
     6e0:	9e 01       	movw	r18, r28
     6e2:	81 50       	subi	r24, 0x01	; 1
     6e4:	c1 f7       	brne	.-16     	; 0x6d6 <_fpadd_parts+0x58>
     6e6:	e2 01       	movw	r28, r4
     6e8:	89 81       	ldd	r24, Y+1	; 0x01
     6ea:	11 96       	adiw	r26, 0x01	; 1
     6ec:	9c 91       	ld	r25, X
     6ee:	89 23       	and	r24, r25
     6f0:	81 83       	std	Z+1, r24	; 0x01
     6f2:	08 c1       	rjmp	.+528    	; 0x904 <_fpadd_parts+0x286>
     6f4:	92 30       	cpi	r25, 0x02	; 2
     6f6:	09 f4       	brne	.+2      	; 0x6fa <_fpadd_parts+0x7c>
     6f8:	07 c1       	rjmp	.+526    	; 0x908 <_fpadd_parts+0x28a>
     6fa:	12 96       	adiw	r26, 0x02	; 2
     6fc:	2d 90       	ld	r2, X+
     6fe:	3c 90       	ld	r3, X
     700:	13 97       	sbiw	r26, 0x03	; 3
     702:	eb 01       	movw	r28, r22
     704:	8a 81       	ldd	r24, Y+2	; 0x02
     706:	9b 81       	ldd	r25, Y+3	; 0x03
     708:	14 96       	adiw	r26, 0x04	; 4
     70a:	ad 90       	ld	r10, X+
     70c:	bd 90       	ld	r11, X+
     70e:	cd 90       	ld	r12, X+
     710:	dc 90       	ld	r13, X
     712:	17 97       	sbiw	r26, 0x07	; 7
     714:	ec 80       	ldd	r14, Y+4	; 0x04
     716:	fd 80       	ldd	r15, Y+5	; 0x05
     718:	0e 81       	ldd	r16, Y+6	; 0x06
     71a:	1f 81       	ldd	r17, Y+7	; 0x07
     71c:	91 01       	movw	r18, r2
     71e:	28 1b       	sub	r18, r24
     720:	39 0b       	sbc	r19, r25
     722:	b9 01       	movw	r22, r18
     724:	37 ff       	sbrs	r19, 7
     726:	04 c0       	rjmp	.+8      	; 0x730 <_fpadd_parts+0xb2>
     728:	66 27       	eor	r22, r22
     72a:	77 27       	eor	r23, r23
     72c:	62 1b       	sub	r22, r18
     72e:	73 0b       	sbc	r23, r19
     730:	60 32       	cpi	r22, 0x20	; 32
     732:	71 05       	cpc	r23, r1
     734:	0c f0       	brlt	.+2      	; 0x738 <_fpadd_parts+0xba>
     736:	61 c0       	rjmp	.+194    	; 0x7fa <_fpadd_parts+0x17c>
     738:	12 16       	cp	r1, r18
     73a:	13 06       	cpc	r1, r19
     73c:	6c f5       	brge	.+90     	; 0x798 <_fpadd_parts+0x11a>
     73e:	37 01       	movw	r6, r14
     740:	48 01       	movw	r8, r16
     742:	06 2e       	mov	r0, r22
     744:	04 c0       	rjmp	.+8      	; 0x74e <_fpadd_parts+0xd0>
     746:	96 94       	lsr	r9
     748:	87 94       	ror	r8
     74a:	77 94       	ror	r7
     74c:	67 94       	ror	r6
     74e:	0a 94       	dec	r0
     750:	d2 f7       	brpl	.-12     	; 0x746 <_fpadd_parts+0xc8>
     752:	21 e0       	ldi	r18, 0x01	; 1
     754:	30 e0       	ldi	r19, 0x00	; 0
     756:	40 e0       	ldi	r20, 0x00	; 0
     758:	50 e0       	ldi	r21, 0x00	; 0
     75a:	04 c0       	rjmp	.+8      	; 0x764 <_fpadd_parts+0xe6>
     75c:	22 0f       	add	r18, r18
     75e:	33 1f       	adc	r19, r19
     760:	44 1f       	adc	r20, r20
     762:	55 1f       	adc	r21, r21
     764:	6a 95       	dec	r22
     766:	d2 f7       	brpl	.-12     	; 0x75c <_fpadd_parts+0xde>
     768:	21 50       	subi	r18, 0x01	; 1
     76a:	30 40       	sbci	r19, 0x00	; 0
     76c:	40 40       	sbci	r20, 0x00	; 0
     76e:	50 40       	sbci	r21, 0x00	; 0
     770:	2e 21       	and	r18, r14
     772:	3f 21       	and	r19, r15
     774:	40 23       	and	r20, r16
     776:	51 23       	and	r21, r17
     778:	21 15       	cp	r18, r1
     77a:	31 05       	cpc	r19, r1
     77c:	41 05       	cpc	r20, r1
     77e:	51 05       	cpc	r21, r1
     780:	21 f0       	breq	.+8      	; 0x78a <_fpadd_parts+0x10c>
     782:	21 e0       	ldi	r18, 0x01	; 1
     784:	30 e0       	ldi	r19, 0x00	; 0
     786:	40 e0       	ldi	r20, 0x00	; 0
     788:	50 e0       	ldi	r21, 0x00	; 0
     78a:	79 01       	movw	r14, r18
     78c:	8a 01       	movw	r16, r20
     78e:	e6 28       	or	r14, r6
     790:	f7 28       	or	r15, r7
     792:	08 29       	or	r16, r8
     794:	19 29       	or	r17, r9
     796:	3c c0       	rjmp	.+120    	; 0x810 <_fpadd_parts+0x192>
     798:	23 2b       	or	r18, r19
     79a:	d1 f1       	breq	.+116    	; 0x810 <_fpadd_parts+0x192>
     79c:	26 0e       	add	r2, r22
     79e:	37 1e       	adc	r3, r23
     7a0:	35 01       	movw	r6, r10
     7a2:	46 01       	movw	r8, r12
     7a4:	06 2e       	mov	r0, r22
     7a6:	04 c0       	rjmp	.+8      	; 0x7b0 <_fpadd_parts+0x132>
     7a8:	96 94       	lsr	r9
     7aa:	87 94       	ror	r8
     7ac:	77 94       	ror	r7
     7ae:	67 94       	ror	r6
     7b0:	0a 94       	dec	r0
     7b2:	d2 f7       	brpl	.-12     	; 0x7a8 <_fpadd_parts+0x12a>
     7b4:	21 e0       	ldi	r18, 0x01	; 1
     7b6:	30 e0       	ldi	r19, 0x00	; 0
     7b8:	40 e0       	ldi	r20, 0x00	; 0
     7ba:	50 e0       	ldi	r21, 0x00	; 0
     7bc:	04 c0       	rjmp	.+8      	; 0x7c6 <_fpadd_parts+0x148>
     7be:	22 0f       	add	r18, r18
     7c0:	33 1f       	adc	r19, r19
     7c2:	44 1f       	adc	r20, r20
     7c4:	55 1f       	adc	r21, r21
     7c6:	6a 95       	dec	r22
     7c8:	d2 f7       	brpl	.-12     	; 0x7be <_fpadd_parts+0x140>
     7ca:	21 50       	subi	r18, 0x01	; 1
     7cc:	30 40       	sbci	r19, 0x00	; 0
     7ce:	40 40       	sbci	r20, 0x00	; 0
     7d0:	50 40       	sbci	r21, 0x00	; 0
     7d2:	2a 21       	and	r18, r10
     7d4:	3b 21       	and	r19, r11
     7d6:	4c 21       	and	r20, r12
     7d8:	5d 21       	and	r21, r13
     7da:	21 15       	cp	r18, r1
     7dc:	31 05       	cpc	r19, r1
     7de:	41 05       	cpc	r20, r1
     7e0:	51 05       	cpc	r21, r1
     7e2:	21 f0       	breq	.+8      	; 0x7ec <_fpadd_parts+0x16e>
     7e4:	21 e0       	ldi	r18, 0x01	; 1
     7e6:	30 e0       	ldi	r19, 0x00	; 0
     7e8:	40 e0       	ldi	r20, 0x00	; 0
     7ea:	50 e0       	ldi	r21, 0x00	; 0
     7ec:	59 01       	movw	r10, r18
     7ee:	6a 01       	movw	r12, r20
     7f0:	a6 28       	or	r10, r6
     7f2:	b7 28       	or	r11, r7
     7f4:	c8 28       	or	r12, r8
     7f6:	d9 28       	or	r13, r9
     7f8:	0b c0       	rjmp	.+22     	; 0x810 <_fpadd_parts+0x192>
     7fa:	82 15       	cp	r24, r2
     7fc:	93 05       	cpc	r25, r3
     7fe:	2c f0       	brlt	.+10     	; 0x80a <_fpadd_parts+0x18c>
     800:	1c 01       	movw	r2, r24
     802:	aa 24       	eor	r10, r10
     804:	bb 24       	eor	r11, r11
     806:	65 01       	movw	r12, r10
     808:	03 c0       	rjmp	.+6      	; 0x810 <_fpadd_parts+0x192>
     80a:	ee 24       	eor	r14, r14
     80c:	ff 24       	eor	r15, r15
     80e:	87 01       	movw	r16, r14
     810:	11 96       	adiw	r26, 0x01	; 1
     812:	9c 91       	ld	r25, X
     814:	d2 01       	movw	r26, r4
     816:	11 96       	adiw	r26, 0x01	; 1
     818:	8c 91       	ld	r24, X
     81a:	98 17       	cp	r25, r24
     81c:	09 f4       	brne	.+2      	; 0x820 <_fpadd_parts+0x1a2>
     81e:	45 c0       	rjmp	.+138    	; 0x8aa <_fpadd_parts+0x22c>
     820:	99 23       	and	r25, r25
     822:	39 f0       	breq	.+14     	; 0x832 <_fpadd_parts+0x1b4>
     824:	a8 01       	movw	r20, r16
     826:	97 01       	movw	r18, r14
     828:	2a 19       	sub	r18, r10
     82a:	3b 09       	sbc	r19, r11
     82c:	4c 09       	sbc	r20, r12
     82e:	5d 09       	sbc	r21, r13
     830:	06 c0       	rjmp	.+12     	; 0x83e <_fpadd_parts+0x1c0>
     832:	a6 01       	movw	r20, r12
     834:	95 01       	movw	r18, r10
     836:	2e 19       	sub	r18, r14
     838:	3f 09       	sbc	r19, r15
     83a:	40 0b       	sbc	r20, r16
     83c:	51 0b       	sbc	r21, r17
     83e:	57 fd       	sbrc	r21, 7
     840:	08 c0       	rjmp	.+16     	; 0x852 <_fpadd_parts+0x1d4>
     842:	11 82       	std	Z+1, r1	; 0x01
     844:	33 82       	std	Z+3, r3	; 0x03
     846:	22 82       	std	Z+2, r2	; 0x02
     848:	24 83       	std	Z+4, r18	; 0x04
     84a:	35 83       	std	Z+5, r19	; 0x05
     84c:	46 83       	std	Z+6, r20	; 0x06
     84e:	57 83       	std	Z+7, r21	; 0x07
     850:	1d c0       	rjmp	.+58     	; 0x88c <_fpadd_parts+0x20e>
     852:	81 e0       	ldi	r24, 0x01	; 1
     854:	81 83       	std	Z+1, r24	; 0x01
     856:	33 82       	std	Z+3, r3	; 0x03
     858:	22 82       	std	Z+2, r2	; 0x02
     85a:	88 27       	eor	r24, r24
     85c:	99 27       	eor	r25, r25
     85e:	dc 01       	movw	r26, r24
     860:	82 1b       	sub	r24, r18
     862:	93 0b       	sbc	r25, r19
     864:	a4 0b       	sbc	r26, r20
     866:	b5 0b       	sbc	r27, r21
     868:	84 83       	std	Z+4, r24	; 0x04
     86a:	95 83       	std	Z+5, r25	; 0x05
     86c:	a6 83       	std	Z+6, r26	; 0x06
     86e:	b7 83       	std	Z+7, r27	; 0x07
     870:	0d c0       	rjmp	.+26     	; 0x88c <_fpadd_parts+0x20e>
     872:	22 0f       	add	r18, r18
     874:	33 1f       	adc	r19, r19
     876:	44 1f       	adc	r20, r20
     878:	55 1f       	adc	r21, r21
     87a:	24 83       	std	Z+4, r18	; 0x04
     87c:	35 83       	std	Z+5, r19	; 0x05
     87e:	46 83       	std	Z+6, r20	; 0x06
     880:	57 83       	std	Z+7, r21	; 0x07
     882:	82 81       	ldd	r24, Z+2	; 0x02
     884:	93 81       	ldd	r25, Z+3	; 0x03
     886:	01 97       	sbiw	r24, 0x01	; 1
     888:	93 83       	std	Z+3, r25	; 0x03
     88a:	82 83       	std	Z+2, r24	; 0x02
     88c:	24 81       	ldd	r18, Z+4	; 0x04
     88e:	35 81       	ldd	r19, Z+5	; 0x05
     890:	46 81       	ldd	r20, Z+6	; 0x06
     892:	57 81       	ldd	r21, Z+7	; 0x07
     894:	da 01       	movw	r26, r20
     896:	c9 01       	movw	r24, r18
     898:	01 97       	sbiw	r24, 0x01	; 1
     89a:	a1 09       	sbc	r26, r1
     89c:	b1 09       	sbc	r27, r1
     89e:	8f 5f       	subi	r24, 0xFF	; 255
     8a0:	9f 4f       	sbci	r25, 0xFF	; 255
     8a2:	af 4f       	sbci	r26, 0xFF	; 255
     8a4:	bf 43       	sbci	r27, 0x3F	; 63
     8a6:	28 f3       	brcs	.-54     	; 0x872 <_fpadd_parts+0x1f4>
     8a8:	0b c0       	rjmp	.+22     	; 0x8c0 <_fpadd_parts+0x242>
     8aa:	91 83       	std	Z+1, r25	; 0x01
     8ac:	33 82       	std	Z+3, r3	; 0x03
     8ae:	22 82       	std	Z+2, r2	; 0x02
     8b0:	ea 0c       	add	r14, r10
     8b2:	fb 1c       	adc	r15, r11
     8b4:	0c 1d       	adc	r16, r12
     8b6:	1d 1d       	adc	r17, r13
     8b8:	e4 82       	std	Z+4, r14	; 0x04
     8ba:	f5 82       	std	Z+5, r15	; 0x05
     8bc:	06 83       	std	Z+6, r16	; 0x06
     8be:	17 83       	std	Z+7, r17	; 0x07
     8c0:	83 e0       	ldi	r24, 0x03	; 3
     8c2:	80 83       	st	Z, r24
     8c4:	24 81       	ldd	r18, Z+4	; 0x04
     8c6:	35 81       	ldd	r19, Z+5	; 0x05
     8c8:	46 81       	ldd	r20, Z+6	; 0x06
     8ca:	57 81       	ldd	r21, Z+7	; 0x07
     8cc:	57 ff       	sbrs	r21, 7
     8ce:	1a c0       	rjmp	.+52     	; 0x904 <_fpadd_parts+0x286>
     8d0:	c9 01       	movw	r24, r18
     8d2:	aa 27       	eor	r26, r26
     8d4:	97 fd       	sbrc	r25, 7
     8d6:	a0 95       	com	r26
     8d8:	ba 2f       	mov	r27, r26
     8da:	81 70       	andi	r24, 0x01	; 1
     8dc:	90 70       	andi	r25, 0x00	; 0
     8de:	a0 70       	andi	r26, 0x00	; 0
     8e0:	b0 70       	andi	r27, 0x00	; 0
     8e2:	56 95       	lsr	r21
     8e4:	47 95       	ror	r20
     8e6:	37 95       	ror	r19
     8e8:	27 95       	ror	r18
     8ea:	82 2b       	or	r24, r18
     8ec:	93 2b       	or	r25, r19
     8ee:	a4 2b       	or	r26, r20
     8f0:	b5 2b       	or	r27, r21
     8f2:	84 83       	std	Z+4, r24	; 0x04
     8f4:	95 83       	std	Z+5, r25	; 0x05
     8f6:	a6 83       	std	Z+6, r26	; 0x06
     8f8:	b7 83       	std	Z+7, r27	; 0x07
     8fa:	82 81       	ldd	r24, Z+2	; 0x02
     8fc:	93 81       	ldd	r25, Z+3	; 0x03
     8fe:	01 96       	adiw	r24, 0x01	; 1
     900:	93 83       	std	Z+3, r25	; 0x03
     902:	82 83       	std	Z+2, r24	; 0x02
     904:	df 01       	movw	r26, r30
     906:	01 c0       	rjmp	.+2      	; 0x90a <_fpadd_parts+0x28c>
     908:	d2 01       	movw	r26, r4
     90a:	cd 01       	movw	r24, r26
     90c:	cd b7       	in	r28, 0x3d	; 61
     90e:	de b7       	in	r29, 0x3e	; 62
     910:	e2 e1       	ldi	r30, 0x12	; 18
     912:	0c 94 4e 09 	jmp	0x129c	; 0x129c <__epilogue_restores__>

00000916 <__subsf3>:
     916:	a0 e2       	ldi	r26, 0x20	; 32
     918:	b0 e0       	ldi	r27, 0x00	; 0
     91a:	e1 e9       	ldi	r30, 0x91	; 145
     91c:	f4 e0       	ldi	r31, 0x04	; 4
     91e:	0c 94 3e 09 	jmp	0x127c	; 0x127c <__prologue_saves__+0x18>
     922:	69 83       	std	Y+1, r22	; 0x01
     924:	7a 83       	std	Y+2, r23	; 0x02
     926:	8b 83       	std	Y+3, r24	; 0x03
     928:	9c 83       	std	Y+4, r25	; 0x04
     92a:	2d 83       	std	Y+5, r18	; 0x05
     92c:	3e 83       	std	Y+6, r19	; 0x06
     92e:	4f 83       	std	Y+7, r20	; 0x07
     930:	58 87       	std	Y+8, r21	; 0x08
     932:	e9 e0       	ldi	r30, 0x09	; 9
     934:	ee 2e       	mov	r14, r30
     936:	f1 2c       	mov	r15, r1
     938:	ec 0e       	add	r14, r28
     93a:	fd 1e       	adc	r15, r29
     93c:	ce 01       	movw	r24, r28
     93e:	01 96       	adiw	r24, 0x01	; 1
     940:	b7 01       	movw	r22, r14
     942:	0e 94 65 08 	call	0x10ca	; 0x10ca <__unpack_f>
     946:	8e 01       	movw	r16, r28
     948:	0f 5e       	subi	r16, 0xEF	; 239
     94a:	1f 4f       	sbci	r17, 0xFF	; 255
     94c:	ce 01       	movw	r24, r28
     94e:	05 96       	adiw	r24, 0x05	; 5
     950:	b8 01       	movw	r22, r16
     952:	0e 94 65 08 	call	0x10ca	; 0x10ca <__unpack_f>
     956:	8a 89       	ldd	r24, Y+18	; 0x12
     958:	91 e0       	ldi	r25, 0x01	; 1
     95a:	89 27       	eor	r24, r25
     95c:	8a 8b       	std	Y+18, r24	; 0x12
     95e:	c7 01       	movw	r24, r14
     960:	b8 01       	movw	r22, r16
     962:	ae 01       	movw	r20, r28
     964:	47 5e       	subi	r20, 0xE7	; 231
     966:	5f 4f       	sbci	r21, 0xFF	; 255
     968:	0e 94 3f 03 	call	0x67e	; 0x67e <_fpadd_parts>
     96c:	0e 94 90 07 	call	0xf20	; 0xf20 <__pack_f>
     970:	a0 96       	adiw	r28, 0x20	; 32
     972:	e6 e0       	ldi	r30, 0x06	; 6
     974:	0c 94 5a 09 	jmp	0x12b4	; 0x12b4 <__epilogue_restores__+0x18>

00000978 <__addsf3>:
     978:	a0 e2       	ldi	r26, 0x20	; 32
     97a:	b0 e0       	ldi	r27, 0x00	; 0
     97c:	e2 ec       	ldi	r30, 0xC2	; 194
     97e:	f4 e0       	ldi	r31, 0x04	; 4
     980:	0c 94 3e 09 	jmp	0x127c	; 0x127c <__prologue_saves__+0x18>
     984:	69 83       	std	Y+1, r22	; 0x01
     986:	7a 83       	std	Y+2, r23	; 0x02
     988:	8b 83       	std	Y+3, r24	; 0x03
     98a:	9c 83       	std	Y+4, r25	; 0x04
     98c:	2d 83       	std	Y+5, r18	; 0x05
     98e:	3e 83       	std	Y+6, r19	; 0x06
     990:	4f 83       	std	Y+7, r20	; 0x07
     992:	58 87       	std	Y+8, r21	; 0x08
     994:	f9 e0       	ldi	r31, 0x09	; 9
     996:	ef 2e       	mov	r14, r31
     998:	f1 2c       	mov	r15, r1
     99a:	ec 0e       	add	r14, r28
     99c:	fd 1e       	adc	r15, r29
     99e:	ce 01       	movw	r24, r28
     9a0:	01 96       	adiw	r24, 0x01	; 1
     9a2:	b7 01       	movw	r22, r14
     9a4:	0e 94 65 08 	call	0x10ca	; 0x10ca <__unpack_f>
     9a8:	8e 01       	movw	r16, r28
     9aa:	0f 5e       	subi	r16, 0xEF	; 239
     9ac:	1f 4f       	sbci	r17, 0xFF	; 255
     9ae:	ce 01       	movw	r24, r28
     9b0:	05 96       	adiw	r24, 0x05	; 5
     9b2:	b8 01       	movw	r22, r16
     9b4:	0e 94 65 08 	call	0x10ca	; 0x10ca <__unpack_f>
     9b8:	c7 01       	movw	r24, r14
     9ba:	b8 01       	movw	r22, r16
     9bc:	ae 01       	movw	r20, r28
     9be:	47 5e       	subi	r20, 0xE7	; 231
     9c0:	5f 4f       	sbci	r21, 0xFF	; 255
     9c2:	0e 94 3f 03 	call	0x67e	; 0x67e <_fpadd_parts>
     9c6:	0e 94 90 07 	call	0xf20	; 0xf20 <__pack_f>
     9ca:	a0 96       	adiw	r28, 0x20	; 32
     9cc:	e6 e0       	ldi	r30, 0x06	; 6
     9ce:	0c 94 5a 09 	jmp	0x12b4	; 0x12b4 <__epilogue_restores__+0x18>

000009d2 <__mulsf3>:
     9d2:	a0 e2       	ldi	r26, 0x20	; 32
     9d4:	b0 e0       	ldi	r27, 0x00	; 0
     9d6:	ef ee       	ldi	r30, 0xEF	; 239
     9d8:	f4 e0       	ldi	r31, 0x04	; 4
     9da:	0c 94 32 09 	jmp	0x1264	; 0x1264 <__prologue_saves__>
     9de:	69 83       	std	Y+1, r22	; 0x01
     9e0:	7a 83       	std	Y+2, r23	; 0x02
     9e2:	8b 83       	std	Y+3, r24	; 0x03
     9e4:	9c 83       	std	Y+4, r25	; 0x04
     9e6:	2d 83       	std	Y+5, r18	; 0x05
     9e8:	3e 83       	std	Y+6, r19	; 0x06
     9ea:	4f 83       	std	Y+7, r20	; 0x07
     9ec:	58 87       	std	Y+8, r21	; 0x08
     9ee:	ce 01       	movw	r24, r28
     9f0:	01 96       	adiw	r24, 0x01	; 1
     9f2:	be 01       	movw	r22, r28
     9f4:	67 5f       	subi	r22, 0xF7	; 247
     9f6:	7f 4f       	sbci	r23, 0xFF	; 255
     9f8:	0e 94 65 08 	call	0x10ca	; 0x10ca <__unpack_f>
     9fc:	ce 01       	movw	r24, r28
     9fe:	05 96       	adiw	r24, 0x05	; 5
     a00:	be 01       	movw	r22, r28
     a02:	6f 5e       	subi	r22, 0xEF	; 239
     a04:	7f 4f       	sbci	r23, 0xFF	; 255
     a06:	0e 94 65 08 	call	0x10ca	; 0x10ca <__unpack_f>
     a0a:	99 85       	ldd	r25, Y+9	; 0x09
     a0c:	92 30       	cpi	r25, 0x02	; 2
     a0e:	88 f0       	brcs	.+34     	; 0xa32 <__mulsf3+0x60>
     a10:	89 89       	ldd	r24, Y+17	; 0x11
     a12:	82 30       	cpi	r24, 0x02	; 2
     a14:	c8 f0       	brcs	.+50     	; 0xa48 <__mulsf3+0x76>
     a16:	94 30       	cpi	r25, 0x04	; 4
     a18:	19 f4       	brne	.+6      	; 0xa20 <__mulsf3+0x4e>
     a1a:	82 30       	cpi	r24, 0x02	; 2
     a1c:	51 f4       	brne	.+20     	; 0xa32 <__mulsf3+0x60>
     a1e:	04 c0       	rjmp	.+8      	; 0xa28 <__mulsf3+0x56>
     a20:	84 30       	cpi	r24, 0x04	; 4
     a22:	29 f4       	brne	.+10     	; 0xa2e <__mulsf3+0x5c>
     a24:	92 30       	cpi	r25, 0x02	; 2
     a26:	81 f4       	brne	.+32     	; 0xa48 <__mulsf3+0x76>
     a28:	8e e6       	ldi	r24, 0x6E	; 110
     a2a:	92 e0       	ldi	r25, 0x02	; 2
     a2c:	c6 c0       	rjmp	.+396    	; 0xbba <__mulsf3+0x1e8>
     a2e:	92 30       	cpi	r25, 0x02	; 2
     a30:	49 f4       	brne	.+18     	; 0xa44 <__mulsf3+0x72>
     a32:	20 e0       	ldi	r18, 0x00	; 0
     a34:	9a 85       	ldd	r25, Y+10	; 0x0a
     a36:	8a 89       	ldd	r24, Y+18	; 0x12
     a38:	98 13       	cpse	r25, r24
     a3a:	21 e0       	ldi	r18, 0x01	; 1
     a3c:	2a 87       	std	Y+10, r18	; 0x0a
     a3e:	ce 01       	movw	r24, r28
     a40:	09 96       	adiw	r24, 0x09	; 9
     a42:	bb c0       	rjmp	.+374    	; 0xbba <__mulsf3+0x1e8>
     a44:	82 30       	cpi	r24, 0x02	; 2
     a46:	49 f4       	brne	.+18     	; 0xa5a <__mulsf3+0x88>
     a48:	20 e0       	ldi	r18, 0x00	; 0
     a4a:	9a 85       	ldd	r25, Y+10	; 0x0a
     a4c:	8a 89       	ldd	r24, Y+18	; 0x12
     a4e:	98 13       	cpse	r25, r24
     a50:	21 e0       	ldi	r18, 0x01	; 1
     a52:	2a 8b       	std	Y+18, r18	; 0x12
     a54:	ce 01       	movw	r24, r28
     a56:	41 96       	adiw	r24, 0x11	; 17
     a58:	b0 c0       	rjmp	.+352    	; 0xbba <__mulsf3+0x1e8>
     a5a:	2d 84       	ldd	r2, Y+13	; 0x0d
     a5c:	3e 84       	ldd	r3, Y+14	; 0x0e
     a5e:	4f 84       	ldd	r4, Y+15	; 0x0f
     a60:	58 88       	ldd	r5, Y+16	; 0x10
     a62:	6d 88       	ldd	r6, Y+21	; 0x15
     a64:	7e 88       	ldd	r7, Y+22	; 0x16
     a66:	8f 88       	ldd	r8, Y+23	; 0x17
     a68:	98 8c       	ldd	r9, Y+24	; 0x18
     a6a:	ee 24       	eor	r14, r14
     a6c:	ff 24       	eor	r15, r15
     a6e:	87 01       	movw	r16, r14
     a70:	aa 24       	eor	r10, r10
     a72:	bb 24       	eor	r11, r11
     a74:	65 01       	movw	r12, r10
     a76:	40 e0       	ldi	r20, 0x00	; 0
     a78:	50 e0       	ldi	r21, 0x00	; 0
     a7a:	60 e0       	ldi	r22, 0x00	; 0
     a7c:	70 e0       	ldi	r23, 0x00	; 0
     a7e:	e0 e0       	ldi	r30, 0x00	; 0
     a80:	f0 e0       	ldi	r31, 0x00	; 0
     a82:	c1 01       	movw	r24, r2
     a84:	81 70       	andi	r24, 0x01	; 1
     a86:	90 70       	andi	r25, 0x00	; 0
     a88:	89 2b       	or	r24, r25
     a8a:	e9 f0       	breq	.+58     	; 0xac6 <__mulsf3+0xf4>
     a8c:	e6 0c       	add	r14, r6
     a8e:	f7 1c       	adc	r15, r7
     a90:	08 1d       	adc	r16, r8
     a92:	19 1d       	adc	r17, r9
     a94:	9a 01       	movw	r18, r20
     a96:	ab 01       	movw	r20, r22
     a98:	2a 0d       	add	r18, r10
     a9a:	3b 1d       	adc	r19, r11
     a9c:	4c 1d       	adc	r20, r12
     a9e:	5d 1d       	adc	r21, r13
     aa0:	80 e0       	ldi	r24, 0x00	; 0
     aa2:	90 e0       	ldi	r25, 0x00	; 0
     aa4:	a0 e0       	ldi	r26, 0x00	; 0
     aa6:	b0 e0       	ldi	r27, 0x00	; 0
     aa8:	e6 14       	cp	r14, r6
     aaa:	f7 04       	cpc	r15, r7
     aac:	08 05       	cpc	r16, r8
     aae:	19 05       	cpc	r17, r9
     ab0:	20 f4       	brcc	.+8      	; 0xaba <__mulsf3+0xe8>
     ab2:	81 e0       	ldi	r24, 0x01	; 1
     ab4:	90 e0       	ldi	r25, 0x00	; 0
     ab6:	a0 e0       	ldi	r26, 0x00	; 0
     ab8:	b0 e0       	ldi	r27, 0x00	; 0
     aba:	ba 01       	movw	r22, r20
     abc:	a9 01       	movw	r20, r18
     abe:	48 0f       	add	r20, r24
     ac0:	59 1f       	adc	r21, r25
     ac2:	6a 1f       	adc	r22, r26
     ac4:	7b 1f       	adc	r23, r27
     ac6:	aa 0c       	add	r10, r10
     ac8:	bb 1c       	adc	r11, r11
     aca:	cc 1c       	adc	r12, r12
     acc:	dd 1c       	adc	r13, r13
     ace:	97 fe       	sbrs	r9, 7
     ad0:	08 c0       	rjmp	.+16     	; 0xae2 <__mulsf3+0x110>
     ad2:	81 e0       	ldi	r24, 0x01	; 1
     ad4:	90 e0       	ldi	r25, 0x00	; 0
     ad6:	a0 e0       	ldi	r26, 0x00	; 0
     ad8:	b0 e0       	ldi	r27, 0x00	; 0
     ada:	a8 2a       	or	r10, r24
     adc:	b9 2a       	or	r11, r25
     ade:	ca 2a       	or	r12, r26
     ae0:	db 2a       	or	r13, r27
     ae2:	31 96       	adiw	r30, 0x01	; 1
     ae4:	e0 32       	cpi	r30, 0x20	; 32
     ae6:	f1 05       	cpc	r31, r1
     ae8:	49 f0       	breq	.+18     	; 0xafc <__mulsf3+0x12a>
     aea:	66 0c       	add	r6, r6
     aec:	77 1c       	adc	r7, r7
     aee:	88 1c       	adc	r8, r8
     af0:	99 1c       	adc	r9, r9
     af2:	56 94       	lsr	r5
     af4:	47 94       	ror	r4
     af6:	37 94       	ror	r3
     af8:	27 94       	ror	r2
     afa:	c3 cf       	rjmp	.-122    	; 0xa82 <__mulsf3+0xb0>
     afc:	fa 85       	ldd	r31, Y+10	; 0x0a
     afe:	ea 89       	ldd	r30, Y+18	; 0x12
     b00:	2b 89       	ldd	r18, Y+19	; 0x13
     b02:	3c 89       	ldd	r19, Y+20	; 0x14
     b04:	8b 85       	ldd	r24, Y+11	; 0x0b
     b06:	9c 85       	ldd	r25, Y+12	; 0x0c
     b08:	28 0f       	add	r18, r24
     b0a:	39 1f       	adc	r19, r25
     b0c:	2e 5f       	subi	r18, 0xFE	; 254
     b0e:	3f 4f       	sbci	r19, 0xFF	; 255
     b10:	17 c0       	rjmp	.+46     	; 0xb40 <__mulsf3+0x16e>
     b12:	ca 01       	movw	r24, r20
     b14:	81 70       	andi	r24, 0x01	; 1
     b16:	90 70       	andi	r25, 0x00	; 0
     b18:	89 2b       	or	r24, r25
     b1a:	61 f0       	breq	.+24     	; 0xb34 <__mulsf3+0x162>
     b1c:	16 95       	lsr	r17
     b1e:	07 95       	ror	r16
     b20:	f7 94       	ror	r15
     b22:	e7 94       	ror	r14
     b24:	80 e0       	ldi	r24, 0x00	; 0
     b26:	90 e0       	ldi	r25, 0x00	; 0
     b28:	a0 e0       	ldi	r26, 0x00	; 0
     b2a:	b0 e8       	ldi	r27, 0x80	; 128
     b2c:	e8 2a       	or	r14, r24
     b2e:	f9 2a       	or	r15, r25
     b30:	0a 2b       	or	r16, r26
     b32:	1b 2b       	or	r17, r27
     b34:	76 95       	lsr	r23
     b36:	67 95       	ror	r22
     b38:	57 95       	ror	r21
     b3a:	47 95       	ror	r20
     b3c:	2f 5f       	subi	r18, 0xFF	; 255
     b3e:	3f 4f       	sbci	r19, 0xFF	; 255
     b40:	77 fd       	sbrc	r23, 7
     b42:	e7 cf       	rjmp	.-50     	; 0xb12 <__mulsf3+0x140>
     b44:	0c c0       	rjmp	.+24     	; 0xb5e <__mulsf3+0x18c>
     b46:	44 0f       	add	r20, r20
     b48:	55 1f       	adc	r21, r21
     b4a:	66 1f       	adc	r22, r22
     b4c:	77 1f       	adc	r23, r23
     b4e:	17 fd       	sbrc	r17, 7
     b50:	41 60       	ori	r20, 0x01	; 1
     b52:	ee 0c       	add	r14, r14
     b54:	ff 1c       	adc	r15, r15
     b56:	00 1f       	adc	r16, r16
     b58:	11 1f       	adc	r17, r17
     b5a:	21 50       	subi	r18, 0x01	; 1
     b5c:	30 40       	sbci	r19, 0x00	; 0
     b5e:	40 30       	cpi	r20, 0x00	; 0
     b60:	90 e0       	ldi	r25, 0x00	; 0
     b62:	59 07       	cpc	r21, r25
     b64:	90 e0       	ldi	r25, 0x00	; 0
     b66:	69 07       	cpc	r22, r25
     b68:	90 e4       	ldi	r25, 0x40	; 64
     b6a:	79 07       	cpc	r23, r25
     b6c:	60 f3       	brcs	.-40     	; 0xb46 <__mulsf3+0x174>
     b6e:	2b 8f       	std	Y+27, r18	; 0x1b
     b70:	3c 8f       	std	Y+28, r19	; 0x1c
     b72:	db 01       	movw	r26, r22
     b74:	ca 01       	movw	r24, r20
     b76:	8f 77       	andi	r24, 0x7F	; 127
     b78:	90 70       	andi	r25, 0x00	; 0
     b7a:	a0 70       	andi	r26, 0x00	; 0
     b7c:	b0 70       	andi	r27, 0x00	; 0
     b7e:	80 34       	cpi	r24, 0x40	; 64
     b80:	91 05       	cpc	r25, r1
     b82:	a1 05       	cpc	r26, r1
     b84:	b1 05       	cpc	r27, r1
     b86:	61 f4       	brne	.+24     	; 0xba0 <__mulsf3+0x1ce>
     b88:	47 fd       	sbrc	r20, 7
     b8a:	0a c0       	rjmp	.+20     	; 0xba0 <__mulsf3+0x1ce>
     b8c:	e1 14       	cp	r14, r1
     b8e:	f1 04       	cpc	r15, r1
     b90:	01 05       	cpc	r16, r1
     b92:	11 05       	cpc	r17, r1
     b94:	29 f0       	breq	.+10     	; 0xba0 <__mulsf3+0x1ce>
     b96:	40 5c       	subi	r20, 0xC0	; 192
     b98:	5f 4f       	sbci	r21, 0xFF	; 255
     b9a:	6f 4f       	sbci	r22, 0xFF	; 255
     b9c:	7f 4f       	sbci	r23, 0xFF	; 255
     b9e:	40 78       	andi	r20, 0x80	; 128
     ba0:	1a 8e       	std	Y+26, r1	; 0x1a
     ba2:	fe 17       	cp	r31, r30
     ba4:	11 f0       	breq	.+4      	; 0xbaa <__mulsf3+0x1d8>
     ba6:	81 e0       	ldi	r24, 0x01	; 1
     ba8:	8a 8f       	std	Y+26, r24	; 0x1a
     baa:	4d 8f       	std	Y+29, r20	; 0x1d
     bac:	5e 8f       	std	Y+30, r21	; 0x1e
     bae:	6f 8f       	std	Y+31, r22	; 0x1f
     bb0:	78 a3       	std	Y+32, r23	; 0x20
     bb2:	83 e0       	ldi	r24, 0x03	; 3
     bb4:	89 8f       	std	Y+25, r24	; 0x19
     bb6:	ce 01       	movw	r24, r28
     bb8:	49 96       	adiw	r24, 0x19	; 25
     bba:	0e 94 90 07 	call	0xf20	; 0xf20 <__pack_f>
     bbe:	a0 96       	adiw	r28, 0x20	; 32
     bc0:	e2 e1       	ldi	r30, 0x12	; 18
     bc2:	0c 94 4e 09 	jmp	0x129c	; 0x129c <__epilogue_restores__>

00000bc6 <__divsf3>:
     bc6:	a8 e1       	ldi	r26, 0x18	; 24
     bc8:	b0 e0       	ldi	r27, 0x00	; 0
     bca:	e9 ee       	ldi	r30, 0xE9	; 233
     bcc:	f5 e0       	ldi	r31, 0x05	; 5
     bce:	0c 94 3a 09 	jmp	0x1274	; 0x1274 <__prologue_saves__+0x10>
     bd2:	69 83       	std	Y+1, r22	; 0x01
     bd4:	7a 83       	std	Y+2, r23	; 0x02
     bd6:	8b 83       	std	Y+3, r24	; 0x03
     bd8:	9c 83       	std	Y+4, r25	; 0x04
     bda:	2d 83       	std	Y+5, r18	; 0x05
     bdc:	3e 83       	std	Y+6, r19	; 0x06
     bde:	4f 83       	std	Y+7, r20	; 0x07
     be0:	58 87       	std	Y+8, r21	; 0x08
     be2:	b9 e0       	ldi	r27, 0x09	; 9
     be4:	eb 2e       	mov	r14, r27
     be6:	f1 2c       	mov	r15, r1
     be8:	ec 0e       	add	r14, r28
     bea:	fd 1e       	adc	r15, r29
     bec:	ce 01       	movw	r24, r28
     bee:	01 96       	adiw	r24, 0x01	; 1
     bf0:	b7 01       	movw	r22, r14
     bf2:	0e 94 65 08 	call	0x10ca	; 0x10ca <__unpack_f>
     bf6:	8e 01       	movw	r16, r28
     bf8:	0f 5e       	subi	r16, 0xEF	; 239
     bfa:	1f 4f       	sbci	r17, 0xFF	; 255
     bfc:	ce 01       	movw	r24, r28
     bfe:	05 96       	adiw	r24, 0x05	; 5
     c00:	b8 01       	movw	r22, r16
     c02:	0e 94 65 08 	call	0x10ca	; 0x10ca <__unpack_f>
     c06:	29 85       	ldd	r18, Y+9	; 0x09
     c08:	22 30       	cpi	r18, 0x02	; 2
     c0a:	08 f4       	brcc	.+2      	; 0xc0e <__divsf3+0x48>
     c0c:	7e c0       	rjmp	.+252    	; 0xd0a <__divsf3+0x144>
     c0e:	39 89       	ldd	r19, Y+17	; 0x11
     c10:	32 30       	cpi	r19, 0x02	; 2
     c12:	10 f4       	brcc	.+4      	; 0xc18 <__divsf3+0x52>
     c14:	b8 01       	movw	r22, r16
     c16:	7c c0       	rjmp	.+248    	; 0xd10 <__divsf3+0x14a>
     c18:	8a 85       	ldd	r24, Y+10	; 0x0a
     c1a:	9a 89       	ldd	r25, Y+18	; 0x12
     c1c:	89 27       	eor	r24, r25
     c1e:	8a 87       	std	Y+10, r24	; 0x0a
     c20:	24 30       	cpi	r18, 0x04	; 4
     c22:	11 f0       	breq	.+4      	; 0xc28 <__divsf3+0x62>
     c24:	22 30       	cpi	r18, 0x02	; 2
     c26:	31 f4       	brne	.+12     	; 0xc34 <__divsf3+0x6e>
     c28:	23 17       	cp	r18, r19
     c2a:	09 f0       	breq	.+2      	; 0xc2e <__divsf3+0x68>
     c2c:	6e c0       	rjmp	.+220    	; 0xd0a <__divsf3+0x144>
     c2e:	6e e6       	ldi	r22, 0x6E	; 110
     c30:	72 e0       	ldi	r23, 0x02	; 2
     c32:	6e c0       	rjmp	.+220    	; 0xd10 <__divsf3+0x14a>
     c34:	34 30       	cpi	r19, 0x04	; 4
     c36:	39 f4       	brne	.+14     	; 0xc46 <__divsf3+0x80>
     c38:	1d 86       	std	Y+13, r1	; 0x0d
     c3a:	1e 86       	std	Y+14, r1	; 0x0e
     c3c:	1f 86       	std	Y+15, r1	; 0x0f
     c3e:	18 8a       	std	Y+16, r1	; 0x10
     c40:	1c 86       	std	Y+12, r1	; 0x0c
     c42:	1b 86       	std	Y+11, r1	; 0x0b
     c44:	04 c0       	rjmp	.+8      	; 0xc4e <__divsf3+0x88>
     c46:	32 30       	cpi	r19, 0x02	; 2
     c48:	21 f4       	brne	.+8      	; 0xc52 <__divsf3+0x8c>
     c4a:	84 e0       	ldi	r24, 0x04	; 4
     c4c:	89 87       	std	Y+9, r24	; 0x09
     c4e:	b7 01       	movw	r22, r14
     c50:	5f c0       	rjmp	.+190    	; 0xd10 <__divsf3+0x14a>
     c52:	2b 85       	ldd	r18, Y+11	; 0x0b
     c54:	3c 85       	ldd	r19, Y+12	; 0x0c
     c56:	8b 89       	ldd	r24, Y+19	; 0x13
     c58:	9c 89       	ldd	r25, Y+20	; 0x14
     c5a:	28 1b       	sub	r18, r24
     c5c:	39 0b       	sbc	r19, r25
     c5e:	3c 87       	std	Y+12, r19	; 0x0c
     c60:	2b 87       	std	Y+11, r18	; 0x0b
     c62:	ed 84       	ldd	r14, Y+13	; 0x0d
     c64:	fe 84       	ldd	r15, Y+14	; 0x0e
     c66:	0f 85       	ldd	r16, Y+15	; 0x0f
     c68:	18 89       	ldd	r17, Y+16	; 0x10
     c6a:	ad 88       	ldd	r10, Y+21	; 0x15
     c6c:	be 88       	ldd	r11, Y+22	; 0x16
     c6e:	cf 88       	ldd	r12, Y+23	; 0x17
     c70:	d8 8c       	ldd	r13, Y+24	; 0x18
     c72:	ea 14       	cp	r14, r10
     c74:	fb 04       	cpc	r15, r11
     c76:	0c 05       	cpc	r16, r12
     c78:	1d 05       	cpc	r17, r13
     c7a:	40 f4       	brcc	.+16     	; 0xc8c <__divsf3+0xc6>
     c7c:	ee 0c       	add	r14, r14
     c7e:	ff 1c       	adc	r15, r15
     c80:	00 1f       	adc	r16, r16
     c82:	11 1f       	adc	r17, r17
     c84:	21 50       	subi	r18, 0x01	; 1
     c86:	30 40       	sbci	r19, 0x00	; 0
     c88:	3c 87       	std	Y+12, r19	; 0x0c
     c8a:	2b 87       	std	Y+11, r18	; 0x0b
     c8c:	20 e0       	ldi	r18, 0x00	; 0
     c8e:	30 e0       	ldi	r19, 0x00	; 0
     c90:	40 e0       	ldi	r20, 0x00	; 0
     c92:	50 e0       	ldi	r21, 0x00	; 0
     c94:	80 e0       	ldi	r24, 0x00	; 0
     c96:	90 e0       	ldi	r25, 0x00	; 0
     c98:	a0 e0       	ldi	r26, 0x00	; 0
     c9a:	b0 e4       	ldi	r27, 0x40	; 64
     c9c:	60 e0       	ldi	r22, 0x00	; 0
     c9e:	70 e0       	ldi	r23, 0x00	; 0
     ca0:	ea 14       	cp	r14, r10
     ca2:	fb 04       	cpc	r15, r11
     ca4:	0c 05       	cpc	r16, r12
     ca6:	1d 05       	cpc	r17, r13
     ca8:	40 f0       	brcs	.+16     	; 0xcba <__divsf3+0xf4>
     caa:	28 2b       	or	r18, r24
     cac:	39 2b       	or	r19, r25
     cae:	4a 2b       	or	r20, r26
     cb0:	5b 2b       	or	r21, r27
     cb2:	ea 18       	sub	r14, r10
     cb4:	fb 08       	sbc	r15, r11
     cb6:	0c 09       	sbc	r16, r12
     cb8:	1d 09       	sbc	r17, r13
     cba:	b6 95       	lsr	r27
     cbc:	a7 95       	ror	r26
     cbe:	97 95       	ror	r25
     cc0:	87 95       	ror	r24
     cc2:	ee 0c       	add	r14, r14
     cc4:	ff 1c       	adc	r15, r15
     cc6:	00 1f       	adc	r16, r16
     cc8:	11 1f       	adc	r17, r17
     cca:	6f 5f       	subi	r22, 0xFF	; 255
     ccc:	7f 4f       	sbci	r23, 0xFF	; 255
     cce:	6f 31       	cpi	r22, 0x1F	; 31
     cd0:	71 05       	cpc	r23, r1
     cd2:	31 f7       	brne	.-52     	; 0xca0 <__divsf3+0xda>
     cd4:	da 01       	movw	r26, r20
     cd6:	c9 01       	movw	r24, r18
     cd8:	8f 77       	andi	r24, 0x7F	; 127
     cda:	90 70       	andi	r25, 0x00	; 0
     cdc:	a0 70       	andi	r26, 0x00	; 0
     cde:	b0 70       	andi	r27, 0x00	; 0
     ce0:	80 34       	cpi	r24, 0x40	; 64
     ce2:	91 05       	cpc	r25, r1
     ce4:	a1 05       	cpc	r26, r1
     ce6:	b1 05       	cpc	r27, r1
     ce8:	61 f4       	brne	.+24     	; 0xd02 <__divsf3+0x13c>
     cea:	27 fd       	sbrc	r18, 7
     cec:	0a c0       	rjmp	.+20     	; 0xd02 <__divsf3+0x13c>
     cee:	e1 14       	cp	r14, r1
     cf0:	f1 04       	cpc	r15, r1
     cf2:	01 05       	cpc	r16, r1
     cf4:	11 05       	cpc	r17, r1
     cf6:	29 f0       	breq	.+10     	; 0xd02 <__divsf3+0x13c>
     cf8:	20 5c       	subi	r18, 0xC0	; 192
     cfa:	3f 4f       	sbci	r19, 0xFF	; 255
     cfc:	4f 4f       	sbci	r20, 0xFF	; 255
     cfe:	5f 4f       	sbci	r21, 0xFF	; 255
     d00:	20 78       	andi	r18, 0x80	; 128
     d02:	2d 87       	std	Y+13, r18	; 0x0d
     d04:	3e 87       	std	Y+14, r19	; 0x0e
     d06:	4f 87       	std	Y+15, r20	; 0x0f
     d08:	58 8b       	std	Y+16, r21	; 0x10
     d0a:	be 01       	movw	r22, r28
     d0c:	67 5f       	subi	r22, 0xF7	; 247
     d0e:	7f 4f       	sbci	r23, 0xFF	; 255
     d10:	cb 01       	movw	r24, r22
     d12:	0e 94 90 07 	call	0xf20	; 0xf20 <__pack_f>
     d16:	68 96       	adiw	r28, 0x18	; 24
     d18:	ea e0       	ldi	r30, 0x0A	; 10
     d1a:	0c 94 56 09 	jmp	0x12ac	; 0x12ac <__epilogue_restores__+0x10>

00000d1e <__floatsisf>:
     d1e:	a8 e0       	ldi	r26, 0x08	; 8
     d20:	b0 e0       	ldi	r27, 0x00	; 0
     d22:	e5 e9       	ldi	r30, 0x95	; 149
     d24:	f6 e0       	ldi	r31, 0x06	; 6
     d26:	0c 94 3b 09 	jmp	0x1276	; 0x1276 <__prologue_saves__+0x12>
     d2a:	9b 01       	movw	r18, r22
     d2c:	ac 01       	movw	r20, r24
     d2e:	83 e0       	ldi	r24, 0x03	; 3
     d30:	89 83       	std	Y+1, r24	; 0x01
     d32:	da 01       	movw	r26, r20
     d34:	c9 01       	movw	r24, r18
     d36:	88 27       	eor	r24, r24
     d38:	b7 fd       	sbrc	r27, 7
     d3a:	83 95       	inc	r24
     d3c:	99 27       	eor	r25, r25
     d3e:	aa 27       	eor	r26, r26
     d40:	bb 27       	eor	r27, r27
     d42:	b8 2e       	mov	r11, r24
     d44:	21 15       	cp	r18, r1
     d46:	31 05       	cpc	r19, r1
     d48:	41 05       	cpc	r20, r1
     d4a:	51 05       	cpc	r21, r1
     d4c:	19 f4       	brne	.+6      	; 0xd54 <__floatsisf+0x36>
     d4e:	82 e0       	ldi	r24, 0x02	; 2
     d50:	89 83       	std	Y+1, r24	; 0x01
     d52:	3a c0       	rjmp	.+116    	; 0xdc8 <__floatsisf+0xaa>
     d54:	88 23       	and	r24, r24
     d56:	a9 f0       	breq	.+42     	; 0xd82 <__floatsisf+0x64>
     d58:	20 30       	cpi	r18, 0x00	; 0
     d5a:	80 e0       	ldi	r24, 0x00	; 0
     d5c:	38 07       	cpc	r19, r24
     d5e:	80 e0       	ldi	r24, 0x00	; 0
     d60:	48 07       	cpc	r20, r24
     d62:	80 e8       	ldi	r24, 0x80	; 128
     d64:	58 07       	cpc	r21, r24
     d66:	29 f4       	brne	.+10     	; 0xd72 <__floatsisf+0x54>
     d68:	60 e0       	ldi	r22, 0x00	; 0
     d6a:	70 e0       	ldi	r23, 0x00	; 0
     d6c:	80 e0       	ldi	r24, 0x00	; 0
     d6e:	9f ec       	ldi	r25, 0xCF	; 207
     d70:	30 c0       	rjmp	.+96     	; 0xdd2 <__floatsisf+0xb4>
     d72:	ee 24       	eor	r14, r14
     d74:	ff 24       	eor	r15, r15
     d76:	87 01       	movw	r16, r14
     d78:	e2 1a       	sub	r14, r18
     d7a:	f3 0a       	sbc	r15, r19
     d7c:	04 0b       	sbc	r16, r20
     d7e:	15 0b       	sbc	r17, r21
     d80:	02 c0       	rjmp	.+4      	; 0xd86 <__floatsisf+0x68>
     d82:	79 01       	movw	r14, r18
     d84:	8a 01       	movw	r16, r20
     d86:	8e e1       	ldi	r24, 0x1E	; 30
     d88:	c8 2e       	mov	r12, r24
     d8a:	d1 2c       	mov	r13, r1
     d8c:	dc 82       	std	Y+4, r13	; 0x04
     d8e:	cb 82       	std	Y+3, r12	; 0x03
     d90:	ed 82       	std	Y+5, r14	; 0x05
     d92:	fe 82       	std	Y+6, r15	; 0x06
     d94:	0f 83       	std	Y+7, r16	; 0x07
     d96:	18 87       	std	Y+8, r17	; 0x08
     d98:	c8 01       	movw	r24, r16
     d9a:	b7 01       	movw	r22, r14
     d9c:	0e 94 41 07 	call	0xe82	; 0xe82 <__clzsi2>
     da0:	01 97       	sbiw	r24, 0x01	; 1
     da2:	18 16       	cp	r1, r24
     da4:	19 06       	cpc	r1, r25
     da6:	84 f4       	brge	.+32     	; 0xdc8 <__floatsisf+0xaa>
     da8:	08 2e       	mov	r0, r24
     daa:	04 c0       	rjmp	.+8      	; 0xdb4 <__floatsisf+0x96>
     dac:	ee 0c       	add	r14, r14
     dae:	ff 1c       	adc	r15, r15
     db0:	00 1f       	adc	r16, r16
     db2:	11 1f       	adc	r17, r17
     db4:	0a 94       	dec	r0
     db6:	d2 f7       	brpl	.-12     	; 0xdac <__floatsisf+0x8e>
     db8:	ed 82       	std	Y+5, r14	; 0x05
     dba:	fe 82       	std	Y+6, r15	; 0x06
     dbc:	0f 83       	std	Y+7, r16	; 0x07
     dbe:	18 87       	std	Y+8, r17	; 0x08
     dc0:	c8 1a       	sub	r12, r24
     dc2:	d9 0a       	sbc	r13, r25
     dc4:	dc 82       	std	Y+4, r13	; 0x04
     dc6:	cb 82       	std	Y+3, r12	; 0x03
     dc8:	ba 82       	std	Y+2, r11	; 0x02
     dca:	ce 01       	movw	r24, r28
     dcc:	01 96       	adiw	r24, 0x01	; 1
     dce:	0e 94 90 07 	call	0xf20	; 0xf20 <__pack_f>
     dd2:	28 96       	adiw	r28, 0x08	; 8
     dd4:	e9 e0       	ldi	r30, 0x09	; 9
     dd6:	0c 94 57 09 	jmp	0x12ae	; 0x12ae <__epilogue_restores__+0x12>

00000dda <__fixsfsi>:
     dda:	ac e0       	ldi	r26, 0x0C	; 12
     ddc:	b0 e0       	ldi	r27, 0x00	; 0
     dde:	e3 ef       	ldi	r30, 0xF3	; 243
     de0:	f6 e0       	ldi	r31, 0x06	; 6
     de2:	0c 94 42 09 	jmp	0x1284	; 0x1284 <__prologue_saves__+0x20>
     de6:	69 83       	std	Y+1, r22	; 0x01
     de8:	7a 83       	std	Y+2, r23	; 0x02
     dea:	8b 83       	std	Y+3, r24	; 0x03
     dec:	9c 83       	std	Y+4, r25	; 0x04
     dee:	ce 01       	movw	r24, r28
     df0:	01 96       	adiw	r24, 0x01	; 1
     df2:	be 01       	movw	r22, r28
     df4:	6b 5f       	subi	r22, 0xFB	; 251
     df6:	7f 4f       	sbci	r23, 0xFF	; 255
     df8:	0e 94 65 08 	call	0x10ca	; 0x10ca <__unpack_f>
     dfc:	8d 81       	ldd	r24, Y+5	; 0x05
     dfe:	82 30       	cpi	r24, 0x02	; 2
     e00:	61 f1       	breq	.+88     	; 0xe5a <__fixsfsi+0x80>
     e02:	82 30       	cpi	r24, 0x02	; 2
     e04:	50 f1       	brcs	.+84     	; 0xe5a <__fixsfsi+0x80>
     e06:	84 30       	cpi	r24, 0x04	; 4
     e08:	21 f4       	brne	.+8      	; 0xe12 <__fixsfsi+0x38>
     e0a:	8e 81       	ldd	r24, Y+6	; 0x06
     e0c:	88 23       	and	r24, r24
     e0e:	51 f1       	breq	.+84     	; 0xe64 <__fixsfsi+0x8a>
     e10:	2e c0       	rjmp	.+92     	; 0xe6e <__fixsfsi+0x94>
     e12:	2f 81       	ldd	r18, Y+7	; 0x07
     e14:	38 85       	ldd	r19, Y+8	; 0x08
     e16:	37 fd       	sbrc	r19, 7
     e18:	20 c0       	rjmp	.+64     	; 0xe5a <__fixsfsi+0x80>
     e1a:	6e 81       	ldd	r22, Y+6	; 0x06
     e1c:	2f 31       	cpi	r18, 0x1F	; 31
     e1e:	31 05       	cpc	r19, r1
     e20:	1c f0       	brlt	.+6      	; 0xe28 <__fixsfsi+0x4e>
     e22:	66 23       	and	r22, r22
     e24:	f9 f0       	breq	.+62     	; 0xe64 <__fixsfsi+0x8a>
     e26:	23 c0       	rjmp	.+70     	; 0xe6e <__fixsfsi+0x94>
     e28:	8e e1       	ldi	r24, 0x1E	; 30
     e2a:	90 e0       	ldi	r25, 0x00	; 0
     e2c:	82 1b       	sub	r24, r18
     e2e:	93 0b       	sbc	r25, r19
     e30:	29 85       	ldd	r18, Y+9	; 0x09
     e32:	3a 85       	ldd	r19, Y+10	; 0x0a
     e34:	4b 85       	ldd	r20, Y+11	; 0x0b
     e36:	5c 85       	ldd	r21, Y+12	; 0x0c
     e38:	04 c0       	rjmp	.+8      	; 0xe42 <__fixsfsi+0x68>
     e3a:	56 95       	lsr	r21
     e3c:	47 95       	ror	r20
     e3e:	37 95       	ror	r19
     e40:	27 95       	ror	r18
     e42:	8a 95       	dec	r24
     e44:	d2 f7       	brpl	.-12     	; 0xe3a <__fixsfsi+0x60>
     e46:	66 23       	and	r22, r22
     e48:	b1 f0       	breq	.+44     	; 0xe76 <__fixsfsi+0x9c>
     e4a:	50 95       	com	r21
     e4c:	40 95       	com	r20
     e4e:	30 95       	com	r19
     e50:	21 95       	neg	r18
     e52:	3f 4f       	sbci	r19, 0xFF	; 255
     e54:	4f 4f       	sbci	r20, 0xFF	; 255
     e56:	5f 4f       	sbci	r21, 0xFF	; 255
     e58:	0e c0       	rjmp	.+28     	; 0xe76 <__fixsfsi+0x9c>
     e5a:	20 e0       	ldi	r18, 0x00	; 0
     e5c:	30 e0       	ldi	r19, 0x00	; 0
     e5e:	40 e0       	ldi	r20, 0x00	; 0
     e60:	50 e0       	ldi	r21, 0x00	; 0
     e62:	09 c0       	rjmp	.+18     	; 0xe76 <__fixsfsi+0x9c>
     e64:	2f ef       	ldi	r18, 0xFF	; 255
     e66:	3f ef       	ldi	r19, 0xFF	; 255
     e68:	4f ef       	ldi	r20, 0xFF	; 255
     e6a:	5f e7       	ldi	r21, 0x7F	; 127
     e6c:	04 c0       	rjmp	.+8      	; 0xe76 <__fixsfsi+0x9c>
     e6e:	20 e0       	ldi	r18, 0x00	; 0
     e70:	30 e0       	ldi	r19, 0x00	; 0
     e72:	40 e0       	ldi	r20, 0x00	; 0
     e74:	50 e8       	ldi	r21, 0x80	; 128
     e76:	b9 01       	movw	r22, r18
     e78:	ca 01       	movw	r24, r20
     e7a:	2c 96       	adiw	r28, 0x0c	; 12
     e7c:	e2 e0       	ldi	r30, 0x02	; 2
     e7e:	0c 94 5e 09 	jmp	0x12bc	; 0x12bc <__epilogue_restores__+0x20>

00000e82 <__clzsi2>:
     e82:	ef 92       	push	r14
     e84:	ff 92       	push	r15
     e86:	0f 93       	push	r16
     e88:	1f 93       	push	r17
     e8a:	7b 01       	movw	r14, r22
     e8c:	8c 01       	movw	r16, r24
     e8e:	80 e0       	ldi	r24, 0x00	; 0
     e90:	e8 16       	cp	r14, r24
     e92:	80 e0       	ldi	r24, 0x00	; 0
     e94:	f8 06       	cpc	r15, r24
     e96:	81 e0       	ldi	r24, 0x01	; 1
     e98:	08 07       	cpc	r16, r24
     e9a:	80 e0       	ldi	r24, 0x00	; 0
     e9c:	18 07       	cpc	r17, r24
     e9e:	88 f4       	brcc	.+34     	; 0xec2 <__clzsi2+0x40>
     ea0:	8f ef       	ldi	r24, 0xFF	; 255
     ea2:	e8 16       	cp	r14, r24
     ea4:	f1 04       	cpc	r15, r1
     ea6:	01 05       	cpc	r16, r1
     ea8:	11 05       	cpc	r17, r1
     eaa:	31 f0       	breq	.+12     	; 0xeb8 <__clzsi2+0x36>
     eac:	28 f0       	brcs	.+10     	; 0xeb8 <__clzsi2+0x36>
     eae:	88 e0       	ldi	r24, 0x08	; 8
     eb0:	90 e0       	ldi	r25, 0x00	; 0
     eb2:	a0 e0       	ldi	r26, 0x00	; 0
     eb4:	b0 e0       	ldi	r27, 0x00	; 0
     eb6:	17 c0       	rjmp	.+46     	; 0xee6 <__clzsi2+0x64>
     eb8:	80 e0       	ldi	r24, 0x00	; 0
     eba:	90 e0       	ldi	r25, 0x00	; 0
     ebc:	a0 e0       	ldi	r26, 0x00	; 0
     ebe:	b0 e0       	ldi	r27, 0x00	; 0
     ec0:	12 c0       	rjmp	.+36     	; 0xee6 <__clzsi2+0x64>
     ec2:	80 e0       	ldi	r24, 0x00	; 0
     ec4:	e8 16       	cp	r14, r24
     ec6:	80 e0       	ldi	r24, 0x00	; 0
     ec8:	f8 06       	cpc	r15, r24
     eca:	80 e0       	ldi	r24, 0x00	; 0
     ecc:	08 07       	cpc	r16, r24
     ece:	81 e0       	ldi	r24, 0x01	; 1
     ed0:	18 07       	cpc	r17, r24
     ed2:	28 f0       	brcs	.+10     	; 0xede <__clzsi2+0x5c>
     ed4:	88 e1       	ldi	r24, 0x18	; 24
     ed6:	90 e0       	ldi	r25, 0x00	; 0
     ed8:	a0 e0       	ldi	r26, 0x00	; 0
     eda:	b0 e0       	ldi	r27, 0x00	; 0
     edc:	04 c0       	rjmp	.+8      	; 0xee6 <__clzsi2+0x64>
     ede:	80 e1       	ldi	r24, 0x10	; 16
     ee0:	90 e0       	ldi	r25, 0x00	; 0
     ee2:	a0 e0       	ldi	r26, 0x00	; 0
     ee4:	b0 e0       	ldi	r27, 0x00	; 0
     ee6:	20 e2       	ldi	r18, 0x20	; 32
     ee8:	30 e0       	ldi	r19, 0x00	; 0
     eea:	40 e0       	ldi	r20, 0x00	; 0
     eec:	50 e0       	ldi	r21, 0x00	; 0
     eee:	28 1b       	sub	r18, r24
     ef0:	39 0b       	sbc	r19, r25
     ef2:	4a 0b       	sbc	r20, r26
     ef4:	5b 0b       	sbc	r21, r27
     ef6:	04 c0       	rjmp	.+8      	; 0xf00 <__clzsi2+0x7e>
     ef8:	16 95       	lsr	r17
     efa:	07 95       	ror	r16
     efc:	f7 94       	ror	r15
     efe:	e7 94       	ror	r14
     f00:	8a 95       	dec	r24
     f02:	d2 f7       	brpl	.-12     	; 0xef8 <__clzsi2+0x76>
     f04:	f7 01       	movw	r30, r14
     f06:	ea 58       	subi	r30, 0x8A	; 138
     f08:	fd 4f       	sbci	r31, 0xFD	; 253
     f0a:	80 81       	ld	r24, Z
     f0c:	28 1b       	sub	r18, r24
     f0e:	31 09       	sbc	r19, r1
     f10:	41 09       	sbc	r20, r1
     f12:	51 09       	sbc	r21, r1
     f14:	c9 01       	movw	r24, r18
     f16:	1f 91       	pop	r17
     f18:	0f 91       	pop	r16
     f1a:	ff 90       	pop	r15
     f1c:	ef 90       	pop	r14
     f1e:	08 95       	ret

00000f20 <__pack_f>:
     f20:	df 92       	push	r13
     f22:	ef 92       	push	r14
     f24:	ff 92       	push	r15
     f26:	0f 93       	push	r16
     f28:	1f 93       	push	r17
     f2a:	fc 01       	movw	r30, r24
     f2c:	e4 80       	ldd	r14, Z+4	; 0x04
     f2e:	f5 80       	ldd	r15, Z+5	; 0x05
     f30:	06 81       	ldd	r16, Z+6	; 0x06
     f32:	17 81       	ldd	r17, Z+7	; 0x07
     f34:	d1 80       	ldd	r13, Z+1	; 0x01
     f36:	80 81       	ld	r24, Z
     f38:	82 30       	cpi	r24, 0x02	; 2
     f3a:	48 f4       	brcc	.+18     	; 0xf4e <__pack_f+0x2e>
     f3c:	80 e0       	ldi	r24, 0x00	; 0
     f3e:	90 e0       	ldi	r25, 0x00	; 0
     f40:	a0 e1       	ldi	r26, 0x10	; 16
     f42:	b0 e0       	ldi	r27, 0x00	; 0
     f44:	e8 2a       	or	r14, r24
     f46:	f9 2a       	or	r15, r25
     f48:	0a 2b       	or	r16, r26
     f4a:	1b 2b       	or	r17, r27
     f4c:	a5 c0       	rjmp	.+330    	; 0x1098 <__pack_f+0x178>
     f4e:	84 30       	cpi	r24, 0x04	; 4
     f50:	09 f4       	brne	.+2      	; 0xf54 <__pack_f+0x34>
     f52:	9f c0       	rjmp	.+318    	; 0x1092 <__pack_f+0x172>
     f54:	82 30       	cpi	r24, 0x02	; 2
     f56:	21 f4       	brne	.+8      	; 0xf60 <__pack_f+0x40>
     f58:	ee 24       	eor	r14, r14
     f5a:	ff 24       	eor	r15, r15
     f5c:	87 01       	movw	r16, r14
     f5e:	05 c0       	rjmp	.+10     	; 0xf6a <__pack_f+0x4a>
     f60:	e1 14       	cp	r14, r1
     f62:	f1 04       	cpc	r15, r1
     f64:	01 05       	cpc	r16, r1
     f66:	11 05       	cpc	r17, r1
     f68:	19 f4       	brne	.+6      	; 0xf70 <__pack_f+0x50>
     f6a:	e0 e0       	ldi	r30, 0x00	; 0
     f6c:	f0 e0       	ldi	r31, 0x00	; 0
     f6e:	96 c0       	rjmp	.+300    	; 0x109c <__pack_f+0x17c>
     f70:	62 81       	ldd	r22, Z+2	; 0x02
     f72:	73 81       	ldd	r23, Z+3	; 0x03
     f74:	9f ef       	ldi	r25, 0xFF	; 255
     f76:	62 38       	cpi	r22, 0x82	; 130
     f78:	79 07       	cpc	r23, r25
     f7a:	0c f0       	brlt	.+2      	; 0xf7e <__pack_f+0x5e>
     f7c:	5b c0       	rjmp	.+182    	; 0x1034 <__pack_f+0x114>
     f7e:	22 e8       	ldi	r18, 0x82	; 130
     f80:	3f ef       	ldi	r19, 0xFF	; 255
     f82:	26 1b       	sub	r18, r22
     f84:	37 0b       	sbc	r19, r23
     f86:	2a 31       	cpi	r18, 0x1A	; 26
     f88:	31 05       	cpc	r19, r1
     f8a:	2c f0       	brlt	.+10     	; 0xf96 <__pack_f+0x76>
     f8c:	20 e0       	ldi	r18, 0x00	; 0
     f8e:	30 e0       	ldi	r19, 0x00	; 0
     f90:	40 e0       	ldi	r20, 0x00	; 0
     f92:	50 e0       	ldi	r21, 0x00	; 0
     f94:	2a c0       	rjmp	.+84     	; 0xfea <__pack_f+0xca>
     f96:	b8 01       	movw	r22, r16
     f98:	a7 01       	movw	r20, r14
     f9a:	02 2e       	mov	r0, r18
     f9c:	04 c0       	rjmp	.+8      	; 0xfa6 <__pack_f+0x86>
     f9e:	76 95       	lsr	r23
     fa0:	67 95       	ror	r22
     fa2:	57 95       	ror	r21
     fa4:	47 95       	ror	r20
     fa6:	0a 94       	dec	r0
     fa8:	d2 f7       	brpl	.-12     	; 0xf9e <__pack_f+0x7e>
     faa:	81 e0       	ldi	r24, 0x01	; 1
     fac:	90 e0       	ldi	r25, 0x00	; 0
     fae:	a0 e0       	ldi	r26, 0x00	; 0
     fb0:	b0 e0       	ldi	r27, 0x00	; 0
     fb2:	04 c0       	rjmp	.+8      	; 0xfbc <__pack_f+0x9c>
     fb4:	88 0f       	add	r24, r24
     fb6:	99 1f       	adc	r25, r25
     fb8:	aa 1f       	adc	r26, r26
     fba:	bb 1f       	adc	r27, r27
     fbc:	2a 95       	dec	r18
     fbe:	d2 f7       	brpl	.-12     	; 0xfb4 <__pack_f+0x94>
     fc0:	01 97       	sbiw	r24, 0x01	; 1
     fc2:	a1 09       	sbc	r26, r1
     fc4:	b1 09       	sbc	r27, r1
     fc6:	8e 21       	and	r24, r14
     fc8:	9f 21       	and	r25, r15
     fca:	a0 23       	and	r26, r16
     fcc:	b1 23       	and	r27, r17
     fce:	00 97       	sbiw	r24, 0x00	; 0
     fd0:	a1 05       	cpc	r26, r1
     fd2:	b1 05       	cpc	r27, r1
     fd4:	21 f0       	breq	.+8      	; 0xfde <__pack_f+0xbe>
     fd6:	81 e0       	ldi	r24, 0x01	; 1
     fd8:	90 e0       	ldi	r25, 0x00	; 0
     fda:	a0 e0       	ldi	r26, 0x00	; 0
     fdc:	b0 e0       	ldi	r27, 0x00	; 0
     fde:	9a 01       	movw	r18, r20
     fe0:	ab 01       	movw	r20, r22
     fe2:	28 2b       	or	r18, r24
     fe4:	39 2b       	or	r19, r25
     fe6:	4a 2b       	or	r20, r26
     fe8:	5b 2b       	or	r21, r27
     fea:	da 01       	movw	r26, r20
     fec:	c9 01       	movw	r24, r18
     fee:	8f 77       	andi	r24, 0x7F	; 127
     ff0:	90 70       	andi	r25, 0x00	; 0
     ff2:	a0 70       	andi	r26, 0x00	; 0
     ff4:	b0 70       	andi	r27, 0x00	; 0
     ff6:	80 34       	cpi	r24, 0x40	; 64
     ff8:	91 05       	cpc	r25, r1
     ffa:	a1 05       	cpc	r26, r1
     ffc:	b1 05       	cpc	r27, r1
     ffe:	39 f4       	brne	.+14     	; 0x100e <__pack_f+0xee>
    1000:	27 ff       	sbrs	r18, 7
    1002:	09 c0       	rjmp	.+18     	; 0x1016 <__pack_f+0xf6>
    1004:	20 5c       	subi	r18, 0xC0	; 192
    1006:	3f 4f       	sbci	r19, 0xFF	; 255
    1008:	4f 4f       	sbci	r20, 0xFF	; 255
    100a:	5f 4f       	sbci	r21, 0xFF	; 255
    100c:	04 c0       	rjmp	.+8      	; 0x1016 <__pack_f+0xf6>
    100e:	21 5c       	subi	r18, 0xC1	; 193
    1010:	3f 4f       	sbci	r19, 0xFF	; 255
    1012:	4f 4f       	sbci	r20, 0xFF	; 255
    1014:	5f 4f       	sbci	r21, 0xFF	; 255
    1016:	e0 e0       	ldi	r30, 0x00	; 0
    1018:	f0 e0       	ldi	r31, 0x00	; 0
    101a:	20 30       	cpi	r18, 0x00	; 0
    101c:	a0 e0       	ldi	r26, 0x00	; 0
    101e:	3a 07       	cpc	r19, r26
    1020:	a0 e0       	ldi	r26, 0x00	; 0
    1022:	4a 07       	cpc	r20, r26
    1024:	a0 e4       	ldi	r26, 0x40	; 64
    1026:	5a 07       	cpc	r21, r26
    1028:	10 f0       	brcs	.+4      	; 0x102e <__pack_f+0x10e>
    102a:	e1 e0       	ldi	r30, 0x01	; 1
    102c:	f0 e0       	ldi	r31, 0x00	; 0
    102e:	79 01       	movw	r14, r18
    1030:	8a 01       	movw	r16, r20
    1032:	27 c0       	rjmp	.+78     	; 0x1082 <__pack_f+0x162>
    1034:	60 38       	cpi	r22, 0x80	; 128
    1036:	71 05       	cpc	r23, r1
    1038:	64 f5       	brge	.+88     	; 0x1092 <__pack_f+0x172>
    103a:	fb 01       	movw	r30, r22
    103c:	e1 58       	subi	r30, 0x81	; 129
    103e:	ff 4f       	sbci	r31, 0xFF	; 255
    1040:	d8 01       	movw	r26, r16
    1042:	c7 01       	movw	r24, r14
    1044:	8f 77       	andi	r24, 0x7F	; 127
    1046:	90 70       	andi	r25, 0x00	; 0
    1048:	a0 70       	andi	r26, 0x00	; 0
    104a:	b0 70       	andi	r27, 0x00	; 0
    104c:	80 34       	cpi	r24, 0x40	; 64
    104e:	91 05       	cpc	r25, r1
    1050:	a1 05       	cpc	r26, r1
    1052:	b1 05       	cpc	r27, r1
    1054:	39 f4       	brne	.+14     	; 0x1064 <__pack_f+0x144>
    1056:	e7 fe       	sbrs	r14, 7
    1058:	0d c0       	rjmp	.+26     	; 0x1074 <__pack_f+0x154>
    105a:	80 e4       	ldi	r24, 0x40	; 64
    105c:	90 e0       	ldi	r25, 0x00	; 0
    105e:	a0 e0       	ldi	r26, 0x00	; 0
    1060:	b0 e0       	ldi	r27, 0x00	; 0
    1062:	04 c0       	rjmp	.+8      	; 0x106c <__pack_f+0x14c>
    1064:	8f e3       	ldi	r24, 0x3F	; 63
    1066:	90 e0       	ldi	r25, 0x00	; 0
    1068:	a0 e0       	ldi	r26, 0x00	; 0
    106a:	b0 e0       	ldi	r27, 0x00	; 0
    106c:	e8 0e       	add	r14, r24
    106e:	f9 1e       	adc	r15, r25
    1070:	0a 1f       	adc	r16, r26
    1072:	1b 1f       	adc	r17, r27
    1074:	17 ff       	sbrs	r17, 7
    1076:	05 c0       	rjmp	.+10     	; 0x1082 <__pack_f+0x162>
    1078:	16 95       	lsr	r17
    107a:	07 95       	ror	r16
    107c:	f7 94       	ror	r15
    107e:	e7 94       	ror	r14
    1080:	31 96       	adiw	r30, 0x01	; 1
    1082:	87 e0       	ldi	r24, 0x07	; 7
    1084:	16 95       	lsr	r17
    1086:	07 95       	ror	r16
    1088:	f7 94       	ror	r15
    108a:	e7 94       	ror	r14
    108c:	8a 95       	dec	r24
    108e:	d1 f7       	brne	.-12     	; 0x1084 <__pack_f+0x164>
    1090:	05 c0       	rjmp	.+10     	; 0x109c <__pack_f+0x17c>
    1092:	ee 24       	eor	r14, r14
    1094:	ff 24       	eor	r15, r15
    1096:	87 01       	movw	r16, r14
    1098:	ef ef       	ldi	r30, 0xFF	; 255
    109a:	f0 e0       	ldi	r31, 0x00	; 0
    109c:	6e 2f       	mov	r22, r30
    109e:	67 95       	ror	r22
    10a0:	66 27       	eor	r22, r22
    10a2:	67 95       	ror	r22
    10a4:	90 2f       	mov	r25, r16
    10a6:	9f 77       	andi	r25, 0x7F	; 127
    10a8:	d7 94       	ror	r13
    10aa:	dd 24       	eor	r13, r13
    10ac:	d7 94       	ror	r13
    10ae:	8e 2f       	mov	r24, r30
    10b0:	86 95       	lsr	r24
    10b2:	49 2f       	mov	r20, r25
    10b4:	46 2b       	or	r20, r22
    10b6:	58 2f       	mov	r21, r24
    10b8:	5d 29       	or	r21, r13
    10ba:	b7 01       	movw	r22, r14
    10bc:	ca 01       	movw	r24, r20
    10be:	1f 91       	pop	r17
    10c0:	0f 91       	pop	r16
    10c2:	ff 90       	pop	r15
    10c4:	ef 90       	pop	r14
    10c6:	df 90       	pop	r13
    10c8:	08 95       	ret

000010ca <__unpack_f>:
    10ca:	fc 01       	movw	r30, r24
    10cc:	db 01       	movw	r26, r22
    10ce:	40 81       	ld	r20, Z
    10d0:	51 81       	ldd	r21, Z+1	; 0x01
    10d2:	22 81       	ldd	r18, Z+2	; 0x02
    10d4:	62 2f       	mov	r22, r18
    10d6:	6f 77       	andi	r22, 0x7F	; 127
    10d8:	70 e0       	ldi	r23, 0x00	; 0
    10da:	22 1f       	adc	r18, r18
    10dc:	22 27       	eor	r18, r18
    10de:	22 1f       	adc	r18, r18
    10e0:	93 81       	ldd	r25, Z+3	; 0x03
    10e2:	89 2f       	mov	r24, r25
    10e4:	88 0f       	add	r24, r24
    10e6:	82 2b       	or	r24, r18
    10e8:	28 2f       	mov	r18, r24
    10ea:	30 e0       	ldi	r19, 0x00	; 0
    10ec:	99 1f       	adc	r25, r25
    10ee:	99 27       	eor	r25, r25
    10f0:	99 1f       	adc	r25, r25
    10f2:	11 96       	adiw	r26, 0x01	; 1
    10f4:	9c 93       	st	X, r25
    10f6:	11 97       	sbiw	r26, 0x01	; 1
    10f8:	21 15       	cp	r18, r1
    10fa:	31 05       	cpc	r19, r1
    10fc:	a9 f5       	brne	.+106    	; 0x1168 <__stack+0x69>
    10fe:	41 15       	cp	r20, r1
    1100:	51 05       	cpc	r21, r1
    1102:	61 05       	cpc	r22, r1
    1104:	71 05       	cpc	r23, r1
    1106:	11 f4       	brne	.+4      	; 0x110c <__stack+0xd>
    1108:	82 e0       	ldi	r24, 0x02	; 2
    110a:	37 c0       	rjmp	.+110    	; 0x117a <__stack+0x7b>
    110c:	82 e8       	ldi	r24, 0x82	; 130
    110e:	9f ef       	ldi	r25, 0xFF	; 255
    1110:	13 96       	adiw	r26, 0x03	; 3
    1112:	9c 93       	st	X, r25
    1114:	8e 93       	st	-X, r24
    1116:	12 97       	sbiw	r26, 0x02	; 2
    1118:	9a 01       	movw	r18, r20
    111a:	ab 01       	movw	r20, r22
    111c:	67 e0       	ldi	r22, 0x07	; 7
    111e:	22 0f       	add	r18, r18
    1120:	33 1f       	adc	r19, r19
    1122:	44 1f       	adc	r20, r20
    1124:	55 1f       	adc	r21, r21
    1126:	6a 95       	dec	r22
    1128:	d1 f7       	brne	.-12     	; 0x111e <__stack+0x1f>
    112a:	83 e0       	ldi	r24, 0x03	; 3
    112c:	8c 93       	st	X, r24
    112e:	0d c0       	rjmp	.+26     	; 0x114a <__stack+0x4b>
    1130:	22 0f       	add	r18, r18
    1132:	33 1f       	adc	r19, r19
    1134:	44 1f       	adc	r20, r20
    1136:	55 1f       	adc	r21, r21
    1138:	12 96       	adiw	r26, 0x02	; 2
    113a:	8d 91       	ld	r24, X+
    113c:	9c 91       	ld	r25, X
    113e:	13 97       	sbiw	r26, 0x03	; 3
    1140:	01 97       	sbiw	r24, 0x01	; 1
    1142:	13 96       	adiw	r26, 0x03	; 3
    1144:	9c 93       	st	X, r25
    1146:	8e 93       	st	-X, r24
    1148:	12 97       	sbiw	r26, 0x02	; 2
    114a:	20 30       	cpi	r18, 0x00	; 0
    114c:	80 e0       	ldi	r24, 0x00	; 0
    114e:	38 07       	cpc	r19, r24
    1150:	80 e0       	ldi	r24, 0x00	; 0
    1152:	48 07       	cpc	r20, r24
    1154:	80 e4       	ldi	r24, 0x40	; 64
    1156:	58 07       	cpc	r21, r24
    1158:	58 f3       	brcs	.-42     	; 0x1130 <__stack+0x31>
    115a:	14 96       	adiw	r26, 0x04	; 4
    115c:	2d 93       	st	X+, r18
    115e:	3d 93       	st	X+, r19
    1160:	4d 93       	st	X+, r20
    1162:	5c 93       	st	X, r21
    1164:	17 97       	sbiw	r26, 0x07	; 7
    1166:	08 95       	ret
    1168:	2f 3f       	cpi	r18, 0xFF	; 255
    116a:	31 05       	cpc	r19, r1
    116c:	79 f4       	brne	.+30     	; 0x118c <__stack+0x8d>
    116e:	41 15       	cp	r20, r1
    1170:	51 05       	cpc	r21, r1
    1172:	61 05       	cpc	r22, r1
    1174:	71 05       	cpc	r23, r1
    1176:	19 f4       	brne	.+6      	; 0x117e <__stack+0x7f>
    1178:	84 e0       	ldi	r24, 0x04	; 4
    117a:	8c 93       	st	X, r24
    117c:	08 95       	ret
    117e:	64 ff       	sbrs	r22, 4
    1180:	03 c0       	rjmp	.+6      	; 0x1188 <__stack+0x89>
    1182:	81 e0       	ldi	r24, 0x01	; 1
    1184:	8c 93       	st	X, r24
    1186:	12 c0       	rjmp	.+36     	; 0x11ac <__stack+0xad>
    1188:	1c 92       	st	X, r1
    118a:	10 c0       	rjmp	.+32     	; 0x11ac <__stack+0xad>
    118c:	2f 57       	subi	r18, 0x7F	; 127
    118e:	30 40       	sbci	r19, 0x00	; 0
    1190:	13 96       	adiw	r26, 0x03	; 3
    1192:	3c 93       	st	X, r19
    1194:	2e 93       	st	-X, r18
    1196:	12 97       	sbiw	r26, 0x02	; 2
    1198:	83 e0       	ldi	r24, 0x03	; 3
    119a:	8c 93       	st	X, r24
    119c:	87 e0       	ldi	r24, 0x07	; 7
    119e:	44 0f       	add	r20, r20
    11a0:	55 1f       	adc	r21, r21
    11a2:	66 1f       	adc	r22, r22
    11a4:	77 1f       	adc	r23, r23
    11a6:	8a 95       	dec	r24
    11a8:	d1 f7       	brne	.-12     	; 0x119e <__stack+0x9f>
    11aa:	70 64       	ori	r23, 0x40	; 64
    11ac:	14 96       	adiw	r26, 0x04	; 4
    11ae:	4d 93       	st	X+, r20
    11b0:	5d 93       	st	X+, r21
    11b2:	6d 93       	st	X+, r22
    11b4:	7c 93       	st	X, r23
    11b6:	17 97       	sbiw	r26, 0x07	; 7
    11b8:	08 95       	ret

000011ba <__mulsi3>:
    11ba:	62 9f       	mul	r22, r18
    11bc:	d0 01       	movw	r26, r0
    11be:	73 9f       	mul	r23, r19
    11c0:	f0 01       	movw	r30, r0
    11c2:	82 9f       	mul	r24, r18
    11c4:	e0 0d       	add	r30, r0
    11c6:	f1 1d       	adc	r31, r1
    11c8:	64 9f       	mul	r22, r20
    11ca:	e0 0d       	add	r30, r0
    11cc:	f1 1d       	adc	r31, r1
    11ce:	92 9f       	mul	r25, r18
    11d0:	f0 0d       	add	r31, r0
    11d2:	83 9f       	mul	r24, r19
    11d4:	f0 0d       	add	r31, r0
    11d6:	74 9f       	mul	r23, r20
    11d8:	f0 0d       	add	r31, r0
    11da:	65 9f       	mul	r22, r21
    11dc:	f0 0d       	add	r31, r0
    11de:	99 27       	eor	r25, r25
    11e0:	72 9f       	mul	r23, r18
    11e2:	b0 0d       	add	r27, r0
    11e4:	e1 1d       	adc	r30, r1
    11e6:	f9 1f       	adc	r31, r25
    11e8:	63 9f       	mul	r22, r19
    11ea:	b0 0d       	add	r27, r0
    11ec:	e1 1d       	adc	r30, r1
    11ee:	f9 1f       	adc	r31, r25
    11f0:	bd 01       	movw	r22, r26
    11f2:	cf 01       	movw	r24, r30
    11f4:	11 24       	eor	r1, r1
    11f6:	08 95       	ret

000011f8 <__udivmodhi4>:
    11f8:	aa 1b       	sub	r26, r26
    11fa:	bb 1b       	sub	r27, r27
    11fc:	51 e1       	ldi	r21, 0x11	; 17
    11fe:	07 c0       	rjmp	.+14     	; 0x120e <__udivmodhi4_ep>

00001200 <__udivmodhi4_loop>:
    1200:	aa 1f       	adc	r26, r26
    1202:	bb 1f       	adc	r27, r27
    1204:	a6 17       	cp	r26, r22
    1206:	b7 07       	cpc	r27, r23
    1208:	10 f0       	brcs	.+4      	; 0x120e <__udivmodhi4_ep>
    120a:	a6 1b       	sub	r26, r22
    120c:	b7 0b       	sbc	r27, r23

0000120e <__udivmodhi4_ep>:
    120e:	88 1f       	adc	r24, r24
    1210:	99 1f       	adc	r25, r25
    1212:	5a 95       	dec	r21
    1214:	a9 f7       	brne	.-22     	; 0x1200 <__udivmodhi4_loop>
    1216:	80 95       	com	r24
    1218:	90 95       	com	r25
    121a:	bc 01       	movw	r22, r24
    121c:	cd 01       	movw	r24, r26
    121e:	08 95       	ret

00001220 <__udivmodsi4>:
    1220:	a1 e2       	ldi	r26, 0x21	; 33
    1222:	1a 2e       	mov	r1, r26
    1224:	aa 1b       	sub	r26, r26
    1226:	bb 1b       	sub	r27, r27
    1228:	fd 01       	movw	r30, r26
    122a:	0d c0       	rjmp	.+26     	; 0x1246 <__udivmodsi4_ep>

0000122c <__udivmodsi4_loop>:
    122c:	aa 1f       	adc	r26, r26
    122e:	bb 1f       	adc	r27, r27
    1230:	ee 1f       	adc	r30, r30
    1232:	ff 1f       	adc	r31, r31
    1234:	a2 17       	cp	r26, r18
    1236:	b3 07       	cpc	r27, r19
    1238:	e4 07       	cpc	r30, r20
    123a:	f5 07       	cpc	r31, r21
    123c:	20 f0       	brcs	.+8      	; 0x1246 <__udivmodsi4_ep>
    123e:	a2 1b       	sub	r26, r18
    1240:	b3 0b       	sbc	r27, r19
    1242:	e4 0b       	sbc	r30, r20
    1244:	f5 0b       	sbc	r31, r21

00001246 <__udivmodsi4_ep>:
    1246:	66 1f       	adc	r22, r22
    1248:	77 1f       	adc	r23, r23
    124a:	88 1f       	adc	r24, r24
    124c:	99 1f       	adc	r25, r25
    124e:	1a 94       	dec	r1
    1250:	69 f7       	brne	.-38     	; 0x122c <__udivmodsi4_loop>
    1252:	60 95       	com	r22
    1254:	70 95       	com	r23
    1256:	80 95       	com	r24
    1258:	90 95       	com	r25
    125a:	9b 01       	movw	r18, r22
    125c:	ac 01       	movw	r20, r24
    125e:	bd 01       	movw	r22, r26
    1260:	cf 01       	movw	r24, r30
    1262:	08 95       	ret

00001264 <__prologue_saves__>:
    1264:	2f 92       	push	r2
    1266:	3f 92       	push	r3
    1268:	4f 92       	push	r4
    126a:	5f 92       	push	r5
    126c:	6f 92       	push	r6
    126e:	7f 92       	push	r7
    1270:	8f 92       	push	r8
    1272:	9f 92       	push	r9
    1274:	af 92       	push	r10
    1276:	bf 92       	push	r11
    1278:	cf 92       	push	r12
    127a:	df 92       	push	r13
    127c:	ef 92       	push	r14
    127e:	ff 92       	push	r15
    1280:	0f 93       	push	r16
    1282:	1f 93       	push	r17
    1284:	cf 93       	push	r28
    1286:	df 93       	push	r29
    1288:	cd b7       	in	r28, 0x3d	; 61
    128a:	de b7       	in	r29, 0x3e	; 62
    128c:	ca 1b       	sub	r28, r26
    128e:	db 0b       	sbc	r29, r27
    1290:	0f b6       	in	r0, 0x3f	; 63
    1292:	f8 94       	cli
    1294:	de bf       	out	0x3e, r29	; 62
    1296:	0f be       	out	0x3f, r0	; 63
    1298:	cd bf       	out	0x3d, r28	; 61
    129a:	09 94       	ijmp

0000129c <__epilogue_restores__>:
    129c:	2a 88       	ldd	r2, Y+18	; 0x12
    129e:	39 88       	ldd	r3, Y+17	; 0x11
    12a0:	48 88       	ldd	r4, Y+16	; 0x10
    12a2:	5f 84       	ldd	r5, Y+15	; 0x0f
    12a4:	6e 84       	ldd	r6, Y+14	; 0x0e
    12a6:	7d 84       	ldd	r7, Y+13	; 0x0d
    12a8:	8c 84       	ldd	r8, Y+12	; 0x0c
    12aa:	9b 84       	ldd	r9, Y+11	; 0x0b
    12ac:	aa 84       	ldd	r10, Y+10	; 0x0a
    12ae:	b9 84       	ldd	r11, Y+9	; 0x09
    12b0:	c8 84       	ldd	r12, Y+8	; 0x08
    12b2:	df 80       	ldd	r13, Y+7	; 0x07
    12b4:	ee 80       	ldd	r14, Y+6	; 0x06
    12b6:	fd 80       	ldd	r15, Y+5	; 0x05
    12b8:	0c 81       	ldd	r16, Y+4	; 0x04
    12ba:	1b 81       	ldd	r17, Y+3	; 0x03
    12bc:	aa 81       	ldd	r26, Y+2	; 0x02
    12be:	b9 81       	ldd	r27, Y+1	; 0x01
    12c0:	ce 0f       	add	r28, r30
    12c2:	d1 1d       	adc	r29, r1
    12c4:	0f b6       	in	r0, 0x3f	; 63
    12c6:	f8 94       	cli
    12c8:	de bf       	out	0x3e, r29	; 62
    12ca:	0f be       	out	0x3f, r0	; 63
    12cc:	cd bf       	out	0x3d, r28	; 61
    12ce:	ed 01       	movw	r28, r26
    12d0:	08 95       	ret

000012d2 <_exit>:
    12d2:	f8 94       	cli

000012d4 <__stop_program>:
    12d4:	ff cf       	rjmp	.-2      	; 0x12d4 <__stop_program>
